ARM GAS  C:\Users\embedded\AppData\Local\Temp\ccHk1fkP.s 			page 1


   1              		.cpu arm7tdmi
   2              		.eabi_attribute 20, 1
   3              		.eabi_attribute 21, 1
   4              		.eabi_attribute 23, 3
   5              		.eabi_attribute 24, 1
   6              		.eabi_attribute 25, 1
   7              		.eabi_attribute 26, 1
   8              		.eabi_attribute 30, 6
   9              		.eabi_attribute 34, 0
  10              		.eabi_attribute 18, 4
  11              		.file	"main.c"
  12              		.text
  13              	.Ltext0:
  14              		.cfi_sections	.debug_frame
  15              		.comm	timeTwo,4,4
  16              		.align	1
  17              		.global	sdelay
  18              		.syntax unified
  19              		.code	16
  20              		.thumb_func
  21              		.fpu softvfp
  22              		.type	sdelay, %function
  23              	sdelay:
  24              	.LFB3:
  25              		.file 1 "main.c"
   1:main.c        **** 
   2:main.c        **** /*************************************************************************************
   3:main.c        ****  *
   4:main.c        ****  * Gra "Refleks"
   5:main.c        ****  *
   6:main.c        ****  * Rozgrywka polega na skierowanie joy-stick'a w odpowiednim kierunku
   7:main.c        ****  *(lewo/prawo) w zaleznosci od uslyszanego dzwieku. Gra przewidziana jest na 5
   8:main.c        ****  *rund, z czego czas na wykonanie ruchu przez gracza stopniowo sie zmniejsza.
   9:main.c        ****  * Wynik gracza stanowi liczba rund, w ktorych udalo mu sie wykonac prawidlowy
  10:main.c        ****  *ruch przed uplywem ustalonego czasu. Po zakonczeniu gry nalezy wprowadzic
  11:main.c        ****  *nazwe gracza. W pamieci urzadzenia zapisywana jest informacja o najlepszym
  12:main.c        ****  *uzyskanym wyniku.
  13:main.c        ****  *
  14:main.c        ****  * @Authors: Agata Granosik, Hubert Krolikowski, Jakub Czyzewski
  15:main.c        ****  ******************************************************************************/
  16:main.c        **** 
  17:main.c        **** #include <config.h>
  18:main.c        **** #include <consol.h>
  19:main.c        **** #include <lpc2xxx.h>
  20:main.c        **** #include <printf_P.h>
  21:main.c        **** #include <printf_init.h>
  22:main.c        **** #include <stdio.h>
  23:main.c        **** 
  24:main.c        **** #include "Common_Def.h"
  25:main.c        **** #include "VIC.h"
  26:main.c        **** #include "pca9532.h"
  27:main.c        **** #include "eeprom.h"
  28:main.c        **** #include "general.h"
  29:main.c        **** #include "i2c.h"
  30:main.c        **** #include "irq/irq_handler.h"
  31:main.c        **** #include "lcd.h"
  32:main.c        **** #include "lcd_hw.h"
ARM GAS  C:\Users\embedded\AppData\Local\Temp\ccHk1fkP.s 			page 2


  33:main.c        **** #include "timer.h"
  34:main.c        **** 
  35:main.c        **** /**
  36:main.c        ****  * @brief Opoznienie wyrazone w liczbie sekund
  37:main.c        ****  * @param seconds:
  38:main.c        ****  *      liczba sekund opoznienia
  39:main.c        ****  * @returns: Nic
  40:main.c        ****  * @attention:
  41:main.c        ****  *      przeprogramowany Timer #0
  42:main.c        ****  */
  43:main.c        **** void sdelay(tU32 seconds) {
  26              		.loc 1 43 0
  27              		.cfi_startproc
  28              		@ Function supports interworking.
  29              		@ args = 0, pretend = 0, frame = 8
  30              		@ frame_needed = 1, uses_anonymous_args = 0
  31 0000 80B5     		push	{r7, lr}
  32              	.LCFI0:
  33              		.cfi_def_cfa_offset 8
  34              		.cfi_offset 7, -8
  35              		.cfi_offset 14, -4
  36 0002 82B0     		sub	sp, sp, #8
  37              	.LCFI1:
  38              		.cfi_def_cfa_offset 16
  39 0004 00AF     		add	r7, sp, #0
  40              	.LCFI2:
  41              		.cfi_def_cfa_register 7
  42 0006 7860     		str	r0, [r7, #4]
  44:main.c        ****     T0TCR = TIMER_RESET;          // Zatrzymaj i zresetuj
  43              		.loc 1 44 0
  44 0008 0F4B     		ldr	r3, .L3
  45 000a 0222     		movs	r2, #2
  46 000c 1A60     		str	r2, [r3]
  45:main.c        ****     T0PR = PERIPHERAL_CLOCK - 1;  // jednostka w preskalerze
  47              		.loc 1 45 0
  48 000e 0F4B     		ldr	r3, .L3+4
  49 0010 0F4A     		ldr	r2, .L3+8
  50 0012 1A60     		str	r2, [r3]
  46:main.c        ****     T0MR0 = seconds;
  51              		.loc 1 46 0
  52 0014 0F4B     		ldr	r3, .L3+12
  53 0016 7A68     		ldr	r2, [r7, #4]
  54 0018 1A60     		str	r2, [r3]
  47:main.c        ****     T0IR = TIMER_ALL_INT;  // Resetowanie flag przerwan
  55              		.loc 1 47 0
  56 001a 0F4B     		ldr	r3, .L3+16
  57 001c FF22     		movs	r2, #255
  58 001e 1A60     		str	r2, [r3]
  48:main.c        ****     T0MCR = MR0_S;         // Licz do wartosci w MR0 i zatrzymaj sie
  59              		.loc 1 48 0
  60 0020 0E4B     		ldr	r3, .L3+20
  61 0022 0422     		movs	r2, #4
  62 0024 1A60     		str	r2, [r3]
  49:main.c        ****     T0TCR = TIMER_RUN;     // Uruchom timer
  63              		.loc 1 49 0
  64 0026 084B     		ldr	r3, .L3
  65 0028 0122     		movs	r2, #1
ARM GAS  C:\Users\embedded\AppData\Local\Temp\ccHk1fkP.s 			page 3


  66 002a 1A60     		str	r2, [r3]
  50:main.c        **** 
  51:main.c        ****     // sprawdza czy timer dziala
  52:main.c        ****     // nie ma wpisanego ogranicznika liczby petli, ze wzgledu na charakter
  53:main.c        ****     // procedury
  54:main.c        ****     while ((T0TCR & TIMER_RUN) == 1) {
  67              		.loc 1 54 0
  68 002c C046     		nop
  69              	.L2:
  70              		.loc 1 54 0 is_stmt 0 discriminator 1
  71 002e 064B     		ldr	r3, .L3
  72 0030 1B68     		ldr	r3, [r3]
  73 0032 0122     		movs	r2, #1
  74 0034 1340     		ands	r3, r2
  75 0036 012B     		cmp	r3, #1
  76 0038 F9D0     		beq	.L2
  55:main.c        ****     }
  56:main.c        **** }
  77              		.loc 1 56 0 is_stmt 1
  78 003a C046     		nop
  79 003c BD46     		mov	sp, r7
  80 003e 02B0     		add	sp, sp, #8
  81              		@ sp needed
  82 0040 80BC     		pop	{r7}
  83 0042 01BC     		pop	{r0}
  84 0044 0047     		bx	r0
  85              	.L4:
  86 0046 C046     		.align	2
  87              	.L3:
  88 0048 044000E0 		.word	-536854524
  89 004c 0C4000E0 		.word	-536854516
  90 0050 FFFF8303 		.word	58982399
  91 0054 184000E0 		.word	-536854504
  92 0058 004000E0 		.word	-536854528
  93 005c 144000E0 		.word	-536854508
  94              		.cfi_endproc
  95              	.LFE3:
  96              		.size	sdelay, .-sdelay
  97              		.align	1
  98              		.global	delayMs
  99              		.syntax unified
 100              		.code	16
 101              		.thumb_func
 102              		.fpu softvfp
 103              		.type	delayMs, %function
 104              	delayMs:
 105              	.LFB4:
  57:main.c        **** 
  58:main.c        **** /**
  59:main.c        ****  * @brief: Opoznienie wyrazone w liczbie milisekund
  60:main.c        ****  * @param seconds:
  61:main.c        ****  *      liczba milisekund opoznienia
  62:main.c        ****  * @Returns: Nic
  63:main.c        ****  * @attention:
  64:main.c        ****  *    przeprogramowany Timer #1
  65:main.c        ****  */
  66:main.c        **** void delayMs(tU16 delayInMs) {
ARM GAS  C:\Users\embedded\AppData\Local\Temp\ccHk1fkP.s 			page 4


 106              		.loc 1 66 0
 107              		.cfi_startproc
 108              		@ Function supports interworking.
 109              		@ args = 0, pretend = 0, frame = 8
 110              		@ frame_needed = 1, uses_anonymous_args = 0
 111 0060 80B5     		push	{r7, lr}
 112              	.LCFI3:
 113              		.cfi_def_cfa_offset 8
 114              		.cfi_offset 7, -8
 115              		.cfi_offset 14, -4
 116 0062 82B0     		sub	sp, sp, #8
 117              	.LCFI4:
 118              		.cfi_def_cfa_offset 16
 119 0064 00AF     		add	r7, sp, #0
 120              	.LCFI5:
 121              		.cfi_def_cfa_register 7
 122 0066 0200     		movs	r2, r0
 123 0068 BB1D     		adds	r3, r7, #6
 124 006a 1A80     		strh	r2, [r3]
  67:main.c        ****     T1TCR = 0x02;
 125              		.loc 1 67 0
 126 006c 114B     		ldr	r3, .L7
 127 006e 0222     		movs	r2, #2
 128 0070 1A60     		str	r2, [r3]
  68:main.c        ****     T1PR = 0x00;
 129              		.loc 1 68 0
 130 0072 114B     		ldr	r3, .L7+4
 131 0074 0022     		movs	r2, #0
 132 0076 1A60     		str	r2, [r3]
  69:main.c        ****     T1MR0 = delayInMs * (CORE_FREQ / PBSD / 1000);
 133              		.loc 1 69 0
 134 0078 BB1D     		adds	r3, r7, #6
 135 007a 1888     		ldrh	r0, [r3]
 136 007c 0F4B     		ldr	r3, .L7+8
 137 007e 1049     		ldr	r1, .L7+12
 138 0080 0200     		movs	r2, r0
 139 0082 4A43     		muls	r2, r1
 140 0084 1A60     		str	r2, [r3]
  70:main.c        ****     T1IR = 0xff;
 141              		.loc 1 70 0
 142 0086 0F4B     		ldr	r3, .L7+16
 143 0088 FF22     		movs	r2, #255
 144 008a 1A60     		str	r2, [r3]
  71:main.c        ****     T1MCR = 0x04;
 145              		.loc 1 71 0
 146 008c 0E4B     		ldr	r3, .L7+20
 147 008e 0422     		movs	r2, #4
 148 0090 1A60     		str	r2, [r3]
  72:main.c        ****     T1TCR = 0x01;
 149              		.loc 1 72 0
 150 0092 084B     		ldr	r3, .L7
 151 0094 0122     		movs	r2, #1
 152 0096 1A60     		str	r2, [r3]
  73:main.c        **** 
  74:main.c        ****     while ((T1TCR & 0x01) == 1) {
 153              		.loc 1 74 0
 154 0098 C046     		nop
ARM GAS  C:\Users\embedded\AppData\Local\Temp\ccHk1fkP.s 			page 5


 155              	.L6:
 156              		.loc 1 74 0 is_stmt 0 discriminator 1
 157 009a 064B     		ldr	r3, .L7
 158 009c 1B68     		ldr	r3, [r3]
 159 009e 0122     		movs	r2, #1
 160 00a0 1340     		ands	r3, r2
 161 00a2 012B     		cmp	r3, #1
 162 00a4 F9D0     		beq	.L6
  75:main.c        ****     }
  76:main.c        **** }
 163              		.loc 1 76 0 is_stmt 1
 164 00a6 C046     		nop
 165 00a8 BD46     		mov	sp, r7
 166 00aa 02B0     		add	sp, sp, #8
 167              		@ sp needed
 168 00ac 80BC     		pop	{r7}
 169 00ae 01BC     		pop	{r0}
 170 00b0 0047     		bx	r0
 171              	.L8:
 172 00b2 C046     		.align	2
 173              	.L7:
 174 00b4 048000E0 		.word	-536838140
 175 00b8 0C8000E0 		.word	-536838132
 176 00bc 188000E0 		.word	-536838120
 177 00c0 66E60000 		.word	58982
 178 00c4 008000E0 		.word	-536838144
 179 00c8 148000E0 		.word	-536838124
 180              		.cfi_endproc
 181              	.LFE4:
 182              		.size	delayMs, .-delayMs
 183              		.align	1
 184              		.global	delayUs
 185              		.syntax unified
 186              		.code	16
 187              		.thumb_func
 188              		.fpu softvfp
 189              		.type	delayUs, %function
 190              	delayUs:
 191              	.LFB5:
  77:main.c        **** 
  78:main.c        **** /**
  79:main.c        ****  * @brief: Opoznienie wyrazone w liczbie mikrosekund
  80:main.c        ****  * @param seconds:
  81:main.c        ****  *      liczba mikrosekund opoznienia
  82:main.c        ****  * @returns: Nic
  83:main.c        ****  * @attention:
  84:main.c        ****  *    przeprogramowany Timer #1
  85:main.c        ****  */
  86:main.c        **** void delayUs(tU16 delayInMs) {
 192              		.loc 1 86 0
 193              		.cfi_startproc
 194              		@ Function supports interworking.
 195              		@ args = 0, pretend = 0, frame = 8
 196              		@ frame_needed = 1, uses_anonymous_args = 0
 197 00cc 80B5     		push	{r7, lr}
 198              	.LCFI6:
 199              		.cfi_def_cfa_offset 8
ARM GAS  C:\Users\embedded\AppData\Local\Temp\ccHk1fkP.s 			page 6


 200              		.cfi_offset 7, -8
 201              		.cfi_offset 14, -4
 202 00ce 82B0     		sub	sp, sp, #8
 203              	.LCFI7:
 204              		.cfi_def_cfa_offset 16
 205 00d0 00AF     		add	r7, sp, #0
 206              	.LCFI8:
 207              		.cfi_def_cfa_register 7
 208 00d2 0200     		movs	r2, r0
 209 00d4 BB1D     		adds	r3, r7, #6
 210 00d6 1A80     		strh	r2, [r3]
  87:main.c        ****     T1TCR = 0x02;
 211              		.loc 1 87 0
 212 00d8 114B     		ldr	r3, .L11
 213 00da 0222     		movs	r2, #2
 214 00dc 1A60     		str	r2, [r3]
  88:main.c        ****     T1PR = 0x00;
 215              		.loc 1 88 0
 216 00de 114B     		ldr	r3, .L11+4
 217 00e0 0022     		movs	r2, #0
 218 00e2 1A60     		str	r2, [r3]
  89:main.c        ****     T1MR0 = delayInMs * (CORE_FREQ / PBSD / 1000000);
 219              		.loc 1 89 0
 220 00e4 BB1D     		adds	r3, r7, #6
 221 00e6 1888     		ldrh	r0, [r3]
 222 00e8 0F4B     		ldr	r3, .L11+8
 223 00ea 3A21     		movs	r1, #58
 224 00ec 0200     		movs	r2, r0
 225 00ee 4A43     		muls	r2, r1
 226 00f0 1A60     		str	r2, [r3]
  90:main.c        ****     T1IR = 0xff;
 227              		.loc 1 90 0
 228 00f2 0E4B     		ldr	r3, .L11+12
 229 00f4 FF22     		movs	r2, #255
 230 00f6 1A60     		str	r2, [r3]
  91:main.c        ****     T1MCR = 0x04;
 231              		.loc 1 91 0
 232 00f8 0D4B     		ldr	r3, .L11+16
 233 00fa 0422     		movs	r2, #4
 234 00fc 1A60     		str	r2, [r3]
  92:main.c        ****     T1TCR = 0x01;
 235              		.loc 1 92 0
 236 00fe 084B     		ldr	r3, .L11
 237 0100 0122     		movs	r2, #1
 238 0102 1A60     		str	r2, [r3]
  93:main.c        **** 
  94:main.c        ****     while ((T1TCR & 0x01) == 1) {
 239              		.loc 1 94 0
 240 0104 C046     		nop
 241              	.L10:
 242              		.loc 1 94 0 is_stmt 0 discriminator 1
 243 0106 064B     		ldr	r3, .L11
 244 0108 1B68     		ldr	r3, [r3]
 245 010a 0122     		movs	r2, #1
 246 010c 1340     		ands	r3, r2
 247 010e 012B     		cmp	r3, #1
 248 0110 F9D0     		beq	.L10
ARM GAS  C:\Users\embedded\AppData\Local\Temp\ccHk1fkP.s 			page 7


  95:main.c        ****     }
  96:main.c        **** }
 249              		.loc 1 96 0 is_stmt 1
 250 0112 C046     		nop
 251 0114 BD46     		mov	sp, r7
 252 0116 02B0     		add	sp, sp, #8
 253              		@ sp needed
 254 0118 80BC     		pop	{r7}
 255 011a 01BC     		pop	{r0}
 256 011c 0047     		bx	r0
 257              	.L12:
 258 011e C046     		.align	2
 259              	.L11:
 260 0120 048000E0 		.word	-536838140
 261 0124 0C8000E0 		.word	-536838132
 262 0128 188000E0 		.word	-536838120
 263 012c 008000E0 		.word	-536838144
 264 0130 148000E0 		.word	-536838124
 265              		.cfi_endproc
 266              	.LFE5:
 267              		.size	delayUs, .-delayUs
 268              		.align	1
 269              		.global	delayPs
 270              		.syntax unified
 271              		.code	16
 272              		.thumb_func
 273              		.fpu softvfp
 274              		.type	delayPs, %function
 275              	delayPs:
 276              	.LFB6:
  97:main.c        **** 
  98:main.c        **** /**
  99:main.c        ****  * @brief: Opoznienie wyrazone w liczbie pikosekund
 100:main.c        ****  * @param seconds:
 101:main.c        ****  *      liczba pikosekund opoznienia
 102:main.c        ****  * @returns: Nic
 103:main.c        ****  * @attention:
 104:main.c        ****  *    przeprogramowany Timer #1
 105:main.c        ****  */
 106:main.c        **** void delayPs(tU16 delayInMs) {
 277              		.loc 1 106 0
 278              		.cfi_startproc
 279              		@ Function supports interworking.
 280              		@ args = 0, pretend = 0, frame = 8
 281              		@ frame_needed = 1, uses_anonymous_args = 0
 282 0134 80B5     		push	{r7, lr}
 283              	.LCFI9:
 284              		.cfi_def_cfa_offset 8
 285              		.cfi_offset 7, -8
 286              		.cfi_offset 14, -4
 287 0136 82B0     		sub	sp, sp, #8
 288              	.LCFI10:
 289              		.cfi_def_cfa_offset 16
 290 0138 00AF     		add	r7, sp, #0
 291              	.LCFI11:
 292              		.cfi_def_cfa_register 7
 293 013a 0200     		movs	r2, r0
ARM GAS  C:\Users\embedded\AppData\Local\Temp\ccHk1fkP.s 			page 8


 294 013c BB1D     		adds	r3, r7, #6
 295 013e 1A80     		strh	r2, [r3]
 107:main.c        ****     T1TCR = 0x02;
 296              		.loc 1 107 0
 297 0140 0F4B     		ldr	r3, .L15
 298 0142 0222     		movs	r2, #2
 299 0144 1A60     		str	r2, [r3]
 108:main.c        ****     T1PR = 0x00;
 300              		.loc 1 108 0
 301 0146 0F4B     		ldr	r3, .L15+4
 302 0148 0022     		movs	r2, #0
 303 014a 1A60     		str	r2, [r3]
 109:main.c        ****     T1MR0 = delayInMs * (CORE_FREQ / PBSD / 1000000000);
 304              		.loc 1 109 0
 305 014c 0E4B     		ldr	r3, .L15+8
 306 014e 0022     		movs	r2, #0
 307 0150 1A60     		str	r2, [r3]
 110:main.c        ****     T1IR = 0xff;
 308              		.loc 1 110 0
 309 0152 0E4B     		ldr	r3, .L15+12
 310 0154 FF22     		movs	r2, #255
 311 0156 1A60     		str	r2, [r3]
 111:main.c        ****     T1MCR = 0x04;
 312              		.loc 1 111 0
 313 0158 0D4B     		ldr	r3, .L15+16
 314 015a 0422     		movs	r2, #4
 315 015c 1A60     		str	r2, [r3]
 112:main.c        ****     T1TCR = 0x01;
 316              		.loc 1 112 0
 317 015e 084B     		ldr	r3, .L15
 318 0160 0122     		movs	r2, #1
 319 0162 1A60     		str	r2, [r3]
 113:main.c        **** 
 114:main.c        ****     while ((T1TCR & 0x01) == 1) {
 320              		.loc 1 114 0
 321 0164 C046     		nop
 322              	.L14:
 323              		.loc 1 114 0 is_stmt 0 discriminator 1
 324 0166 064B     		ldr	r3, .L15
 325 0168 1B68     		ldr	r3, [r3]
 326 016a 0122     		movs	r2, #1
 327 016c 1340     		ands	r3, r2
 328 016e 012B     		cmp	r3, #1
 329 0170 F9D0     		beq	.L14
 115:main.c        ****     }
 116:main.c        **** }
 330              		.loc 1 116 0 is_stmt 1
 331 0172 C046     		nop
 332 0174 BD46     		mov	sp, r7
 333 0176 02B0     		add	sp, sp, #8
 334              		@ sp needed
 335 0178 80BC     		pop	{r7}
 336 017a 01BC     		pop	{r0}
 337 017c 0047     		bx	r0
 338              	.L16:
 339 017e C046     		.align	2
 340              	.L15:
ARM GAS  C:\Users\embedded\AppData\Local\Temp\ccHk1fkP.s 			page 9


 341 0180 048000E0 		.word	-536838140
 342 0184 0C8000E0 		.word	-536838132
 343 0188 188000E0 		.word	-536838120
 344 018c 008000E0 		.word	-536838144
 345 0190 148000E0 		.word	-536838124
 346              		.cfi_endproc
 347              	.LFE6:
 348              		.size	delayPs, .-delayPs
 349              		.global	__aeabi_uldivmod
 350              		.global	__aeabi_lmul
 351              		.align	1
 352              		.syntax unified
 353              		.code	16
 354              		.thumb_func
 355              		.fpu softvfp
 356              		.type	init_irq, %function
 357              	init_irq:
 358              	.LFB7:
 117:main.c        **** 
 118:main.c        **** /************************************************************************
 119:main.c        ****  * @brief: Uruchomienie obslugi przerwan
 120:main.c        ****  * @param period:
 121:main.c        ****  *      okres generatora przerwan
 122:main.c        ****  * @param duty_cycle:
 123:main.c        ****  *      wypelnienie w %
 124:main.c        ****  * @returns: Nic
 125:main.c        ****  * @attention:
 126:main.c        ****  *    przeprogramowany timer #1
 127:main.c        ****  *************************************************************************/
 128:main.c        **** static void init_irq(tU32 period, tU8 duty_cycle) {
 359              		.loc 1 128 0
 360              		.cfi_startproc
 361              		@ Function supports interworking.
 362              		@ args = 0, pretend = 0, frame = 48
 363              		@ frame_needed = 1, uses_anonymous_args = 0
 364 0194 F0B5     		push	{r4, r5, r6, r7, lr}
 365              	.LCFI12:
 366              		.cfi_def_cfa_offset 20
 367              		.cfi_offset 4, -20
 368              		.cfi_offset 5, -16
 369              		.cfi_offset 6, -12
 370              		.cfi_offset 7, -8
 371              		.cfi_offset 14, -4
 372 0196 8DB0     		sub	sp, sp, #52
 373              	.LCFI13:
 374              		.cfi_def_cfa_offset 72
 375 0198 00AF     		add	r7, sp, #0
 376              	.LCFI14:
 377              		.cfi_def_cfa_register 7
 378 019a F862     		str	r0, [r7, #44]
 379 019c 0B00     		movs	r3, r1
 380 019e 2B22     		movs	r2, #43
 381 01a0 BA18     		adds	r2, r7, r2
 382 01a2 1370     		strb	r3, [r2]
 129:main.c        ****     // Zainicjuj VIC dla przerwan od Timera #1
 130:main.c        ****     VICIntSelect &=
 383              		.loc 1 130 0
ARM GAS  C:\Users\embedded\AppData\Local\Temp\ccHk1fkP.s 			page 10


 384 01a4 3C4B     		ldr	r3, .L18
 385 01a6 1968     		ldr	r1, [r3]
 386 01a8 3B4A     		ldr	r2, .L18
 387 01aa 2023     		movs	r3, #32
 388 01ac 9943     		bics	r1, r3
 389 01ae 0B00     		movs	r3, r1
 390 01b0 1360     		str	r3, [r2]
 131:main.c        ****             ~TIMER_1_IRQ;  // Przerwanie od Timera #1 przypisane do IRQ (nie do FIQ)
 132:main.c        ****     VICVectAddr5 = (tU32)IRQ_Test;  // adres procedury przerwania
 391              		.loc 1 132 0
 392 01b2 3A4A     		ldr	r2, .L18+4
 393 01b4 3A4B     		ldr	r3, .L18+8
 394 01b6 1360     		str	r3, [r2]
 133:main.c        ****     VICVectCntl5 = VIC_ENABLE_SLOT | TIMER_1_IRQ_NO;
 395              		.loc 1 133 0
 396 01b8 3A4A     		ldr	r2, .L18+12
 397 01ba 2523     		movs	r3, #37
 398 01bc 1360     		str	r3, [r2]
 134:main.c        ****     VICIntEnable =
 399              		.loc 1 134 0
 400 01be 3A4A     		ldr	r2, .L18+16
 401 01c0 2023     		movs	r3, #32
 402 01c2 1360     		str	r3, [r2]
 135:main.c        ****             TIMER_1_IRQ;  // Przypisanie i odblokowanie slotu w VIC od Timera #1
 136:main.c        **** 
 137:main.c        ****     T1TCR = TIMER_RESET;  // Zatrzymaj i zresetuj
 403              		.loc 1 137 0
 404 01c4 394A     		ldr	r2, .L18+20
 405 01c6 0223     		movs	r3, #2
 406 01c8 1360     		str	r3, [r2]
 138:main.c        ****     T1PR = 0;             // Preskaler nieuzywany
 407              		.loc 1 138 0
 408 01ca 394A     		ldr	r2, .L18+24
 409 01cc 0023     		movs	r3, #0
 410 01ce 1360     		str	r3, [r2]
 139:main.c        ****     T1MR0 = ((tU64)period) * ((tU64)PERIPHERAL_CLOCK) / 1000;
 411              		.loc 1 139 0
 412 01d0 FB6A     		ldr	r3, [r7, #44]
 413 01d2 3B61     		str	r3, [r7, #16]
 414 01d4 0023     		movs	r3, #0
 415 01d6 7B61     		str	r3, [r7, #20]
 416 01d8 3B69     		ldr	r3, [r7, #16]
 417 01da 7C69     		ldr	r4, [r7, #20]
 418 01dc 1A0F     		lsrs	r2, r3, #28
 419 01de 2101     		lsls	r1, r4, #4
 420 01e0 7962     		str	r1, [r7, #36]
 421 01e2 796A     		ldr	r1, [r7, #36]
 422 01e4 1143     		orrs	r1, r2
 423 01e6 7962     		str	r1, [r7, #36]
 424 01e8 1B01     		lsls	r3, r3, #4
 425 01ea 3B62     		str	r3, [r7, #32]
 426 01ec 3B6A     		ldr	r3, [r7, #32]
 427 01ee 7C6A     		ldr	r4, [r7, #36]
 428 01f0 3869     		ldr	r0, [r7, #16]
 429 01f2 7969     		ldr	r1, [r7, #20]
 430 01f4 1B1A     		subs	r3, r3, r0
 431 01f6 8C41     		sbcs	r4, r4, r1
ARM GAS  C:\Users\embedded\AppData\Local\Temp\ccHk1fkP.s 			page 11


 432 01f8 1A0F     		lsrs	r2, r3, #28
 433 01fa 2601     		lsls	r6, r4, #4
 434 01fc 1643     		orrs	r6, r2
 435 01fe 1D01     		lsls	r5, r3, #4
 436 0200 ED1A     		subs	r5, r5, r3
 437 0202 A641     		sbcs	r6, r6, r4
 438 0204 AB0B     		lsrs	r3, r5, #14
 439 0206 B204     		lsls	r2, r6, #18
 440 0208 FA61     		str	r2, [r7, #28]
 441 020a FA69     		ldr	r2, [r7, #28]
 442 020c 1A43     		orrs	r2, r3
 443 020e FA61     		str	r2, [r7, #28]
 444 0210 AB04     		lsls	r3, r5, #18
 445 0212 BB61     		str	r3, [r7, #24]
 446 0214 BD69     		ldr	r5, [r7, #24]
 447 0216 FE69     		ldr	r6, [r7, #28]
 448 0218 2800     		movs	r0, r5
 449 021a 3100     		movs	r1, r6
 450 021c FA22     		movs	r2, #250
 451 021e 9200     		lsls	r2, r2, #2
 452 0220 0023     		movs	r3, #0
 453 0222 FFF7FEFF 		bl	__aeabi_uldivmod
 454              	.LVL0:
 455 0226 0300     		movs	r3, r0
 456 0228 0C00     		movs	r4, r1
 457 022a 1900     		movs	r1, r3
 458 022c 2200     		movs	r2, r4
 459 022e 214B     		ldr	r3, .L18+28
 460 0230 0A00     		movs	r2, r1
 461 0232 1A60     		str	r2, [r3]
 140:main.c        ****     T1MR1 = (tU64)T1MR0 * duty_cycle / 100;  // Wypelnienie
 462              		.loc 1 140 0
 463 0234 1F4B     		ldr	r3, .L18+28
 464 0236 1B68     		ldr	r3, [r3]
 465 0238 BB60     		str	r3, [r7, #8]
 466 023a 0023     		movs	r3, #0
 467 023c FB60     		str	r3, [r7, #12]
 468 023e 2B23     		movs	r3, #43
 469 0240 FB18     		adds	r3, r7, r3
 470 0242 1B78     		ldrb	r3, [r3]
 471 0244 1B06     		lsls	r3, r3, #24
 472 0246 1B0E     		lsrs	r3, r3, #24
 473 0248 3B60     		str	r3, [r7]
 474 024a 0023     		movs	r3, #0
 475 024c 7B60     		str	r3, [r7, #4]
 476 024e 3A68     		ldr	r2, [r7]
 477 0250 7B68     		ldr	r3, [r7, #4]
 478 0252 B868     		ldr	r0, [r7, #8]
 479 0254 F968     		ldr	r1, [r7, #12]
 480 0256 FFF7FEFF 		bl	__aeabi_lmul
 481              	.LVL1:
 482 025a 0300     		movs	r3, r0
 483 025c 0C00     		movs	r4, r1
 484 025e 1800     		movs	r0, r3
 485 0260 2100     		movs	r1, r4
 486 0262 6422     		movs	r2, #100
 487 0264 0023     		movs	r3, #0
ARM GAS  C:\Users\embedded\AppData\Local\Temp\ccHk1fkP.s 			page 12


 488 0266 FFF7FEFF 		bl	__aeabi_uldivmod
 489              	.LVL2:
 490 026a 0300     		movs	r3, r0
 491 026c 0C00     		movs	r4, r1
 492 026e 1900     		movs	r1, r3
 493 0270 2200     		movs	r2, r4
 494 0272 114B     		ldr	r3, .L18+32
 495 0274 0A00     		movs	r2, r1
 496 0276 1A60     		str	r2, [r3]
 141:main.c        ****     T1IR = TIMER_ALL_INT;  // Resetowanie flag przerwan
 497              		.loc 1 141 0
 498 0278 104B     		ldr	r3, .L18+36
 499 027a FF22     		movs	r2, #255
 500 027c 1A60     		str	r2, [r3]
 142:main.c        ****     T1MCR = MR0_I | MR1_I |
 501              		.loc 1 142 0
 502 027e 104B     		ldr	r3, .L18+40
 503 0280 0B22     		movs	r2, #11
 504 0282 1A60     		str	r2, [r3]
 143:main.c        ****             MR0_R;      // Generuj okresowe przerwania dla MR0 i dodatkowo dla MR1
 144:main.c        ****     T1TCR = TIMER_RUN;  // Uruchom timer
 505              		.loc 1 144 0
 506 0284 094B     		ldr	r3, .L18+20
 507 0286 0122     		movs	r2, #1
 508 0288 1A60     		str	r2, [r3]
 145:main.c        **** }
 509              		.loc 1 145 0
 510 028a C046     		nop
 511 028c BD46     		mov	sp, r7
 512 028e 0DB0     		add	sp, sp, #52
 513              		@ sp needed
 514 0290 F0BC     		pop	{r4, r5, r6, r7}
 515 0292 01BC     		pop	{r0}
 516 0294 0047     		bx	r0
 517              	.L19:
 518 0296 C046     		.align	2
 519              	.L18:
 520 0298 0CF0FFFF 		.word	-4084
 521 029c 14F1FFFF 		.word	-3820
 522 02a0 00000000 		.word	IRQ_Test
 523 02a4 14F2FFFF 		.word	-3564
 524 02a8 10F0FFFF 		.word	-4080
 525 02ac 048000E0 		.word	-536838140
 526 02b0 0C8000E0 		.word	-536838132
 527 02b4 188000E0 		.word	-536838120
 528 02b8 1C8000E0 		.word	-536838116
 529 02bc 008000E0 		.word	-536838144
 530 02c0 148000E0 		.word	-536838124
 531              		.cfi_endproc
 532              	.LFE7:
 533              		.size	init_irq, .-init_irq
 534              		.global	__aeabi_idiv
 535              		.align	1
 536              		.global	playSound
 537              		.syntax unified
 538              		.code	16
 539              		.thumb_func
ARM GAS  C:\Users\embedded\AppData\Local\Temp\ccHk1fkP.s 			page 13


 540              		.fpu softvfp
 541              		.type	playSound, %function
 542              	playSound:
 543              	.LFB8:
 146:main.c        **** 
 147:main.c        **** /**
 148:main.c        ****  * @brief: Generowanie dzwieku danej dlugosci o zadanej czestotliwosci
 149:main.c        ****  * @param freq:
 150:main.c        ****  *      czestotliwosc dzwieku
 151:main.c        ****  * @param time:
 152:main.c        ****  *      czas trwania dzwieku
 153:main.c        ****  * @returns: Nic
 154:main.c        ****  * @attention:
 155:main.c        ****  *    brak
 156:main.c        ****  */
 157:main.c        **** void playSound(int freq, int time) {
 544              		.loc 1 157 0
 545              		.cfi_startproc
 546              		@ Function supports interworking.
 547              		@ args = 0, pretend = 0, frame = 16
 548              		@ frame_needed = 1, uses_anonymous_args = 0
 549 02c4 80B5     		push	{r7, lr}
 550              	.LCFI15:
 551              		.cfi_def_cfa_offset 8
 552              		.cfi_offset 7, -8
 553              		.cfi_offset 14, -4
 554 02c6 84B0     		sub	sp, sp, #16
 555              	.LCFI16:
 556              		.cfi_def_cfa_offset 24
 557 02c8 00AF     		add	r7, sp, #0
 558              	.LCFI17:
 559              		.cfi_def_cfa_register 7
 560 02ca 7860     		str	r0, [r7, #4]
 561 02cc 3960     		str	r1, [r7]
 158:main.c        ****     tU16 s = 0;
 562              		.loc 1 158 0
 563 02ce 0E23     		movs	r3, #14
 564 02d0 FB18     		adds	r3, r7, r3
 565 02d2 0022     		movs	r2, #0
 566 02d4 1A80     		strh	r2, [r3]
 567              	.LBB2:
 159:main.c        ****     for (int i = 0; i < time; i++) {
 568              		.loc 1 159 0
 569 02d6 0023     		movs	r3, #0
 570 02d8 BB60     		str	r3, [r7, #8]
 571 02da 76E0     		b	.L21
 572              	.L36:
 160:main.c        ****         DACR = (s << 6) | (1 << 16);
 573              		.loc 1 160 0
 574 02dc 0E23     		movs	r3, #14
 575 02de FB18     		adds	r3, r7, r3
 576 02e0 1B88     		ldrh	r3, [r3]
 577 02e2 9B01     		lsls	r3, r3, #6
 578 02e4 8022     		movs	r2, #128
 579 02e6 5202     		lsls	r2, r2, #9
 580 02e8 1A43     		orrs	r2, r3
 581 02ea 3D4B     		ldr	r3, .L37
ARM GAS  C:\Users\embedded\AppData\Local\Temp\ccHk1fkP.s 			page 14


 582 02ec 1A60     		str	r2, [r3]
 161:main.c        ****         if ((i % 8) == 0) {
 583              		.loc 1 161 0
 584 02ee BB68     		ldr	r3, [r7, #8]
 585 02f0 0722     		movs	r2, #7
 586 02f2 1340     		ands	r3, r2
 587 02f4 04D1     		bne	.L22
 162:main.c        ****             s = 0;
 588              		.loc 1 162 0
 589 02f6 0E23     		movs	r3, #14
 590 02f8 FB18     		adds	r3, r7, r3
 591 02fa 0022     		movs	r2, #0
 592 02fc 1A80     		strh	r2, [r3]
 593 02fe 55E0     		b	.L23
 594              	.L22:
 163:main.c        ****         } else if (((i % 8) == 1) || ((i % 8) == 7)) {
 595              		.loc 1 163 0
 596 0300 BB68     		ldr	r3, [r7, #8]
 597 0302 384A     		ldr	r2, .L37+4
 598 0304 1340     		ands	r3, r2
 599 0306 04D5     		bpl	.L24
 600 0308 013B     		subs	r3, r3, #1
 601 030a 0822     		movs	r2, #8
 602 030c 5242     		rsbs	r2, r2, #0
 603 030e 1343     		orrs	r3, r2
 604 0310 0133     		adds	r3, r3, #1
 605              	.L24:
 606 0312 012B     		cmp	r3, #1
 607 0314 0AD0     		beq	.L25
 608              		.loc 1 163 0 is_stmt 0 discriminator 1
 609 0316 BB68     		ldr	r3, [r7, #8]
 610 0318 324A     		ldr	r2, .L37+4
 611 031a 1340     		ands	r3, r2
 612 031c 04D5     		bpl	.L26
 613 031e 013B     		subs	r3, r3, #1
 614 0320 0822     		movs	r2, #8
 615 0322 5242     		rsbs	r2, r2, #0
 616 0324 1343     		orrs	r3, r2
 617 0326 0133     		adds	r3, r3, #1
 618              	.L26:
 619 0328 072B     		cmp	r3, #7
 620 032a 04D1     		bne	.L27
 621              	.L25:
 164:main.c        ****             s = 150;
 622              		.loc 1 164 0 is_stmt 1
 623 032c 0E23     		movs	r3, #14
 624 032e FB18     		adds	r3, r7, r3
 625 0330 9622     		movs	r2, #150
 626 0332 1A80     		strh	r2, [r3]
 627 0334 3AE0     		b	.L23
 628              	.L27:
 165:main.c        ****         } else if (((i % 8) == 2) || ((i % 8) == 6)) {
 629              		.loc 1 165 0
 630 0336 BB68     		ldr	r3, [r7, #8]
 631 0338 2A4A     		ldr	r2, .L37+4
 632 033a 1340     		ands	r3, r2
 633 033c 04D5     		bpl	.L28
ARM GAS  C:\Users\embedded\AppData\Local\Temp\ccHk1fkP.s 			page 15


 634 033e 013B     		subs	r3, r3, #1
 635 0340 0822     		movs	r2, #8
 636 0342 5242     		rsbs	r2, r2, #0
 637 0344 1343     		orrs	r3, r2
 638 0346 0133     		adds	r3, r3, #1
 639              	.L28:
 640 0348 022B     		cmp	r3, #2
 641 034a 0AD0     		beq	.L29
 642              		.loc 1 165 0 is_stmt 0 discriminator 1
 643 034c BB68     		ldr	r3, [r7, #8]
 644 034e 254A     		ldr	r2, .L37+4
 645 0350 1340     		ands	r3, r2
 646 0352 04D5     		bpl	.L30
 647 0354 013B     		subs	r3, r3, #1
 648 0356 0822     		movs	r2, #8
 649 0358 5242     		rsbs	r2, r2, #0
 650 035a 1343     		orrs	r3, r2
 651 035c 0133     		adds	r3, r3, #1
 652              	.L30:
 653 035e 062B     		cmp	r3, #6
 654 0360 05D1     		bne	.L31
 655              	.L29:
 166:main.c        ****             s = 512;
 656              		.loc 1 166 0 is_stmt 1
 657 0362 0E23     		movs	r3, #14
 658 0364 FB18     		adds	r3, r7, r3
 659 0366 8022     		movs	r2, #128
 660 0368 9200     		lsls	r2, r2, #2
 661 036a 1A80     		strh	r2, [r3]
 662 036c 1EE0     		b	.L23
 663              	.L31:
 167:main.c        ****         } else if (((i % 8) == 3) || ((i % 8) == 5)) {
 664              		.loc 1 167 0
 665 036e BB68     		ldr	r3, [r7, #8]
 666 0370 1C4A     		ldr	r2, .L37+4
 667 0372 1340     		ands	r3, r2
 668 0374 04D5     		bpl	.L32
 669 0376 013B     		subs	r3, r3, #1
 670 0378 0822     		movs	r2, #8
 671 037a 5242     		rsbs	r2, r2, #0
 672 037c 1343     		orrs	r3, r2
 673 037e 0133     		adds	r3, r3, #1
 674              	.L32:
 675 0380 032B     		cmp	r3, #3
 676 0382 0AD0     		beq	.L33
 677              		.loc 1 167 0 is_stmt 0 discriminator 1
 678 0384 BB68     		ldr	r3, [r7, #8]
 679 0386 174A     		ldr	r2, .L37+4
 680 0388 1340     		ands	r3, r2
 681 038a 04D5     		bpl	.L34
 682 038c 013B     		subs	r3, r3, #1
 683 038e 0822     		movs	r2, #8
 684 0390 5242     		rsbs	r2, r2, #0
 685 0392 1343     		orrs	r3, r2
 686 0394 0133     		adds	r3, r3, #1
 687              	.L34:
 688 0396 052B     		cmp	r3, #5
ARM GAS  C:\Users\embedded\AppData\Local\Temp\ccHk1fkP.s 			page 16


 689 0398 04D1     		bne	.L35
 690              	.L33:
 168:main.c        ****             s = 874;
 691              		.loc 1 168 0 is_stmt 1
 692 039a 0E23     		movs	r3, #14
 693 039c FB18     		adds	r3, r7, r3
 694 039e 124A     		ldr	r2, .L37+8
 695 03a0 1A80     		strh	r2, [r3]
 696 03a2 03E0     		b	.L23
 697              	.L35:
 169:main.c        ****         } else {
 170:main.c        ****             s = 1023;
 698              		.loc 1 170 0
 699 03a4 0E23     		movs	r3, #14
 700 03a6 FB18     		adds	r3, r7, r3
 701 03a8 104A     		ldr	r2, .L37+12
 702 03aa 1A80     		strh	r2, [r3]
 703              	.L23:
 171:main.c        ****         }
 172:main.c        ****         delayUs(1000000 / (8 * freq));
 704              		.loc 1 172 0 discriminator 2
 705 03ac 7B68     		ldr	r3, [r7, #4]
 706 03ae DB00     		lsls	r3, r3, #3
 707 03b0 1900     		movs	r1, r3
 708 03b2 0F48     		ldr	r0, .L37+16
 709 03b4 FFF7FEFF 		bl	__aeabi_idiv
 710              	.LVL3:
 711 03b8 0300     		movs	r3, r0
 712 03ba 1B04     		lsls	r3, r3, #16
 713 03bc 1B0C     		lsrs	r3, r3, #16
 714 03be 1800     		movs	r0, r3
 715 03c0 FFF7FEFF 		bl	delayUs
 159:main.c        ****         DACR = (s << 6) | (1 << 16);
 716              		.loc 1 159 0 discriminator 2
 717 03c4 BB68     		ldr	r3, [r7, #8]
 718 03c6 0133     		adds	r3, r3, #1
 719 03c8 BB60     		str	r3, [r7, #8]
 720              	.L21:
 159:main.c        ****         DACR = (s << 6) | (1 << 16);
 721              		.loc 1 159 0 is_stmt 0 discriminator 1
 722 03ca BA68     		ldr	r2, [r7, #8]
 723 03cc 3B68     		ldr	r3, [r7]
 724 03ce 9A42     		cmp	r2, r3
 725 03d0 00DA     		bge	.LCB616
 726 03d2 83E7     		b	.L36	@long jump
 727              	.LCB616:
 728              	.LBE2:
 173:main.c        ****     }
 174:main.c        **** }
 729              		.loc 1 174 0 is_stmt 1
 730 03d4 C046     		nop
 731 03d6 BD46     		mov	sp, r7
 732 03d8 04B0     		add	sp, sp, #16
 733              		@ sp needed
 734 03da 80BC     		pop	{r7}
 735 03dc 01BC     		pop	{r0}
 736 03de 0047     		bx	r0
ARM GAS  C:\Users\embedded\AppData\Local\Temp\ccHk1fkP.s 			page 17


 737              	.L38:
 738              		.align	2
 739              	.L37:
 740 03e0 00C006E0 		.word	-536428544
 741 03e4 07000080 		.word	-2147483641
 742 03e8 6A030000 		.word	874
 743 03ec FF030000 		.word	1023
 744 03f0 40420F00 		.word	1000000
 745              		.cfi_endproc
 746              	.LFE8:
 747              		.size	playSound, .-playSound
 748              		.align	1
 749              		.global	changeLEDs
 750              		.syntax unified
 751              		.code	16
 752              		.thumb_func
 753              		.fpu softvfp
 754              		.type	changeLEDs, %function
 755              	changeLEDs:
 756              	.LFB9:
 175:main.c        **** 
 176:main.c        **** /**
 177:main.c        ****  * @brief: Zmiana aktualnego stanu diod LED
 178:main.c        ****  * @param row:
 179:main.c        ****  *      Rzad, do ktorego (wlacznie) wszystkie diody ponizej zmienia swoj
 180:main.c        ****  * aktualny stan.
 181:main.c        ****  * @Returns: Nic
 182:main.c        ****  * @attention:
 183:main.c        ****  *    brak
 184:main.c        ****  */
 185:main.c        **** void changeLEDs(int row) {
 757              		.loc 1 185 0
 758              		.cfi_startproc
 759              		@ Function supports interworking.
 760              		@ args = 0, pretend = 0, frame = 16
 761              		@ frame_needed = 1, uses_anonymous_args = 0
 762 03f4 80B5     		push	{r7, lr}
 763              	.LCFI18:
 764              		.cfi_def_cfa_offset 8
 765              		.cfi_offset 7, -8
 766              		.cfi_offset 14, -4
 767 03f6 84B0     		sub	sp, sp, #16
 768              	.LCFI19:
 769              		.cfi_def_cfa_offset 24
 770 03f8 00AF     		add	r7, sp, #0
 771              	.LCFI20:
 772              		.cfi_def_cfa_register 7
 773 03fa 7860     		str	r0, [r7, #4]
 774              	.LBB3:
 186:main.c        ****     for (int i = 0; i < row; i++) {
 775              		.loc 1 186 0
 776 03fc 0023     		movs	r3, #0
 777 03fe FB60     		str	r3, [r7, #12]
 778 0400 17E0     		b	.L40
 779              	.L41:
 187:main.c        ****         setPca9532Pin(7 - i, 1);
 780              		.loc 1 187 0 discriminator 3
ARM GAS  C:\Users\embedded\AppData\Local\Temp\ccHk1fkP.s 			page 18


 781 0402 FB68     		ldr	r3, [r7, #12]
 782 0404 1B06     		lsls	r3, r3, #24
 783 0406 1B0E     		lsrs	r3, r3, #24
 784 0408 0722     		movs	r2, #7
 785 040a D31A     		subs	r3, r2, r3
 786 040c 1B06     		lsls	r3, r3, #24
 787 040e 1B0E     		lsrs	r3, r3, #24
 788 0410 0121     		movs	r1, #1
 789 0412 1800     		movs	r0, r3
 790 0414 FFF7FEFF 		bl	setPca9532Pin
 188:main.c        ****         setPca9532Pin(8 + i, 1);
 791              		.loc 1 188 0 discriminator 3
 792 0418 FB68     		ldr	r3, [r7, #12]
 793 041a 1B06     		lsls	r3, r3, #24
 794 041c 1B0E     		lsrs	r3, r3, #24
 795 041e 0833     		adds	r3, r3, #8
 796 0420 1B06     		lsls	r3, r3, #24
 797 0422 1B0E     		lsrs	r3, r3, #24
 798 0424 0121     		movs	r1, #1
 799 0426 1800     		movs	r0, r3
 800 0428 FFF7FEFF 		bl	setPca9532Pin
 186:main.c        ****     for (int i = 0; i < row; i++) {
 801              		.loc 1 186 0 discriminator 3
 802 042c FB68     		ldr	r3, [r7, #12]
 803 042e 0133     		adds	r3, r3, #1
 804 0430 FB60     		str	r3, [r7, #12]
 805              	.L40:
 186:main.c        ****     for (int i = 0; i < row; i++) {
 806              		.loc 1 186 0 is_stmt 0 discriminator 1
 807 0432 FA68     		ldr	r2, [r7, #12]
 808 0434 7B68     		ldr	r3, [r7, #4]
 809 0436 9A42     		cmp	r2, r3
 810 0438 E3DB     		blt	.L41
 811              	.LBE3:
 189:main.c        ****     }
 190:main.c        **** }
 812              		.loc 1 190 0 is_stmt 1
 813 043a C046     		nop
 814 043c BD46     		mov	sp, r7
 815 043e 04B0     		add	sp, sp, #16
 816              		@ sp needed
 817 0440 80BC     		pop	{r7}
 818 0442 01BC     		pop	{r0}
 819 0444 0047     		bx	r0
 820              		.cfi_endproc
 821              	.LFE9:
 822              		.size	changeLEDs, .-changeLEDs
 823              		.section	.rodata
 824              		.align	2
 825              	.LC6:
 826 0000 0A2A2A2A 		.ascii	"\012***************\000"
 826      2A2A2A2A 
 826      2A2A2A2A 
 826      2A2A2A2A 
 826      00
 827 0011 000000   		.align	2
 828              	.LC8:
ARM GAS  C:\Users\embedded\AppData\Local\Temp\ccHk1fkP.s 			page 19


 829 0014 0A2A2053 		.ascii	"\012* Systemy\012* Wbudowane\000"
 829      79737465 
 829      6D790A2A 
 829      20576275 
 829      646F7761 
 830 002b 00       		.align	2
 831              	.LC10:
 832 002c 0A2A2057 		.ascii	"\012* Wydzial FTIMS\000"
 832      79647A69 
 832      616C2046 
 832      54494D53 
 832      00
 833 003d 000000   		.align	2
 834              	.LC12:
 835 0040 0A5A4147 		.ascii	"\012ZAGRAJ <-> TOP1\000"
 835      52414A20 
 835      3C2D3E20 
 835      544F5031 
 835      00
 836 0051 000000   		.align	2
 837              	.LC14:
 838 0054 5A414752 		.ascii	"ZAGRAJ\000"
 838      414A00
 839 005b 00       		.align	2
 840              	.LC16:
 841 005c 57594E49 		.ascii	"WYNIKI\000"
 841      4B4900
 842 0063 00       		.align	2
 843              	.LC18:
 844 0064 544F5020 		.ascii	"TOP 1:\000"
 844      313A00
 845 006b 00       		.align	2
 846              	.LC20:
 847 006c 57796772 		.ascii	"Wygrane: \000"
 847      616E653A 
 847      2000
 848 0076 0000     		.align	2
 849              	.LC22:
 850 0078 4272616B 		.ascii	"Brak wynikow\000"
 850      2077796E 
 850      696B6F77 
 850      00
 851 0085 000000   		.align	2
 852              	.LC24:
 853 0088 5245464C 		.ascii	"REFLEKS\000"
 853      454B5300 
 854              		.align	2
 855              	.LC26:
 856 0090 0A0A2020 		.ascii	"\012\012  dzwiek:\000"
 856      647A7769 
 856      656B3A00 
 857              		.align	2
 858              	.LC28:
 859 009c 0A20206E 		.ascii	"\012  niski-lewo\000"
 859      69736B69 
 859      2D6C6577 
 859      6F00
ARM GAS  C:\Users\embedded\AppData\Local\Temp\ccHk1fkP.s 			page 20


 860 00aa 0000     		.align	2
 861              	.LC30:
 862 00ac 0A202077 		.ascii	"\012  wysoki-prawo\000"
 862      79736F6B 
 862      692D7072 
 862      61776F00 
 863              		.align	2
 864              	.LC32:
 865 00bc 52756E64 		.ascii	"Runda \000"
 865      612000
 866 00c3 00       		.align	2
 867              	.LC34:
 868 00c4 30303A25 		.ascii	"00:%02d:%02d\000"
 868      3032643A 
 868      25303264 
 868      00
 869 00d1 000000   		.align	2
 870              	.LC36:
 871 00d4 54776F6A 		.ascii	"Twoj czas:\000"
 871      20637A61 
 871      733A00
 872 00df 00       		.align	2
 873              	.LC38:
 874 00e0 70727A65 		.ascii	"przegrales!\000"
 874      6772616C 
 874      65732100 
 875              		.align	2
 876              	.LC40:
 877 00ec 77796772 		.ascii	"wygrales!\000"
 877      616C6573 
 877      2100
 878 00f6 0000     		.align	2
 879              	.LC42:
 880 00f8 0A6A6573 		.ascii	"\012jestes najlepszy!\000"
 880      74657320 
 880      6E616A6C 
 880      6570737A 
 880      792100
 881 010b 00       		.align	2
 882              	.LC44:
 883 010c 696C6F73 		.ascii	"ilosc \012wygranych \012rund: \000"
 883      63200A77 
 883      79677261 
 883      6E796368 
 883      200A7275 
 884 0125 000000   		.align	2
 885              	.LC46:
 886 0128 0A4E617A 		.ascii	"\012Nazwa gracza:\012\000"
 886      77612067 
 886      7261637A 
 886      613A0A00 
 887              		.align	2
 888              	.LC48:
 889 0138 57796272 		.ascii	"Wybrano nazwe:\012\000"
 889      616E6F20 
 889      6E617A77 
 889      653A0A00 
ARM GAS  C:\Users\embedded\AppData\Local\Temp\ccHk1fkP.s 			page 21


 890              		.align	2
 891              	.LC50:
 892 0148 4F4B00   		.ascii	"OK\000"
 893 014b 00       		.align	2
 894              	.LC52:
 895 014c 426C6164 		.ascii	"Blad\000"
 895      00
 896 0151 000000   		.align	2
 897              	.LC54:
 898 0154 504F5752 		.ascii	"POWROT DO MENU\000"
 898      4F542044 
 898      4F204D45 
 898      4E5500
 899 0163 00       		.align	2
 900              	.LC0:
 901 0164 DC000000 		.word	220
 902 0168 DC000000 		.word	220
 903 016c DC000000 		.word	220
 904 0170 AF000000 		.word	175
 905 0174 06010000 		.word	262
 906 0178 DC000000 		.word	220
 907 017c AF000000 		.word	175
 908 0180 06010000 		.word	262
 909 0184 DC000000 		.word	220
 910 0188 4A010000 		.word	330
 911 018c 4A010000 		.word	330
 912 0190 4A010000 		.word	330
 913 0194 5D010000 		.word	349
 914 0198 06010000 		.word	262
 915 019c D0000000 		.word	208
 916 01a0 AF000000 		.word	175
 917 01a4 06010000 		.word	262
 918 01a8 DC000000 		.word	220
 919              		.align	2
 920              	.LC1:
 921 01ac 00EF0600 		.word	454400
 922 01b0 00EF0600 		.word	454400
 923 01b4 00EF0600 		.word	454400
 924 01b8 80770300 		.word	227200
 925 01bc 80770300 		.word	227200
 926 01c0 00EF0600 		.word	454400
 927 01c4 80770300 		.word	227200
 928 01c8 80770300 		.word	227200
 929 01cc 00DE0D00 		.word	908800
 930 01d0 00EF0600 		.word	454400
 931 01d4 00EF0600 		.word	454400
 932 01d8 00EF0600 		.word	454400
 933 01dc 80770300 		.word	227200
 934 01e0 80770300 		.word	227200
 935 01e4 00EF0600 		.word	454400
 936 01e8 80770300 		.word	227200
 937 01ec 80770300 		.word	227200
 938 01f0 00DE0D00 		.word	908800
 939              		.text
 940              		.align	1
 941              		.global	main
 942              		.syntax unified
ARM GAS  C:\Users\embedded\AppData\Local\Temp\ccHk1fkP.s 			page 22


 943              		.code	16
 944              		.thumb_func
 945              		.fpu softvfp
 946              		.type	main, %function
 947              	main:
 948              	.LFB10:
 191:main.c        **** 
 192:main.c        **** int main(void) {
 949              		.loc 1 192 0
 950              		.cfi_startproc
 951              		@ Function supports interworking.
 952              		@ args = 0, pretend = 0, frame = 312
 953              		@ frame_needed = 1, uses_anonymous_args = 0
 954 0446 F0B5     		push	{r4, r5, r6, r7, lr}
 955              	.LCFI21:
 956              		.cfi_def_cfa_offset 20
 957              		.cfi_offset 4, -20
 958              		.cfi_offset 5, -16
 959              		.cfi_offset 6, -12
 960              		.cfi_offset 7, -8
 961              		.cfi_offset 14, -4
 962 0448 D1B0     		sub	sp, sp, #324
 963              	.LCFI22:
 964              		.cfi_def_cfa_offset 344
 965 044a 02AF     		add	r7, sp, #8
 966              	.LCFI23:
 967              		.cfi_def_cfa 7, 336
 193:main.c        ****     timeTwo = 0;
 968              		.loc 1 193 0
 969 044c E04B     		ldr	r3, .L103
 970 044e 0022     		movs	r2, #0
 971 0450 1A60     		str	r2, [r3]
 194:main.c        **** 
 195:main.c        ****     // INICJALIZACJA MODUloW
 196:main.c        ****     //printf_init();
 197:main.c        ****     i2cInit();
 972              		.loc 1 197 0
 973 0452 FFF7FEFF 		bl	i2cInit
 198:main.c        ****     pca9532Init();
 974              		.loc 1 198 0
 975 0456 FFF7FEFF 		bl	pca9532Init
 199:main.c        ****     init_irq(10, 20);
 976              		.loc 1 199 0
 977 045a 1421     		movs	r1, #20
 978 045c 0A20     		movs	r0, #10
 979 045e FFF799FE 		bl	init_irq
 200:main.c        ****     lcdInit();
 980              		.loc 1 200 0
 981 0462 FFF7FEFF 		bl	lcdInit
 201:main.c        **** 
 202:main.c        ****     // KOLOR TlA
 203:main.c        ****     lcdColor(250, 0);
 982              		.loc 1 203 0
 983 0466 0021     		movs	r1, #0
 984 0468 FA20     		movs	r0, #250
 985 046a FFF7FEFF 		bl	lcdColor
 204:main.c        **** 
ARM GAS  C:\Users\embedded\AppData\Local\Temp\ccHk1fkP.s 			page 23


 205:main.c        ****     // ZGASZENIE LEDoW
 206:main.c        ****     changeLEDs(8);
 986              		.loc 1 206 0
 987 046e 0820     		movs	r0, #8
 988 0470 FFF7FEFF 		bl	changeLEDs
 207:main.c        **** 
 208:main.c        ****     // PINY DO AUDIO
 209:main.c        ****     PINSEL1 &= ~0x000C0000;
 989              		.loc 1 209 0
 990 0474 D74B     		ldr	r3, .L103+4
 991 0476 1A68     		ldr	r2, [r3]
 992 0478 D64B     		ldr	r3, .L103+4
 993 047a D749     		ldr	r1, .L103+8
 994 047c 0A40     		ands	r2, r1
 995 047e 1A60     		str	r2, [r3]
 210:main.c        ****     PINSEL1 |= 0x00080000;
 996              		.loc 1 210 0
 997 0480 D44B     		ldr	r3, .L103+4
 998 0482 1A68     		ldr	r2, [r3]
 999 0484 D34B     		ldr	r3, .L103+4
 1000 0486 8021     		movs	r1, #128
 1001 0488 0903     		lsls	r1, r1, #12
 1002 048a 0A43     		orrs	r2, r1
 1003 048c 1A60     		str	r2, [r3]
 211:main.c        **** 
 212:main.c        ****     // MUZYKA NA PRZEGRANa
 213:main.c        ****     int freqs[18] = {
 1004              		.loc 1 213 0
 1005 048e 8823     		movs	r3, #136
 1006 0490 FA18     		adds	r2, r7, r3
 1007 0492 D24B     		ldr	r3, .L103+12
 1008 0494 1000     		movs	r0, r2
 1009 0496 1900     		movs	r1, r3
 1010 0498 4823     		movs	r3, #72
 1011 049a 1A00     		movs	r2, r3
 1012 049c FFF7FEFF 		bl	memcpy
 214:main.c        ****             220, 220, 220, 175, 262, 220, 175, 262, 220,
 215:main.c        ****             330, 330, 330, 349, 262, 208, 175, 262, 220};
 216:main.c        ****     int times[18] = {454400, 454400, 454400, 227200, 227200, 454400,
 1013              		.loc 1 216 0
 1014 04a0 4023     		movs	r3, #64
 1015 04a2 FA18     		adds	r2, r7, r3
 1016 04a4 CE4B     		ldr	r3, .L103+16
 1017 04a6 1000     		movs	r0, r2
 1018 04a8 1900     		movs	r1, r3
 1019 04aa 4823     		movs	r3, #72
 1020 04ac 1A00     		movs	r2, r3
 1021 04ae FFF7FEFF 		bl	memcpy
 217:main.c        ****                      227200, 227200, 908800, 454400, 454400, 454400,
 218:main.c        ****                      227200, 227200, 454400, 227200, 227200, 908800};
 219:main.c        **** 
 220:main.c        ****     // START PROGRAM
 221:main.c        ****     int choice = 0;  // 0 - GRA; 1 - NAJLEPSZY WYNIK
 1022              		.loc 1 221 0
 1023 04b2 0023     		movs	r3, #0
 1024 04b4 9A22     		movs	r2, #154
 1025 04b6 5200     		lsls	r2, r2, #1
ARM GAS  C:\Users\embedded\AppData\Local\Temp\ccHk1fkP.s 			page 24


 1026 04b8 BA18     		adds	r2, r7, r2
 1027 04ba 1360     		str	r3, [r2]
 1028              	.L102:
 222:main.c        ****     while (1) {
 223:main.c        ****         lcdClrscr();
 1029              		.loc 1 223 0
 1030 04bc FFF7FEFF 		bl	lcdClrscr
 224:main.c        ****         while ((IOPIN & 0x00000100) != 0) {
 1031              		.loc 1 224 0
 1032 04c0 39E0     		b	.L43
 1033              	.L45:
 225:main.c        ****             lcdGotoxy(10, 0);
 1034              		.loc 1 225 0
 1035 04c2 0021     		movs	r1, #0
 1036 04c4 0A20     		movs	r0, #10
 1037 04c6 FFF7FEFF 		bl	lcdGotoxy
 226:main.c        ****             lcdPuts("\n***************");
 1038              		.loc 1 226 0
 1039 04ca C64B     		ldr	r3, .L103+20
 1040 04cc 1800     		movs	r0, r3
 1041 04ce FFF7FEFF 		bl	lcdPuts
 227:main.c        ****             lcdPuts("\n* Systemy\n* Wbudowane");
 1042              		.loc 1 227 0
 1043 04d2 C54B     		ldr	r3, .L103+24
 1044 04d4 1800     		movs	r0, r3
 1045 04d6 FFF7FEFF 		bl	lcdPuts
 228:main.c        ****             lcdPuts("\n* Wydzial FTIMS");
 1046              		.loc 1 228 0
 1047 04da C44B     		ldr	r3, .L103+28
 1048 04dc 1800     		movs	r0, r3
 1049 04de FFF7FEFF 		bl	lcdPuts
 229:main.c        ****             lcdPuts("\n***************");
 1050              		.loc 1 229 0
 1051 04e2 C04B     		ldr	r3, .L103+20
 1052 04e4 1800     		movs	r0, r3
 1053 04e6 FFF7FEFF 		bl	lcdPuts
 230:main.c        ****             lcdPuts("\nZAGRAJ <-> TOP1");
 1054              		.loc 1 230 0
 1055 04ea C14B     		ldr	r3, .L103+32
 1056 04ec 1800     		movs	r0, r3
 1057 04ee FFF7FEFF 		bl	lcdPuts
 231:main.c        ****             lcdGotoxy(40, 110);
 1058              		.loc 1 231 0
 1059 04f2 6E21     		movs	r1, #110
 1060 04f4 2820     		movs	r0, #40
 1061 04f6 FFF7FEFF 		bl	lcdGotoxy
 232:main.c        ****             if ((IOPIN & 0x00000200) == 0) {
 1062              		.loc 1 232 0
 1063 04fa BE4B     		ldr	r3, .L103+36
 1064 04fc 1A68     		ldr	r2, [r3]
 1065 04fe 8023     		movs	r3, #128
 1066 0500 9B00     		lsls	r3, r3, #2
 1067 0502 1340     		ands	r3, r2
 1068 0504 08D1     		bne	.L44
 233:main.c        ****                 lcdPuts("ZAGRAJ");
 1069              		.loc 1 233 0
 1070 0506 BC4B     		ldr	r3, .L103+40
ARM GAS  C:\Users\embedded\AppData\Local\Temp\ccHk1fkP.s 			page 25


 1071 0508 1800     		movs	r0, r3
 1072 050a FFF7FEFF 		bl	lcdPuts
 234:main.c        ****                 choice = 2;
 1073              		.loc 1 234 0
 1074 050e 0223     		movs	r3, #2
 1075 0510 9A22     		movs	r2, #154
 1076 0512 5200     		lsls	r2, r2, #1
 1077 0514 BA18     		adds	r2, r7, r2
 1078 0516 1360     		str	r3, [r2]
 1079              	.L44:
 235:main.c        ****             }
 236:main.c        ****             if ((IOPIN & 0x00000800) == 0) {
 1080              		.loc 1 236 0
 1081 0518 B64B     		ldr	r3, .L103+36
 1082 051a 1A68     		ldr	r2, [r3]
 1083 051c 8023     		movs	r3, #128
 1084 051e 1B01     		lsls	r3, r3, #4
 1085 0520 1340     		ands	r3, r2
 1086 0522 08D1     		bne	.L43
 237:main.c        ****                 lcdPuts("WYNIKI");
 1087              		.loc 1 237 0
 1088 0524 B54B     		ldr	r3, .L103+44
 1089 0526 1800     		movs	r0, r3
 1090 0528 FFF7FEFF 		bl	lcdPuts
 238:main.c        ****                 choice = 1;
 1091              		.loc 1 238 0
 1092 052c 0123     		movs	r3, #1
 1093 052e 9A22     		movs	r2, #154
 1094 0530 5200     		lsls	r2, r2, #1
 1095 0532 BA18     		adds	r2, r7, r2
 1096 0534 1360     		str	r3, [r2]
 1097              	.L43:
 224:main.c        ****             lcdGotoxy(10, 0);
 1098              		.loc 1 224 0
 1099 0536 AF4B     		ldr	r3, .L103+36
 1100 0538 1A68     		ldr	r2, [r3]
 1101 053a 8023     		movs	r3, #128
 1102 053c 5B00     		lsls	r3, r3, #1
 1103 053e 1340     		ands	r3, r2
 1104 0540 BFD1     		bne	.L45
 239:main.c        ****             }
 240:main.c        ****         }
 241:main.c        ****         if (choice == 1) {
 1105              		.loc 1 241 0
 1106 0542 9A23     		movs	r3, #154
 1107 0544 5B00     		lsls	r3, r3, #1
 1108 0546 FB18     		adds	r3, r7, r3
 1109 0548 1B68     		ldr	r3, [r3]
 1110 054a 012B     		cmp	r3, #1
 1111 054c 00D0     		beq	.LCB840
 1112 054e D0E0     		b	.L46	@long jump
 1113              	.LCB840:
 242:main.c        ****             delayMs(1000);
 1114              		.loc 1 242 0
 1115 0550 FA23     		movs	r3, #250
 1116 0552 9B00     		lsls	r3, r3, #2
 1117 0554 1800     		movs	r0, r3
ARM GAS  C:\Users\embedded\AppData\Local\Temp\ccHk1fkP.s 			page 26


 1118 0556 FFF7FEFF 		bl	delayMs
 243:main.c        ****             lcdClrscr();
 1119              		.loc 1 243 0
 1120 055a FFF7FEFF 		bl	lcdClrscr
 244:main.c        ****             while ((IOPIN & 0x00000100) != 0) {
 1121              		.loc 1 244 0
 1122 055e BCE0     		b	.L47
 1123              	.L55:
 1124              	.LBB4:
 245:main.c        ****                 tU8 testBuf[12];
 246:main.c        ****                 eepromPageRead(0x0000, testBuf, 12);
 1125              		.loc 1 246 0
 1126 0560 3423     		movs	r3, #52
 1127 0562 FB18     		adds	r3, r7, r3
 1128 0564 0C22     		movs	r2, #12
 1129 0566 1900     		movs	r1, r3
 1130 0568 0020     		movs	r0, #0
 1131 056a FFF7FEFF 		bl	eepromPageRead
 247:main.c        ****                 char read[9];
 248:main.c        ****                 tU8 rounds;
 249:main.c        ****                 int checkSumCalculated = 0;  // liczona na pieszo
 1132              		.loc 1 249 0
 1133 056e 0023     		movs	r3, #0
 1134 0570 9822     		movs	r2, #152
 1135 0572 5200     		lsls	r2, r2, #1
 1136 0574 BA18     		adds	r2, r7, r2
 1137 0576 1360     		str	r3, [r2]
 1138              	.LBB5:
 250:main.c        ****                 for (int i = 0; i < 10; i++) {
 1139              		.loc 1 250 0
 1140 0578 0023     		movs	r3, #0
 1141 057a 9622     		movs	r2, #150
 1142 057c 5200     		lsls	r2, r2, #1
 1143 057e BA18     		adds	r2, r7, r2
 1144 0580 1360     		str	r3, [r2]
 1145 0582 17E0     		b	.L48
 1146              	.L49:
 251:main.c        ****                     checkSumCalculated += testBuf[i];
 1147              		.loc 1 251 0 discriminator 3
 1148 0584 9E4B     		ldr	r3, .L103+48
 1149 0586 9C22     		movs	r2, #156
 1150 0588 5200     		lsls	r2, r2, #1
 1151 058a BA18     		adds	r2, r7, r2
 1152 058c D218     		adds	r2, r2, r3
 1153 058e 9621     		movs	r1, #150
 1154 0590 4900     		lsls	r1, r1, #1
 1155 0592 7B18     		adds	r3, r7, r1
 1156 0594 1B68     		ldr	r3, [r3]
 1157 0596 D318     		adds	r3, r2, r3
 1158 0598 1B78     		ldrb	r3, [r3]
 1159 059a 1A00     		movs	r2, r3
 1160 059c 9820     		movs	r0, #152
 1161 059e 4000     		lsls	r0, r0, #1
 1162 05a0 3B18     		adds	r3, r7, r0
 1163 05a2 1B68     		ldr	r3, [r3]
 1164 05a4 9B18     		adds	r3, r3, r2
 1165 05a6 3A18     		adds	r2, r7, r0
ARM GAS  C:\Users\embedded\AppData\Local\Temp\ccHk1fkP.s 			page 27


 1166 05a8 1360     		str	r3, [r2]
 250:main.c        ****                 for (int i = 0; i < 10; i++) {
 1167              		.loc 1 250 0 discriminator 3
 1168 05aa 7B18     		adds	r3, r7, r1
 1169 05ac 1B68     		ldr	r3, [r3]
 1170 05ae 0133     		adds	r3, r3, #1
 1171 05b0 7A18     		adds	r2, r7, r1
 1172 05b2 1360     		str	r3, [r2]
 1173              	.L48:
 250:main.c        ****                 for (int i = 0; i < 10; i++) {
 1174              		.loc 1 250 0 is_stmt 0 discriminator 1
 1175 05b4 9623     		movs	r3, #150
 1176 05b6 5B00     		lsls	r3, r3, #1
 1177 05b8 FB18     		adds	r3, r7, r3
 1178 05ba 1B68     		ldr	r3, [r3]
 1179 05bc 092B     		cmp	r3, #9
 1180 05be E1DD     		ble	.L49
 1181              	.LBE5:
 252:main.c        ****                 }
 253:main.c        ****                 checkSumCalculated %= 256;
 1182              		.loc 1 253 0 is_stmt 1
 1183 05c0 9823     		movs	r3, #152
 1184 05c2 5B00     		lsls	r3, r3, #1
 1185 05c4 FB18     		adds	r3, r7, r3
 1186 05c6 1B68     		ldr	r3, [r3]
 1187 05c8 8E4A     		ldr	r2, .L103+52
 1188 05ca 1340     		ands	r3, r2
 1189 05cc 03D5     		bpl	.L50
 1190 05ce 013B     		subs	r3, r3, #1
 1191 05d0 8D4A     		ldr	r2, .L103+56
 1192 05d2 1343     		orrs	r3, r2
 1193 05d4 0133     		adds	r3, r3, #1
 1194              	.L50:
 1195 05d6 9821     		movs	r1, #152
 1196 05d8 4900     		lsls	r1, r1, #1
 1197 05da 7A18     		adds	r2, r7, r1
 1198 05dc 1360     		str	r3, [r2]
 254:main.c        ****                 checkSumCalculated ^= 1;
 1199              		.loc 1 254 0
 1200 05de 7B18     		adds	r3, r7, r1
 1201 05e0 1B68     		ldr	r3, [r3]
 1202 05e2 0122     		movs	r2, #1
 1203 05e4 5340     		eors	r3, r2
 1204 05e6 7A18     		adds	r2, r7, r1
 1205 05e8 1360     		str	r3, [r2]
 255:main.c        ****                 if (((testBuf[10] & testBuf[11]) == 0) &&
 1206              		.loc 1 255 0
 1207 05ea 854B     		ldr	r3, .L103+48
 1208 05ec 9C22     		movs	r2, #156
 1209 05ee 5200     		lsls	r2, r2, #1
 1210 05f0 9446     		mov	ip, r2
 1211 05f2 BC44     		add	ip, ip, r7
 1212 05f4 6344     		add	r3, r3, ip
 1213 05f6 9B7A     		ldrb	r3, [r3, #10]
 1214 05f8 814A     		ldr	r2, .L103+48
 1215 05fa 9C21     		movs	r1, #156
 1216 05fc 4900     		lsls	r1, r1, #1
ARM GAS  C:\Users\embedded\AppData\Local\Temp\ccHk1fkP.s 			page 28


 1217 05fe 8C46     		mov	ip, r1
 1218 0600 BC44     		add	ip, ip, r7
 1219 0602 6244     		add	r2, r2, ip
 1220 0604 D27A     		ldrb	r2, [r2, #11]
 1221 0606 1340     		ands	r3, r2
 1222 0608 1B06     		lsls	r3, r3, #24
 1223 060a 1B0E     		lsrs	r3, r3, #24
 1224 060c 5DD1     		bne	.L51
 256:main.c        ****                     ((int)testBuf[10] == checkSumCalculated)) {
 1225              		.loc 1 256 0 discriminator 1
 1226 060e 7C4B     		ldr	r3, .L103+48
 1227 0610 9C22     		movs	r2, #156
 1228 0612 5200     		lsls	r2, r2, #1
 1229 0614 9446     		mov	ip, r2
 1230 0616 BC44     		add	ip, ip, r7
 1231 0618 6344     		add	r3, r3, ip
 1232 061a 9B7A     		ldrb	r3, [r3, #10]
 1233 061c 1A00     		movs	r2, r3
 255:main.c        ****                 if (((testBuf[10] & testBuf[11]) == 0) &&
 1234              		.loc 1 255 0 discriminator 1
 1235 061e 9823     		movs	r3, #152
 1236 0620 5B00     		lsls	r3, r3, #1
 1237 0622 FB18     		adds	r3, r7, r3
 1238 0624 1B68     		ldr	r3, [r3]
 1239 0626 9342     		cmp	r3, r2
 1240 0628 4FD1     		bne	.L51
 1241              	.LBB6:
 257:main.c        ****                     for (int i = 0; i < 9; i++) {
 1242              		.loc 1 257 0
 1243 062a 0023     		movs	r3, #0
 1244 062c 9422     		movs	r2, #148
 1245 062e 5200     		lsls	r2, r2, #1
 1246 0630 BA18     		adds	r2, r7, r2
 1247 0632 1360     		str	r3, [r2]
 1248 0634 17E0     		b	.L52
 1249              	.L53:
 258:main.c        ****                         read[i] = testBuf[i];
 1250              		.loc 1 258 0 discriminator 3
 1251 0636 724B     		ldr	r3, .L103+48
 1252 0638 9C24     		movs	r4, #156
 1253 063a 6400     		lsls	r4, r4, #1
 1254 063c 3A19     		adds	r2, r7, r4
 1255 063e D218     		adds	r2, r2, r3
 1256 0640 9420     		movs	r0, #148
 1257 0642 4000     		lsls	r0, r0, #1
 1258 0644 3B18     		adds	r3, r7, r0
 1259 0646 1B68     		ldr	r3, [r3]
 1260 0648 D318     		adds	r3, r2, r3
 1261 064a 1978     		ldrb	r1, [r3]
 1262 064c 6F4B     		ldr	r3, .L103+60
 1263 064e 3A19     		adds	r2, r7, r4
 1264 0650 D218     		adds	r2, r2, r3
 1265 0652 3B18     		adds	r3, r7, r0
 1266 0654 1B68     		ldr	r3, [r3]
 1267 0656 D318     		adds	r3, r2, r3
 1268 0658 0A1C     		adds	r2, r1, #0
 1269 065a 1A70     		strb	r2, [r3]
ARM GAS  C:\Users\embedded\AppData\Local\Temp\ccHk1fkP.s 			page 29


 257:main.c        ****                     for (int i = 0; i < 9; i++) {
 1270              		.loc 1 257 0 discriminator 3
 1271 065c 3B18     		adds	r3, r7, r0
 1272 065e 1B68     		ldr	r3, [r3]
 1273 0660 0133     		adds	r3, r3, #1
 1274 0662 3A18     		adds	r2, r7, r0
 1275 0664 1360     		str	r3, [r2]
 1276              	.L52:
 257:main.c        ****                     for (int i = 0; i < 9; i++) {
 1277              		.loc 1 257 0 is_stmt 0 discriminator 1
 1278 0666 9423     		movs	r3, #148
 1279 0668 5B00     		lsls	r3, r3, #1
 1280 066a FB18     		adds	r3, r7, r3
 1281 066c 1B68     		ldr	r3, [r3]
 1282 066e 082B     		cmp	r3, #8
 1283 0670 E1DD     		ble	.L53
 1284              	.LBE6:
 259:main.c        ****                     }
 260:main.c        ****                     rounds = testBuf[9];
 1285              		.loc 1 260 0 is_stmt 1
 1286 0672 DB24     		movs	r4, #219
 1287 0674 3B19     		adds	r3, r7, r4
 1288 0676 624A     		ldr	r2, .L103+48
 1289 0678 9C21     		movs	r1, #156
 1290 067a 4900     		lsls	r1, r1, #1
 1291 067c 8C46     		mov	ip, r1
 1292 067e BC44     		add	ip, ip, r7
 1293 0680 6244     		add	r2, r2, ip
 1294 0682 527A     		ldrb	r2, [r2, #9]
 1295 0684 1A70     		strb	r2, [r3]
 261:main.c        ****                     lcdGotoxy(10, 30);
 1296              		.loc 1 261 0
 1297 0686 1E21     		movs	r1, #30
 1298 0688 0A20     		movs	r0, #10
 1299 068a FFF7FEFF 		bl	lcdGotoxy
 262:main.c        ****                     lcdPuts("TOP 1:");
 1300              		.loc 1 262 0
 1301 068e 604B     		ldr	r3, .L103+64
 1302 0690 1800     		movs	r0, r3
 1303 0692 FFF7FEFF 		bl	lcdPuts
 263:main.c        ****                     lcdGotoxy(10, 50);
 1304              		.loc 1 263 0
 1305 0696 3221     		movs	r1, #50
 1306 0698 0A20     		movs	r0, #10
 1307 069a FFF7FEFF 		bl	lcdGotoxy
 264:main.c        ****                     lcdPuts(read);
 1308              		.loc 1 264 0
 1309 069e 2823     		movs	r3, #40
 1310 06a0 FB18     		adds	r3, r7, r3
 1311 06a2 1800     		movs	r0, r3
 1312 06a4 FFF7FEFF 		bl	lcdPuts
 265:main.c        ****                     lcdGotoxy(10, 70);
 1313              		.loc 1 265 0
 1314 06a8 4621     		movs	r1, #70
 1315 06aa 0A20     		movs	r0, #10
 1316 06ac FFF7FEFF 		bl	lcdGotoxy
 266:main.c        ****                     lcdPuts("Wygrane: ");
ARM GAS  C:\Users\embedded\AppData\Local\Temp\ccHk1fkP.s 			page 30


 1317              		.loc 1 266 0
 1318 06b0 584B     		ldr	r3, .L103+68
 1319 06b2 1800     		movs	r0, r3
 1320 06b4 FFF7FEFF 		bl	lcdPuts
 267:main.c        ****                     lcdPutchar(rounds + '0');
 1321              		.loc 1 267 0
 1322 06b8 3B19     		adds	r3, r7, r4
 1323 06ba 1B78     		ldrb	r3, [r3]
 1324 06bc 3033     		adds	r3, r3, #48
 1325 06be 1B06     		lsls	r3, r3, #24
 1326 06c0 1B0E     		lsrs	r3, r3, #24
 1327 06c2 1800     		movs	r0, r3
 1328 06c4 FFF7FEFF 		bl	lcdPutchar
 1329 06c8 07E0     		b	.L47
 1330              	.L51:
 268:main.c        ****                 } else {
 269:main.c        ****                     lcdGotoxy(10, 50);
 1331              		.loc 1 269 0
 1332 06ca 3221     		movs	r1, #50
 1333 06cc 0A20     		movs	r0, #10
 1334 06ce FFF7FEFF 		bl	lcdGotoxy
 270:main.c        ****                     lcdPuts("Brak wynikow");
 1335              		.loc 1 270 0
 1336 06d2 514B     		ldr	r3, .L103+72
 1337 06d4 1800     		movs	r0, r3
 1338 06d6 FFF7FEFF 		bl	lcdPuts
 1339              	.L47:
 1340              	.LBE4:
 244:main.c        ****                 tU8 testBuf[12];
 1341              		.loc 1 244 0
 1342 06da 464B     		ldr	r3, .L103+36
 1343 06dc 1A68     		ldr	r2, [r3]
 1344 06de 8023     		movs	r3, #128
 1345 06e0 5B00     		lsls	r3, r3, #1
 1346 06e2 1340     		ands	r3, r2
 1347 06e4 00D0     		beq	.LCB1070
 1348 06e6 3BE7     		b	.L55	@long jump
 1349              	.LCB1070:
 271:main.c        ****                 }
 272:main.c        ****             }
 273:main.c        ****             choice = 0;
 1350              		.loc 1 273 0
 1351 06e8 0023     		movs	r3, #0
 1352 06ea 9A22     		movs	r2, #154
 1353 06ec 5200     		lsls	r2, r2, #1
 1354 06ee BA18     		adds	r2, r7, r2
 1355 06f0 1360     		str	r3, [r2]
 1356              	.L46:
 274:main.c        ****         }
 275:main.c        ****         if (choice == 2) {  // gra
 1357              		.loc 1 275 0
 1358 06f2 9A23     		movs	r3, #154
 1359 06f4 5B00     		lsls	r3, r3, #1
 1360 06f6 FB18     		adds	r3, r7, r3
 1361 06f8 1B68     		ldr	r3, [r3]
 1362 06fa 022B     		cmp	r3, #2
 1363 06fc 01D0     		beq	.LCB1083
ARM GAS  C:\Users\embedded\AppData\Local\Temp\ccHk1fkP.s 			page 31


 1364 06fe 00F085FC 		bl	.L56	@far jump
 1365              	.LCB1083:
 1366              	.LBB7:
 276:main.c        ****             delayMs(1000);
 1367              		.loc 1 276 0
 1368 0702 FA23     		movs	r3, #250
 1369 0704 9B00     		lsls	r3, r3, #2
 1370 0706 1800     		movs	r0, r3
 1371 0708 FFF7FEFF 		bl	delayMs
 277:main.c        ****             lcdClrscr();
 1372              		.loc 1 277 0
 1373 070c FFF7FEFF 		bl	lcdClrscr
 278:main.c        ****             lcdGotoxy(20, 20);
 1374              		.loc 1 278 0
 1375 0710 1421     		movs	r1, #20
 1376 0712 1420     		movs	r0, #20
 1377 0714 FFF7FEFF 		bl	lcdGotoxy
 279:main.c        ****             lcdPuts("REFLEKS");
 1378              		.loc 1 279 0
 1379 0718 404B     		ldr	r3, .L103+76
 1380 071a 1800     		movs	r0, r3
 1381 071c FFF7FEFF 		bl	lcdPuts
 280:main.c        ****             lcdPuts("\n\n  dzwiek:");
 1382              		.loc 1 280 0
 1383 0720 3F4B     		ldr	r3, .L103+80
 1384 0722 1800     		movs	r0, r3
 1385 0724 FFF7FEFF 		bl	lcdPuts
 281:main.c        ****             lcdPuts("\n  niski-lewo");
 1386              		.loc 1 281 0
 1387 0728 3E4B     		ldr	r3, .L103+84
 1388 072a 1800     		movs	r0, r3
 1389 072c FFF7FEFF 		bl	lcdPuts
 282:main.c        ****             lcdPuts("\n  wysoki-prawo");
 1390              		.loc 1 282 0
 1391 0730 3D4B     		ldr	r3, .L103+88
 1392 0732 1800     		movs	r0, r3
 1393 0734 FFF7FEFF 		bl	lcdPuts
 283:main.c        **** 
 284:main.c        ****             while ((IOPIN & 0x00000100) != 0) {
 1394              		.loc 1 284 0
 1395 0738 C046     		nop
 1396              	.L57:
 1397              		.loc 1 284 0 is_stmt 0 discriminator 1
 1398 073a 2E4B     		ldr	r3, .L103+36
 1399 073c 1A68     		ldr	r2, [r3]
 1400 073e 8023     		movs	r3, #128
 1401 0740 5B00     		lsls	r3, r3, #1
 1402 0742 1340     		ands	r3, r2
 1403 0744 F9D1     		bne	.L57
 285:main.c        ****             }
 286:main.c        ****             lcdClrscr();
 1404              		.loc 1 286 0 is_stmt 1
 1405 0746 FFF7FEFF 		bl	lcdClrscr
 287:main.c        ****             delayMs(1000);
 1406              		.loc 1 287 0
 1407 074a FA23     		movs	r3, #250
 1408 074c 9B00     		lsls	r3, r3, #2
ARM GAS  C:\Users\embedded\AppData\Local\Temp\ccHk1fkP.s 			page 32


 1409 074e 1800     		movs	r0, r3
 1410 0750 FFF7FEFF 		bl	delayMs
 288:main.c        **** 
 289:main.c        ****             tBool exit = TRUE;
 1411              		.loc 1 289 0
 1412 0754 2823     		movs	r3, #40
 1413 0756 FF33     		adds	r3, r3, #255
 1414 0758 FB18     		adds	r3, r7, r3
 1415 075a 0122     		movs	r2, #1
 1416 075c 1A70     		strb	r2, [r3]
 290:main.c        ****             while (((IOPIN & 0x00000100) != 0) && exit) {
 1417              		.loc 1 290 0
 1418 075e 00F042FC 		bl	.L58	@ far jump
 1419              	.L101:
 1420              	.LBB8:
 291:main.c        ****                 int number;
 292:main.c        ****                 char num_char[8 + (int)sizeof(char)];
 293:main.c        ****                 int waitingfor = 1;
 1421              		.loc 1 293 0
 1422 0762 0123     		movs	r3, #1
 1423 0764 8E22     		movs	r2, #142
 1424 0766 5200     		lsls	r2, r2, #1
 1425 0768 BA18     		adds	r2, r7, r2
 1426 076a 1360     		str	r3, [r2]
 294:main.c        ****                 int seconds = 0;
 1427              		.loc 1 294 0
 1428 076c 0023     		movs	r3, #0
 1429 076e 8C22     		movs	r2, #140
 1430 0770 5200     		lsls	r2, r2, #1
 1431 0772 BA18     		adds	r2, r7, r2
 1432 0774 1360     		str	r3, [r2]
 295:main.c        ****                 int miliseconds = 0;
 1433              		.loc 1 295 0
 1434 0776 0023     		movs	r3, #0
 1435 0778 8A22     		movs	r2, #138
 1436 077a 5200     		lsls	r2, r2, #1
 1437 077c BA18     		adds	r2, r7, r2
 1438 077e 1360     		str	r3, [r2]
 296:main.c        ****                 int howManyRounds = 0;  // wygranych
 1439              		.loc 1 296 0
 1440 0780 0023     		movs	r3, #0
 1441 0782 8822     		movs	r2, #136
 1442 0784 5200     		lsls	r2, r2, #1
 1443 0786 BA18     		adds	r2, r7, r2
 1444 0788 1360     		str	r3, [r2]
 297:main.c        ****                 tBool exitFor = FALSE;
 1445              		.loc 1 297 0
 1446 078a 1023     		movs	r3, #16
 1447 078c FF33     		adds	r3, r3, #255
 1448 078e FB18     		adds	r3, r7, r3
 1449 0790 0022     		movs	r2, #0
 1450 0792 1A70     		strb	r2, [r3]
 1451              	.LBB9:
 298:main.c        ****                 for (int i = 0; (i < 5) && !exitFor; i++) {
 1452              		.loc 1 298 0
 1453 0794 0023     		movs	r3, #0
 1454 0796 8422     		movs	r2, #132
ARM GAS  C:\Users\embedded\AppData\Local\Temp\ccHk1fkP.s 			page 33


 1455 0798 5200     		lsls	r2, r2, #1
 1456 079a BA18     		adds	r2, r7, r2
 1457 079c 1360     		str	r3, [r2]
 1458 079e 76E1     		b	.L59
 1459              	.L71:
 1460              	.LBB10:
 299:main.c        ****                     lcdClrscr();
 1461              		.loc 1 299 0
 1462 07a0 FFF7FEFF 		bl	lcdClrscr
 300:main.c        ****                     int correct = timeTwo % 2; 
 1463              		.loc 1 300 0
 1464 07a4 0A4B     		ldr	r3, .L103
 1465 07a6 1B68     		ldr	r3, [r3]
 1466 07a8 1A00     		movs	r2, r3
 1467 07aa 0123     		movs	r3, #1
 1468 07ac 1340     		ands	r3, r2
 1469 07ae D422     		movs	r2, #212
 1470 07b0 B918     		adds	r1, r7, r2
 1471 07b2 0B60     		str	r3, [r1]
 301:main.c        ****                     int directionAddr;
 302:main.c        ****                     int freq;
 303:main.c        ****                     if (correct == 0) { //niski
 1472              		.loc 1 303 0
 1473 07b4 BB18     		adds	r3, r7, r2
 1474 07b6 1B68     		ldr	r3, [r3]
 1475 07b8 002B     		cmp	r3, #0
 1476 07ba 37D1     		bne	.L60
 304:main.c        ****                         freq = 220;
 1477              		.loc 1 304 0
 1478 07bc DC23     		movs	r3, #220
 1479 07be 7A1C     		adds	r2, r7, #1
 1480 07c0 FF32     		adds	r2, r2, #255
 1481 07c2 1360     		str	r3, [r2]
 305:main.c        ****                         directionAddr = 0x00000200;
 1482              		.loc 1 305 0
 1483 07c4 8023     		movs	r3, #128
 1484 07c6 9B00     		lsls	r3, r3, #2
 1485 07c8 7A1D     		adds	r2, r7, #5
 1486 07ca FF32     		adds	r2, r2, #255
 1487 07cc 1360     		str	r3, [r2]
 1488 07ce 37E0     		b	.L61
 1489              	.L104:
 1490              		.align	2
 1491              	.L103:
 1492 07d0 00000000 		.word	timeTwo
 1493 07d4 04C002E0 		.word	-536690684
 1494 07d8 FFFFF3FF 		.word	-786433
 1495 07dc 64010000 		.word	.LC0
 1496 07e0 AC010000 		.word	.LC1
 1497 07e4 00000000 		.word	.LC6
 1498 07e8 14000000 		.word	.LC8
 1499 07ec 2C000000 		.word	.LC10
 1500 07f0 40000000 		.word	.LC12
 1501 07f4 008002E0 		.word	-536707072
 1502 07f8 54000000 		.word	.LC14
 1503 07fc 5C000000 		.word	.LC16
 1504 0800 FCFEFFFF 		.word	-260
ARM GAS  C:\Users\embedded\AppData\Local\Temp\ccHk1fkP.s 			page 34


 1505 0804 FF000080 		.word	-2147483393
 1506 0808 00FFFFFF 		.word	-256
 1507 080c F0FEFFFF 		.word	-272
 1508 0810 64000000 		.word	.LC18
 1509 0814 6C000000 		.word	.LC20
 1510 0818 78000000 		.word	.LC22
 1511 081c 88000000 		.word	.LC24
 1512 0820 90000000 		.word	.LC26
 1513 0824 9C000000 		.word	.LC28
 1514 0828 AC000000 		.word	.LC30
 1515              	.L60:
 306:main.c        ****                     } else { //wysoki
 307:main.c        ****                         freq = 880;
 1516              		.loc 1 307 0
 1517 082c DC23     		movs	r3, #220
 1518 082e 9B00     		lsls	r3, r3, #2
 1519 0830 7A1C     		adds	r2, r7, #1
 1520 0832 FF32     		adds	r2, r2, #255
 1521 0834 1360     		str	r3, [r2]
 308:main.c        ****                         directionAddr = 0x00000800;
 1522              		.loc 1 308 0
 1523 0836 8023     		movs	r3, #128
 1524 0838 1B01     		lsls	r3, r3, #4
 1525 083a 7A1D     		adds	r2, r7, #5
 1526 083c FF32     		adds	r2, r2, #255
 1527 083e 1360     		str	r3, [r2]
 1528              	.L61:
 309:main.c        ****                     }
 310:main.c        ****                     playSound(freq, 640 * freq);
 1529              		.loc 1 310 0
 1530 0840 7B1C     		adds	r3, r7, #1
 1531 0842 FF33     		adds	r3, r3, #255
 1532 0844 1A68     		ldr	r2, [r3]
 1533 0846 1300     		movs	r3, r2
 1534 0848 9B00     		lsls	r3, r3, #2
 1535 084a 9B18     		adds	r3, r3, r2
 1536 084c DB01     		lsls	r3, r3, #7
 1537 084e 1A00     		movs	r2, r3
 1538 0850 7B1C     		adds	r3, r7, #1
 1539 0852 FF33     		adds	r3, r3, #255
 1540 0854 1B68     		ldr	r3, [r3]
 1541 0856 1100     		movs	r1, r2
 1542 0858 1800     		movs	r0, r3
 1543 085a FFF7FEFF 		bl	playSound
 311:main.c        ****                     init_irq(10, 20);
 1544              		.loc 1 311 0
 1545 085e 1421     		movs	r1, #20
 1546 0860 0A20     		movs	r0, #10
 1547 0862 FFF797FC 		bl	init_irq
 312:main.c        ****                     number = 0;
 1548              		.loc 1 312 0
 1549 0866 0023     		movs	r3, #0
 1550 0868 9022     		movs	r2, #144
 1551 086a 5200     		lsls	r2, r2, #1
 1552 086c BA18     		adds	r2, r7, r2
 1553 086e 1360     		str	r3, [r2]
 313:main.c        ****                     waitingfor = 1;
ARM GAS  C:\Users\embedded\AppData\Local\Temp\ccHk1fkP.s 			page 35


 1554              		.loc 1 313 0
 1555 0870 0123     		movs	r3, #1
 1556 0872 8E22     		movs	r2, #142
 1557 0874 5200     		lsls	r2, r2, #1
 1558 0876 BA18     		adds	r2, r7, r2
 1559 0878 1360     		str	r3, [r2]
 314:main.c        ****                     lcdGotoxy(10, 10);
 1560              		.loc 1 314 0
 1561 087a 0A21     		movs	r1, #10
 1562 087c 0A20     		movs	r0, #10
 1563 087e FFF7FEFF 		bl	lcdGotoxy
 315:main.c        ****                     lcdPuts("Runda ");
 1564              		.loc 1 315 0
 1565 0882 DD4B     		ldr	r3, .L105
 1566 0884 1800     		movs	r0, r3
 1567 0886 FFF7FEFF 		bl	lcdPuts
 316:main.c        ****                     lcdPutchar(i + 1 + '0');
 1568              		.loc 1 316 0
 1569 088a 8423     		movs	r3, #132
 1570 088c 5B00     		lsls	r3, r3, #1
 1571 088e FB18     		adds	r3, r7, r3
 1572 0890 1B68     		ldr	r3, [r3]
 1573 0892 1B06     		lsls	r3, r3, #24
 1574 0894 1B0E     		lsrs	r3, r3, #24
 1575 0896 3133     		adds	r3, r3, #49
 1576 0898 1B06     		lsls	r3, r3, #24
 1577 089a 1B0E     		lsrs	r3, r3, #24
 1578 089c 1800     		movs	r0, r3
 1579 089e FFF7FEFF 		bl	lcdPutchar
 1580              	.L68:
 317:main.c        ****                     while (1) {
 318:main.c        ****                         if (timeTwo >=
 1581              		.loc 1 318 0
 1582 08a2 D64B     		ldr	r3, .L105+4
 1583 08a4 1A68     		ldr	r2, [r3]
 319:main.c        ****                             (unsigned int)waitingfor) { 
 1584              		.loc 1 319 0
 1585 08a6 8E23     		movs	r3, #142
 1586 08a8 5B00     		lsls	r3, r3, #1
 1587 08aa FB18     		adds	r3, r7, r3
 1588 08ac 1B68     		ldr	r3, [r3]
 318:main.c        ****                             (unsigned int)waitingfor) { 
 1589              		.loc 1 318 0
 1590 08ae 9A42     		cmp	r2, r3
 1591 08b0 3ED3     		bcc	.L62
 320:main.c        ****                             seconds = number / 100;
 1592              		.loc 1 320 0
 1593 08b2 9024     		movs	r4, #144
 1594 08b4 6400     		lsls	r4, r4, #1
 1595 08b6 3B19     		adds	r3, r7, r4
 1596 08b8 1B68     		ldr	r3, [r3]
 1597 08ba 6421     		movs	r1, #100
 1598 08bc 1800     		movs	r0, r3
 1599 08be FFF7FEFF 		bl	__aeabi_idiv
 1600              	.LVL4:
 1601 08c2 0300     		movs	r3, r0
 1602 08c4 8C25     		movs	r5, #140
ARM GAS  C:\Users\embedded\AppData\Local\Temp\ccHk1fkP.s 			page 36


 1603 08c6 6D00     		lsls	r5, r5, #1
 1604 08c8 7A19     		adds	r2, r7, r5
 1605 08ca 1360     		str	r3, [r2]
 321:main.c        ****                             miliseconds = number - (seconds * 100);
 1606              		.loc 1 321 0
 1607 08cc 7B19     		adds	r3, r7, r5
 1608 08ce 1A68     		ldr	r2, [r3]
 1609 08d0 1300     		movs	r3, r2
 1610 08d2 5B06     		lsls	r3, r3, #25
 1611 08d4 9B1A     		subs	r3, r3, r2
 1612 08d6 9B00     		lsls	r3, r3, #2
 1613 08d8 9B18     		adds	r3, r3, r2
 1614 08da DB00     		lsls	r3, r3, #3
 1615 08dc 9B1A     		subs	r3, r3, r2
 1616 08de 9B00     		lsls	r3, r3, #2
 1617 08e0 1A00     		movs	r2, r3
 1618 08e2 3B19     		adds	r3, r7, r4
 1619 08e4 1B68     		ldr	r3, [r3]
 1620 08e6 9B18     		adds	r3, r3, r2
 1621 08e8 8A26     		movs	r6, #138
 1622 08ea 7600     		lsls	r6, r6, #1
 1623 08ec BA19     		adds	r2, r7, r6
 1624 08ee 1360     		str	r3, [r2]
 322:main.c        ****                             lcdGotoxy(10, 30);
 1625              		.loc 1 322 0
 1626 08f0 1E21     		movs	r1, #30
 1627 08f2 0A20     		movs	r0, #10
 1628 08f4 FFF7FEFF 		bl	lcdGotoxy
 323:main.c        ****                             snprintf(num_char, sizeof(num_char), "00:%02d:%02d", seconds,
 1629              		.loc 1 323 0
 1630 08f8 7B19     		adds	r3, r7, r5
 1631 08fa 1968     		ldr	r1, [r3]
 1632 08fc C04A     		ldr	r2, .L105+8
 1633 08fe 1C25     		movs	r5, #28
 1634 0900 7819     		adds	r0, r7, r5
 1635 0902 BB19     		adds	r3, r7, r6
 1636 0904 1B68     		ldr	r3, [r3]
 1637 0906 0093     		str	r3, [sp]
 1638 0908 0B00     		movs	r3, r1
 1639 090a 0921     		movs	r1, #9
 1640 090c FFF7FEFF 		bl	snprintf
 324:main.c        ****                                      miliseconds);
 325:main.c        ****                             lcdPuts(num_char);
 1641              		.loc 1 325 0
 1642 0910 7B19     		adds	r3, r7, r5
 1643 0912 1800     		movs	r0, r3
 1644 0914 FFF7FEFF 		bl	lcdPuts
 326:main.c        ****                             number += 1;
 1645              		.loc 1 326 0
 1646 0918 3B19     		adds	r3, r7, r4
 1647 091a 1B68     		ldr	r3, [r3]
 1648 091c 0133     		adds	r3, r3, #1
 1649 091e 3A19     		adds	r2, r7, r4
 1650 0920 1360     		str	r3, [r2]
 327:main.c        ****                             waitingfor += 1;
 1651              		.loc 1 327 0
 1652 0922 8E22     		movs	r2, #142
ARM GAS  C:\Users\embedded\AppData\Local\Temp\ccHk1fkP.s 			page 37


 1653 0924 5200     		lsls	r2, r2, #1
 1654 0926 BB18     		adds	r3, r7, r2
 1655 0928 1B68     		ldr	r3, [r3]
 1656 092a 0133     		adds	r3, r3, #1
 1657 092c BA18     		adds	r2, r7, r2
 1658 092e 1360     		str	r3, [r2]
 1659              	.L62:
 328:main.c        ****                         }
 329:main.c        ****                         if ((IOPIN & directionAddr) == 0) {
 1660              		.loc 1 329 0
 1661 0930 B44B     		ldr	r3, .L105+12
 1662 0932 1B68     		ldr	r3, [r3]
 1663 0934 7A1D     		adds	r2, r7, #5
 1664 0936 FF32     		adds	r2, r2, #255
 1665 0938 1268     		ldr	r2, [r2]
 1666 093a 1340     		ands	r3, r2
 1667 093c 40D1     		bne	.L63
 330:main.c        ****                             lcdGotoxy(10, 50);
 1668              		.loc 1 330 0
 1669 093e 3221     		movs	r1, #50
 1670 0940 0A20     		movs	r0, #10
 1671 0942 FFF7FEFF 		bl	lcdGotoxy
 331:main.c        ****                             lcdPuts("Twoj czas:");
 1672              		.loc 1 331 0
 1673 0946 B04B     		ldr	r3, .L105+16
 1674 0948 1800     		movs	r0, r3
 1675 094a FFF7FEFF 		bl	lcdPuts
 332:main.c        ****                             lcdGotoxy(10, 70);
 1676              		.loc 1 332 0
 1677 094e 4621     		movs	r1, #70
 1678 0950 0A20     		movs	r0, #10
 1679 0952 FFF7FEFF 		bl	lcdGotoxy
 333:main.c        ****                             snprintf(num_char, sizeof(num_char), "00:%02d:%02d", seconds,
 1680              		.loc 1 333 0
 1681 0956 8C23     		movs	r3, #140
 1682 0958 5B00     		lsls	r3, r3, #1
 1683 095a FB18     		adds	r3, r7, r3
 1684 095c 1968     		ldr	r1, [r3]
 1685 095e A84A     		ldr	r2, .L105+8
 1686 0960 1C24     		movs	r4, #28
 1687 0962 3819     		adds	r0, r7, r4
 1688 0964 8A23     		movs	r3, #138
 1689 0966 5B00     		lsls	r3, r3, #1
 1690 0968 FB18     		adds	r3, r7, r3
 1691 096a 1B68     		ldr	r3, [r3]
 1692 096c 0093     		str	r3, [sp]
 1693 096e 0B00     		movs	r3, r1
 1694 0970 0921     		movs	r1, #9
 1695 0972 FFF7FEFF 		bl	snprintf
 334:main.c        ****                                      miliseconds);
 335:main.c        ****                             lcdPuts(num_char);
 1696              		.loc 1 335 0
 1697 0976 3B19     		adds	r3, r7, r4
 1698 0978 1800     		movs	r0, r3
 1699 097a FFF7FEFF 		bl	lcdPuts
 336:main.c        ****                             howManyRounds = i + 1;
 1700              		.loc 1 336 0
ARM GAS  C:\Users\embedded\AppData\Local\Temp\ccHk1fkP.s 			page 38


 1701 097e 8424     		movs	r4, #132
 1702 0980 6400     		lsls	r4, r4, #1
 1703 0982 3B19     		adds	r3, r7, r4
 1704 0984 1B68     		ldr	r3, [r3]
 1705 0986 0133     		adds	r3, r3, #1
 1706 0988 8822     		movs	r2, #136
 1707 098a 5200     		lsls	r2, r2, #1
 1708 098c BA18     		adds	r2, r7, r2
 1709 098e 1360     		str	r3, [r2]
 337:main.c        ****                             setPca9532Pin(7 - i, 0);
 1710              		.loc 1 337 0
 1711 0990 3B19     		adds	r3, r7, r4
 1712 0992 1B68     		ldr	r3, [r3]
 1713 0994 1B06     		lsls	r3, r3, #24
 1714 0996 1B0E     		lsrs	r3, r3, #24
 1715 0998 0722     		movs	r2, #7
 1716 099a D31A     		subs	r3, r2, r3
 1717 099c 1B06     		lsls	r3, r3, #24
 1718 099e 1B0E     		lsrs	r3, r3, #24
 1719 09a0 0021     		movs	r1, #0
 1720 09a2 1800     		movs	r0, r3
 1721 09a4 FFF7FEFF 		bl	setPca9532Pin
 338:main.c        ****                             setPca9532Pin(8 + i, 0);
 1722              		.loc 1 338 0
 1723 09a8 3B19     		adds	r3, r7, r4
 1724 09aa 1B68     		ldr	r3, [r3]
 1725 09ac 1B06     		lsls	r3, r3, #24
 1726 09ae 1B0E     		lsrs	r3, r3, #24
 1727 09b0 0833     		adds	r3, r3, #8
 1728 09b2 1B06     		lsls	r3, r3, #24
 1729 09b4 1B0E     		lsrs	r3, r3, #24
 1730 09b6 0021     		movs	r1, #0
 1731 09b8 1800     		movs	r0, r3
 1732 09ba FFF7FEFF 		bl	setPca9532Pin
 339:main.c        ****                             break;
 1733              		.loc 1 339 0
 1734 09be 58E0     		b	.L64
 1735              	.L63:
 340:main.c        ****                         }
 341:main.c        ****                         if (number > (500 / (i + 1))) {
 1736              		.loc 1 341 0
 1737 09c0 8423     		movs	r3, #132
 1738 09c2 5B00     		lsls	r3, r3, #1
 1739 09c4 FB18     		adds	r3, r7, r3
 1740 09c6 1B68     		ldr	r3, [r3]
 1741 09c8 0133     		adds	r3, r3, #1
 1742 09ca 1900     		movs	r1, r3
 1743 09cc FA23     		movs	r3, #250
 1744 09ce 5800     		lsls	r0, r3, #1
 1745 09d0 FFF7FEFF 		bl	__aeabi_idiv
 1746              	.LVL5:
 1747 09d4 0300     		movs	r3, r0
 1748 09d6 1A00     		movs	r2, r3
 1749 09d8 9023     		movs	r3, #144
 1750 09da 5B00     		lsls	r3, r3, #1
 1751 09dc FB18     		adds	r3, r7, r3
 1752 09de 1B68     		ldr	r3, [r3]
ARM GAS  C:\Users\embedded\AppData\Local\Temp\ccHk1fkP.s 			page 39


 1753 09e0 9342     		cmp	r3, r2
 1754 09e2 00DC     		bgt	.LCB1444
 1755 09e4 5DE7     		b	.L68	@long jump
 1756              	.LCB1444:
 342:main.c        ****                             howManyRounds = i;
 1757              		.loc 1 342 0
 1758 09e6 8423     		movs	r3, #132
 1759 09e8 5B00     		lsls	r3, r3, #1
 1760 09ea FB18     		adds	r3, r7, r3
 1761 09ec 1B68     		ldr	r3, [r3]
 1762 09ee 8822     		movs	r2, #136
 1763 09f0 5200     		lsls	r2, r2, #1
 1764 09f2 BA18     		adds	r2, r7, r2
 1765 09f4 1360     		str	r3, [r2]
 343:main.c        ****                             exitFor = TRUE;
 1766              		.loc 1 343 0
 1767 09f6 1023     		movs	r3, #16
 1768 09f8 FF33     		adds	r3, r3, #255
 1769 09fa FB18     		adds	r3, r7, r3
 1770 09fc 0122     		movs	r2, #1
 1771 09fe 1A70     		strb	r2, [r3]
 344:main.c        ****                             lcdClrscr();
 1772              		.loc 1 344 0
 1773 0a00 FFF7FEFF 		bl	lcdClrscr
 345:main.c        ****                             lcdGotoxy(10, 30);
 1774              		.loc 1 345 0
 1775 0a04 1E21     		movs	r1, #30
 1776 0a06 0A20     		movs	r0, #10
 1777 0a08 FFF7FEFF 		bl	lcdGotoxy
 346:main.c        ****                             lcdPuts("przegrales!");
 1778              		.loc 1 346 0
 1779 0a0c 7F4B     		ldr	r3, .L105+20
 1780 0a0e 1800     		movs	r0, r3
 1781 0a10 FFF7FEFF 		bl	lcdPuts
 1782              	.LBB11:
 347:main.c        ****                             for (int i = 0; i < 18; i++) {
 1783              		.loc 1 347 0
 1784 0a14 0023     		movs	r3, #0
 1785 0a16 FC22     		movs	r2, #252
 1786 0a18 BA18     		adds	r2, r7, r2
 1787 0a1a 1360     		str	r3, [r2]
 1788 0a1c 24E0     		b	.L66
 1789              	.L67:
 348:main.c        ****                                 playSound(freqs[i], times[i] * freqs[i] / 100000); //
 1790              		.loc 1 348 0 discriminator 3
 1791 0a1e 8821     		movs	r1, #136
 1792 0a20 7B18     		adds	r3, r7, r1
 1793 0a22 FC25     		movs	r5, #252
 1794 0a24 7A19     		adds	r2, r7, r5
 1795 0a26 1268     		ldr	r2, [r2]
 1796 0a28 9200     		lsls	r2, r2, #2
 1797 0a2a D458     		ldr	r4, [r2, r3]
 1798 0a2c 4023     		movs	r3, #64
 1799 0a2e FB18     		adds	r3, r7, r3
 1800 0a30 7A19     		adds	r2, r7, r5
 1801 0a32 1268     		ldr	r2, [r2]
 1802 0a34 9200     		lsls	r2, r2, #2
ARM GAS  C:\Users\embedded\AppData\Local\Temp\ccHk1fkP.s 			page 40


 1803 0a36 D058     		ldr	r0, [r2, r3]
 1804 0a38 7A18     		adds	r2, r7, r1
 1805 0a3a 7B19     		adds	r3, r7, r5
 1806 0a3c 1968     		ldr	r1, [r3]
 1807 0a3e 8900     		lsls	r1, r1, #2
 1808 0a40 8A58     		ldr	r2, [r1, r2]
 1809 0a42 0300     		movs	r3, r0
 1810 0a44 5343     		muls	r3, r2
 1811 0a46 7249     		ldr	r1, .L105+24
 1812 0a48 1800     		movs	r0, r3
 1813 0a4a FFF7FEFF 		bl	__aeabi_idiv
 1814              	.LVL6:
 1815 0a4e 0300     		movs	r3, r0
 1816 0a50 1900     		movs	r1, r3
 1817 0a52 2000     		movs	r0, r4
 1818 0a54 FFF7FEFF 		bl	playSound
 349:main.c        ****                                 delayMs(100);
 1819              		.loc 1 349 0 discriminator 3
 1820 0a58 6420     		movs	r0, #100
 1821 0a5a FFF7FEFF 		bl	delayMs
 347:main.c        ****                             for (int i = 0; i < 18; i++) {
 1822              		.loc 1 347 0 discriminator 3
 1823 0a5e 7B19     		adds	r3, r7, r5
 1824 0a60 1B68     		ldr	r3, [r3]
 1825 0a62 0133     		adds	r3, r3, #1
 1826 0a64 7A19     		adds	r2, r7, r5
 1827 0a66 1360     		str	r3, [r2]
 1828              	.L66:
 347:main.c        ****                             for (int i = 0; i < 18; i++) {
 1829              		.loc 1 347 0 is_stmt 0 discriminator 1
 1830 0a68 FC23     		movs	r3, #252
 1831 0a6a FB18     		adds	r3, r7, r3
 1832 0a6c 1B68     		ldr	r3, [r3]
 1833 0a6e 112B     		cmp	r3, #17
 1834 0a70 D5DD     		ble	.L67
 1835              	.L64:
 1836              	.LBE11:
 350:main.c        ****                             }
 351:main.c        ****                             break;
 352:main.c        ****                         }
 353:main.c        ****                     }
 354:main.c        ****                     while ((IOPIN & 0x00000400) != 0) {
 1837              		.loc 1 354 0 is_stmt 1 discriminator 1
 1838 0a72 C046     		nop
 1839              	.L69:
 1840 0a74 634B     		ldr	r3, .L105+12
 1841 0a76 1A68     		ldr	r2, [r3]
 1842 0a78 8023     		movs	r3, #128
 1843 0a7a DB00     		lsls	r3, r3, #3
 1844 0a7c 1340     		ands	r3, r2
 1845 0a7e F9D1     		bne	.L69
 1846              	.LBE10:
 298:main.c        ****                     lcdClrscr();
 1847              		.loc 1 298 0 discriminator 2
 1848 0a80 8422     		movs	r2, #132
 1849 0a82 5200     		lsls	r2, r2, #1
 1850 0a84 BB18     		adds	r3, r7, r2
ARM GAS  C:\Users\embedded\AppData\Local\Temp\ccHk1fkP.s 			page 41


 1851 0a86 1B68     		ldr	r3, [r3]
 1852 0a88 0133     		adds	r3, r3, #1
 1853 0a8a BA18     		adds	r2, r7, r2
 1854 0a8c 1360     		str	r3, [r2]
 1855              	.L59:
 298:main.c        ****                     lcdClrscr();
 1856              		.loc 1 298 0 is_stmt 0 discriminator 1
 1857 0a8e 8423     		movs	r3, #132
 1858 0a90 5B00     		lsls	r3, r3, #1
 1859 0a92 FB18     		adds	r3, r7, r3
 1860 0a94 1B68     		ldr	r3, [r3]
 1861 0a96 042B     		cmp	r3, #4
 1862 0a98 06DC     		bgt	.L70
 298:main.c        ****                     lcdClrscr();
 1863              		.loc 1 298 0 discriminator 3
 1864 0a9a 1023     		movs	r3, #16
 1865 0a9c FF33     		adds	r3, r3, #255
 1866 0a9e FB18     		adds	r3, r7, r3
 1867 0aa0 1B78     		ldrb	r3, [r3]
 1868 0aa2 002B     		cmp	r3, #0
 1869 0aa4 00D1     		bne	.LCB1553
 1870 0aa6 7BE6     		b	.L71	@long jump
 1871              	.LCB1553:
 1872              	.L70:
 1873              	.LBE9:
 355:main.c        ****                     }  // przejscie do kolejnej rundy joystick w gore
 356:main.c        ****                 }
 357:main.c        ****                 if (howManyRounds == 5) {
 1874              		.loc 1 357 0 is_stmt 1
 1875 0aa8 8823     		movs	r3, #136
 1876 0aaa 5B00     		lsls	r3, r3, #1
 1877 0aac FB18     		adds	r3, r7, r3
 1878 0aae 1B68     		ldr	r3, [r3]
 1879 0ab0 052B     		cmp	r3, #5
 1880 0ab2 0DD1     		bne	.L72
 358:main.c        ****                     lcdClrscr();
 1881              		.loc 1 358 0
 1882 0ab4 FFF7FEFF 		bl	lcdClrscr
 359:main.c        ****                     lcdGotoxy(10, 20);
 1883              		.loc 1 359 0
 1884 0ab8 1421     		movs	r1, #20
 1885 0aba 0A20     		movs	r0, #10
 1886 0abc FFF7FEFF 		bl	lcdGotoxy
 360:main.c        ****                     lcdPuts("wygrales!");
 1887              		.loc 1 360 0
 1888 0ac0 544B     		ldr	r3, .L105+28
 1889 0ac2 1800     		movs	r0, r3
 1890 0ac4 FFF7FEFF 		bl	lcdPuts
 361:main.c        ****                     lcdPuts("\njestes najlepszy!");
 1891              		.loc 1 361 0
 1892 0ac8 534B     		ldr	r3, .L105+32
 1893 0aca 1800     		movs	r0, r3
 1894 0acc FFF7FEFF 		bl	lcdPuts
 1895              	.L72:
 362:main.c        ****                 }
 363:main.c        ****                 lcdGotoxy(0, 50);
 1896              		.loc 1 363 0
ARM GAS  C:\Users\embedded\AppData\Local\Temp\ccHk1fkP.s 			page 42


 1897 0ad0 3221     		movs	r1, #50
 1898 0ad2 0020     		movs	r0, #0
 1899 0ad4 FFF7FEFF 		bl	lcdGotoxy
 364:main.c        ****                 lcdPuts("ilosc \nwygranych \nrund: ");
 1900              		.loc 1 364 0
 1901 0ad8 504B     		ldr	r3, .L105+36
 1902 0ada 1800     		movs	r0, r3
 1903 0adc FFF7FEFF 		bl	lcdPuts
 365:main.c        ****                 lcdPutchar(howManyRounds + '0');
 1904              		.loc 1 365 0
 1905 0ae0 8823     		movs	r3, #136
 1906 0ae2 5B00     		lsls	r3, r3, #1
 1907 0ae4 FB18     		adds	r3, r7, r3
 1908 0ae6 1B68     		ldr	r3, [r3]
 1909 0ae8 1B06     		lsls	r3, r3, #24
 1910 0aea 1B0E     		lsrs	r3, r3, #24
 1911 0aec 3033     		adds	r3, r3, #48
 1912 0aee 1B06     		lsls	r3, r3, #24
 1913 0af0 1B0E     		lsrs	r3, r3, #24
 1914 0af2 1800     		movs	r0, r3
 1915 0af4 FFF7FEFF 		bl	lcdPutchar
 366:main.c        **** 
 367:main.c        ****                 while ((IOPIN & 0x00000100) != 0) {
 1916              		.loc 1 367 0
 1917 0af8 C046     		nop
 1918              	.L73:
 1919              		.loc 1 367 0 is_stmt 0 discriminator 1
 1920 0afa 424B     		ldr	r3, .L105+12
 1921 0afc 1A68     		ldr	r2, [r3]
 1922 0afe 8023     		movs	r3, #128
 1923 0b00 5B00     		lsls	r3, r3, #1
 1924 0b02 1340     		ands	r3, r2
 1925 0b04 F9D1     		bne	.L73
 368:main.c        ****                 }  // Czekaj na zatwierdzenie ,przejscie do wpisywania nazwy
 369:main.c        **** 
 370:main.c        ****                 lcdClrscr();
 1926              		.loc 1 370 0 is_stmt 1
 1927 0b06 FFF7FEFF 		bl	lcdClrscr
 371:main.c        ****                 lcdGotoxy(10, 0);
 1928              		.loc 1 371 0
 1929 0b0a 0021     		movs	r1, #0
 1930 0b0c 0A20     		movs	r0, #10
 1931 0b0e FFF7FEFF 		bl	lcdGotoxy
 372:main.c        ****                 lcdPuts("\nNazwa gracza:\n");
 1932              		.loc 1 372 0
 1933 0b12 434B     		ldr	r3, .L105+40
 1934 0b14 1800     		movs	r0, r3
 1935 0b16 FFF7FEFF 		bl	lcdPuts
 373:main.c        **** 
 374:main.c        ****                 char name[12];  // rozmiar = rozmiar nazwy + suma kontrolna na 11 i 12
 375:main.c        ****                 // bajcie
 376:main.c        ****                 int index = 0;
 1936              		.loc 1 376 0
 1937 0b1a 0023     		movs	r3, #0
 1938 0b1c F822     		movs	r2, #248
 1939 0b1e BA18     		adds	r2, r7, r2
 1940 0b20 1360     		str	r3, [r2]
ARM GAS  C:\Users\embedded\AppData\Local\Temp\ccHk1fkP.s 			page 43


 377:main.c        ****                 char sign = 'A';
 1941              		.loc 1 377 0
 1942 0b22 F724     		movs	r4, #247
 1943 0b24 3B19     		adds	r3, r7, r4
 1944 0b26 4122     		movs	r2, #65
 1945 0b28 1A70     		strb	r2, [r3]
 378:main.c        ****                 int position = 10;
 1946              		.loc 1 378 0
 1947 0b2a 0A23     		movs	r3, #10
 1948 0b2c F022     		movs	r2, #240
 1949 0b2e B918     		adds	r1, r7, r2
 1950 0b30 0B60     		str	r3, [r1]
 379:main.c        **** 
 380:main.c        ****                 lcdGotoxy(position, 50);
 1951              		.loc 1 380 0
 1952 0b32 BB18     		adds	r3, r7, r2
 1953 0b34 1B68     		ldr	r3, [r3]
 1954 0b36 1B06     		lsls	r3, r3, #24
 1955 0b38 1B0E     		lsrs	r3, r3, #24
 1956 0b3a 3221     		movs	r1, #50
 1957 0b3c 1800     		movs	r0, r3
 1958 0b3e FFF7FEFF 		bl	lcdGotoxy
 381:main.c        ****                 lcdPutchar(sign);
 1959              		.loc 1 381 0
 1960 0b42 3B19     		adds	r3, r7, r4
 1961 0b44 1B78     		ldrb	r3, [r3]
 1962 0b46 1800     		movs	r0, r3
 1963 0b48 FFF7FEFF 		bl	lcdPutchar
 382:main.c        **** 
 383:main.c        ****                 delayMs(500);
 1964              		.loc 1 383 0
 1965 0b4c FA23     		movs	r3, #250
 1966 0b4e 5B00     		lsls	r3, r3, #1
 1967 0b50 1800     		movs	r0, r3
 1968 0b52 FFF7FEFF 		bl	delayMs
 384:main.c        ****                 while ((IOPIN & 0x00000100) != 0) {  // zatwierdzenie srodkowy
 1969              		.loc 1 384 0
 1970 0b56 E1E0     		b	.L74
 1971              	.L85:
 385:main.c        ****                     delayMs(200);
 1972              		.loc 1 385 0
 1973 0b58 C820     		movs	r0, #200
 1974 0b5a FFF7FEFF 		bl	delayMs
 386:main.c        ****                     // check if P0.12 down-key is pressed
 387:main.c        ****                     if ((IOPIN & 0x00001000) == 0) {
 1975              		.loc 1 387 0
 1976 0b5e 294B     		ldr	r3, .L105+12
 1977 0b60 1A68     		ldr	r2, [r3]
 1978 0b62 8023     		movs	r3, #128
 1979 0b64 5B01     		lsls	r3, r3, #5
 1980 0b66 1340     		ands	r3, r2
 1981 0b68 1FD1     		bne	.L75
 388:main.c        ****                         if (sign == 'A') {
 1982              		.loc 1 388 0
 1983 0b6a F723     		movs	r3, #247
 1984 0b6c FB18     		adds	r3, r7, r3
 1985 0b6e 1B78     		ldrb	r3, [r3]
ARM GAS  C:\Users\embedded\AppData\Local\Temp\ccHk1fkP.s 			page 44


 1986 0b70 412B     		cmp	r3, #65
 1987 0b72 04D1     		bne	.L76
 389:main.c        ****                             sign = 'Z';
 1988              		.loc 1 389 0
 1989 0b74 F723     		movs	r3, #247
 1990 0b76 FB18     		adds	r3, r7, r3
 1991 0b78 5A22     		movs	r2, #90
 1992 0b7a 1A70     		strb	r2, [r3]
 1993 0b7c 05E0     		b	.L77
 1994              	.L76:
 390:main.c        ****                         } else {
 391:main.c        ****                             sign--;
 1995              		.loc 1 391 0
 1996 0b7e F721     		movs	r1, #247
 1997 0b80 7B18     		adds	r3, r7, r1
 1998 0b82 1A78     		ldrb	r2, [r3]
 1999 0b84 7B18     		adds	r3, r7, r1
 2000 0b86 013A     		subs	r2, r2, #1
 2001 0b88 1A70     		strb	r2, [r3]
 2002              	.L77:
 392:main.c        ****                         }
 393:main.c        ****                         lcdGotoxy(position, 50);
 2003              		.loc 1 393 0
 2004 0b8a F023     		movs	r3, #240
 2005 0b8c FB18     		adds	r3, r7, r3
 2006 0b8e 1B68     		ldr	r3, [r3]
 2007 0b90 1B06     		lsls	r3, r3, #24
 2008 0b92 1B0E     		lsrs	r3, r3, #24
 2009 0b94 3221     		movs	r1, #50
 2010 0b96 1800     		movs	r0, r3
 2011 0b98 FFF7FEFF 		bl	lcdGotoxy
 394:main.c        ****                         lcdPutchar(sign);
 2012              		.loc 1 394 0
 2013 0b9c F723     		movs	r3, #247
 2014 0b9e FB18     		adds	r3, r7, r3
 2015 0ba0 1B78     		ldrb	r3, [r3]
 2016 0ba2 1800     		movs	r0, r3
 2017 0ba4 FFF7FEFF 		bl	lcdPutchar
 2018 0ba8 B8E0     		b	.L74
 2019              	.L75:
 395:main.c        ****                     }
 396:main.c        ****                         // check if P0.10 up-key is pressed
 397:main.c        ****                     else if ((IOPIN & 0x00000400) == 0) {
 2020              		.loc 1 397 0
 2021 0baa 164B     		ldr	r3, .L105+12
 2022 0bac 1A68     		ldr	r2, [r3]
 2023 0bae 8023     		movs	r3, #128
 2024 0bb0 DB00     		lsls	r3, r3, #3
 2025 0bb2 1340     		ands	r3, r2
 2026 0bb4 36D1     		bne	.L78
 398:main.c        ****                         if (sign == 'Z') {
 2027              		.loc 1 398 0
 2028 0bb6 F723     		movs	r3, #247
 2029 0bb8 FB18     		adds	r3, r7, r3
 2030 0bba 1B78     		ldrb	r3, [r3]
 2031 0bbc 5A2B     		cmp	r3, #90
 2032 0bbe 04D1     		bne	.L79
ARM GAS  C:\Users\embedded\AppData\Local\Temp\ccHk1fkP.s 			page 45


 399:main.c        ****                             sign = 'A';
 2033              		.loc 1 399 0
 2034 0bc0 F723     		movs	r3, #247
 2035 0bc2 FB18     		adds	r3, r7, r3
 2036 0bc4 4122     		movs	r2, #65
 2037 0bc6 1A70     		strb	r2, [r3]
 2038 0bc8 05E0     		b	.L80
 2039              	.L79:
 400:main.c        ****                         } else {
 401:main.c        ****                             sign++;
 2040              		.loc 1 401 0
 2041 0bca F721     		movs	r1, #247
 2042 0bcc 7B18     		adds	r3, r7, r1
 2043 0bce 1A78     		ldrb	r2, [r3]
 2044 0bd0 7B18     		adds	r3, r7, r1
 2045 0bd2 0132     		adds	r2, r2, #1
 2046 0bd4 1A70     		strb	r2, [r3]
 2047              	.L80:
 402:main.c        ****                         }
 403:main.c        ****                         lcdGotoxy(position, 50);
 2048              		.loc 1 403 0
 2049 0bd6 F023     		movs	r3, #240
 2050 0bd8 FB18     		adds	r3, r7, r3
 2051 0bda 1B68     		ldr	r3, [r3]
 2052 0bdc 1B06     		lsls	r3, r3, #24
 2053 0bde 1B0E     		lsrs	r3, r3, #24
 2054 0be0 3221     		movs	r1, #50
 2055 0be2 1800     		movs	r0, r3
 2056 0be4 FFF7FEFF 		bl	lcdGotoxy
 404:main.c        ****                         lcdPutchar(sign);
 2057              		.loc 1 404 0
 2058 0be8 F723     		movs	r3, #247
 2059 0bea FB18     		adds	r3, r7, r3
 2060 0bec 1B78     		ldrb	r3, [r3]
 2061 0bee 1800     		movs	r0, r3
 2062 0bf0 FFF7FEFF 		bl	lcdPutchar
 2063 0bf4 92E0     		b	.L74
 2064              	.L106:
 2065 0bf6 C046     		.align	2
 2066              	.L105:
 2067 0bf8 BC000000 		.word	.LC32
 2068 0bfc 00000000 		.word	timeTwo
 2069 0c00 C4000000 		.word	.LC34
 2070 0c04 008002E0 		.word	-536707072
 2071 0c08 D4000000 		.word	.LC36
 2072 0c0c E0000000 		.word	.LC38
 2073 0c10 A0860100 		.word	100000
 2074 0c14 EC000000 		.word	.LC40
 2075 0c18 F8000000 		.word	.LC42
 2076 0c1c 0C010000 		.word	.LC44
 2077 0c20 28010000 		.word	.LC46
 2078              	.L78:
 405:main.c        ****                     }
 406:main.c        ****                         // check if P0.9 left-key is pressed
 407:main.c        ****                     else if ((IOPIN & 0x00000200) == 0) {
 2079              		.loc 1 407 0
 2080 0c24 D64B     		ldr	r3, .L107
ARM GAS  C:\Users\embedded\AppData\Local\Temp\ccHk1fkP.s 			page 46


 2081 0c26 1A68     		ldr	r2, [r3]
 2082 0c28 8023     		movs	r3, #128
 2083 0c2a 9B00     		lsls	r3, r3, #2
 2084 0c2c 1340     		ands	r3, r2
 2085 0c2e 3AD1     		bne	.L81
 408:main.c        ****                         name[index] = '\0';
 2086              		.loc 1 408 0
 2087 0c30 D44B     		ldr	r3, .L107+4
 2088 0c32 9C22     		movs	r2, #156
 2089 0c34 5200     		lsls	r2, r2, #1
 2090 0c36 BA18     		adds	r2, r7, r2
 2091 0c38 D218     		adds	r2, r2, r3
 2092 0c3a F821     		movs	r1, #248
 2093 0c3c 7B18     		adds	r3, r7, r1
 2094 0c3e 1B68     		ldr	r3, [r3]
 2095 0c40 D318     		adds	r3, r2, r3
 2096 0c42 0022     		movs	r2, #0
 2097 0c44 1A70     		strb	r2, [r3]
 409:main.c        ****                         if (index != 0) {
 2098              		.loc 1 409 0
 2099 0c46 7B18     		adds	r3, r7, r1
 2100 0c48 1B68     		ldr	r3, [r3]
 2101 0c4a 002B     		cmp	r3, #0
 2102 0c4c 05D0     		beq	.L82
 410:main.c        ****                             index--;
 2103              		.loc 1 410 0
 2104 0c4e F822     		movs	r2, #248
 2105 0c50 BB18     		adds	r3, r7, r2
 2106 0c52 1B68     		ldr	r3, [r3]
 2107 0c54 013B     		subs	r3, r3, #1
 2108 0c56 BA18     		adds	r2, r7, r2
 2109 0c58 1360     		str	r3, [r2]
 2110              	.L82:
 411:main.c        ****                         }
 412:main.c        ****                         if (position != 10) {
 2111              		.loc 1 412 0
 2112 0c5a F023     		movs	r3, #240
 2113 0c5c FB18     		adds	r3, r7, r3
 2114 0c5e 1B68     		ldr	r3, [r3]
 2115 0c60 0A2B     		cmp	r3, #10
 2116 0c62 5BD0     		beq	.L74
 413:main.c        ****                             lcdGotoxy(position, 50);
 2117              		.loc 1 413 0
 2118 0c64 F024     		movs	r4, #240
 2119 0c66 3B19     		adds	r3, r7, r4
 2120 0c68 1B68     		ldr	r3, [r3]
 2121 0c6a 1B06     		lsls	r3, r3, #24
 2122 0c6c 1B0E     		lsrs	r3, r3, #24
 2123 0c6e 3221     		movs	r1, #50
 2124 0c70 1800     		movs	r0, r3
 2125 0c72 FFF7FEFF 		bl	lcdGotoxy
 414:main.c        ****                             lcdPutchar(' ');
 2126              		.loc 1 414 0
 2127 0c76 2020     		movs	r0, #32
 2128 0c78 FFF7FEFF 		bl	lcdPutchar
 415:main.c        ****                             position -= 10;
 2129              		.loc 1 415 0
ARM GAS  C:\Users\embedded\AppData\Local\Temp\ccHk1fkP.s 			page 47


 2130 0c7c 3B19     		adds	r3, r7, r4
 2131 0c7e 1B68     		ldr	r3, [r3]
 2132 0c80 0A3B     		subs	r3, r3, #10
 2133 0c82 3A19     		adds	r2, r7, r4
 2134 0c84 1360     		str	r3, [r2]
 416:main.c        ****                             lcdGotoxy(position, 50);
 2135              		.loc 1 416 0
 2136 0c86 3B19     		adds	r3, r7, r4
 2137 0c88 1B68     		ldr	r3, [r3]
 2138 0c8a 1B06     		lsls	r3, r3, #24
 2139 0c8c 1B0E     		lsrs	r3, r3, #24
 2140 0c8e 3221     		movs	r1, #50
 2141 0c90 1800     		movs	r0, r3
 2142 0c92 FFF7FEFF 		bl	lcdGotoxy
 417:main.c        ****                             lcdPutchar('A');
 2143              		.loc 1 417 0
 2144 0c96 4120     		movs	r0, #65
 2145 0c98 FFF7FEFF 		bl	lcdPutchar
 418:main.c        ****                             sign = 'A';
 2146              		.loc 1 418 0
 2147 0c9c F723     		movs	r3, #247
 2148 0c9e FB18     		adds	r3, r7, r3
 2149 0ca0 4122     		movs	r2, #65
 2150 0ca2 1A70     		strb	r2, [r3]
 2151 0ca4 3AE0     		b	.L74
 2152              	.L81:
 419:main.c        ****                         }
 420:main.c        ****                     }
 421:main.c        ****                         // check if P0.11 right-key is pressed
 422:main.c        ****                     else if ((IOPIN & 0x00000800) == 0) {
 2153              		.loc 1 422 0
 2154 0ca6 B64B     		ldr	r3, .L107
 2155 0ca8 1A68     		ldr	r2, [r3]
 2156 0caa 8023     		movs	r3, #128
 2157 0cac 1B01     		lsls	r3, r3, #4
 2158 0cae 1340     		ands	r3, r2
 2159 0cb0 F721     		movs	r1, #247
 2160 0cb2 7A18     		adds	r2, r7, r1
 2161 0cb4 7918     		adds	r1, r7, r1
 2162 0cb6 0978     		ldrb	r1, [r1]
 2163 0cb8 1170     		strb	r1, [r2]
 2164 0cba 002B     		cmp	r3, #0
 2165 0cbc 2ED1     		bne	.L74
 423:main.c        ****                         if (position != 90) {  // jesli to nie jest ostatni znak
 2166              		.loc 1 423 0
 2167 0cbe F023     		movs	r3, #240
 2168 0cc0 FB18     		adds	r3, r7, r3
 2169 0cc2 1B68     		ldr	r3, [r3]
 2170 0cc4 5A2B     		cmp	r3, #90
 2171 0cc6 24D0     		beq	.L84
 424:main.c        ****                             name[index] = sign;
 2172              		.loc 1 424 0
 2173 0cc8 AE4B     		ldr	r3, .L107+4
 2174 0cca 9C22     		movs	r2, #156
 2175 0ccc 5200     		lsls	r2, r2, #1
 2176 0cce BA18     		adds	r2, r7, r2
 2177 0cd0 D218     		adds	r2, r2, r3
ARM GAS  C:\Users\embedded\AppData\Local\Temp\ccHk1fkP.s 			page 48


 2178 0cd2 F821     		movs	r1, #248
 2179 0cd4 7B18     		adds	r3, r7, r1
 2180 0cd6 1B68     		ldr	r3, [r3]
 2181 0cd8 D318     		adds	r3, r2, r3
 2182 0cda F724     		movs	r4, #247
 2183 0cdc 3A19     		adds	r2, r7, r4
 2184 0cde 1278     		ldrb	r2, [r2]
 2185 0ce0 1A70     		strb	r2, [r3]
 425:main.c        ****                             index++;
 2186              		.loc 1 425 0
 2187 0ce2 7B18     		adds	r3, r7, r1
 2188 0ce4 1B68     		ldr	r3, [r3]
 2189 0ce6 0133     		adds	r3, r3, #1
 2190 0ce8 7A18     		adds	r2, r7, r1
 2191 0cea 1360     		str	r3, [r2]
 426:main.c        ****                             position += 10;
 2192              		.loc 1 426 0
 2193 0cec F022     		movs	r2, #240
 2194 0cee BB18     		adds	r3, r7, r2
 2195 0cf0 1B68     		ldr	r3, [r3]
 2196 0cf2 0A33     		adds	r3, r3, #10
 2197 0cf4 B918     		adds	r1, r7, r2
 2198 0cf6 0B60     		str	r3, [r1]
 427:main.c        ****                             lcdGotoxy(position, 50);
 2199              		.loc 1 427 0
 2200 0cf8 BB18     		adds	r3, r7, r2
 2201 0cfa 1B68     		ldr	r3, [r3]
 2202 0cfc 1B06     		lsls	r3, r3, #24
 2203 0cfe 1B0E     		lsrs	r3, r3, #24
 2204 0d00 3221     		movs	r1, #50
 2205 0d02 1800     		movs	r0, r3
 2206 0d04 FFF7FEFF 		bl	lcdGotoxy
 428:main.c        ****                             lcdPutchar(sign);
 2207              		.loc 1 428 0
 2208 0d08 3B19     		adds	r3, r7, r4
 2209 0d0a 1B78     		ldrb	r3, [r3]
 2210 0d0c 1800     		movs	r0, r3
 2211 0d0e FFF7FEFF 		bl	lcdPutchar
 2212              	.L84:
 2213 0d12 F722     		movs	r2, #247
 2214 0d14 BB18     		adds	r3, r7, r2
 2215 0d16 BA18     		adds	r2, r7, r2
 2216 0d18 1278     		ldrb	r2, [r2]
 2217 0d1a 1A70     		strb	r2, [r3]
 2218              	.L74:
 384:main.c        ****                     delayMs(200);
 2219              		.loc 1 384 0
 2220 0d1c 984B     		ldr	r3, .L107
 2221 0d1e 1A68     		ldr	r2, [r3]
 2222 0d20 8023     		movs	r3, #128
 2223 0d22 5B00     		lsls	r3, r3, #1
 2224 0d24 1340     		ands	r3, r2
 2225 0d26 00D0     		beq	.LCB1897
 2226 0d28 16E7     		b	.L85	@long jump
 2227              	.LCB1897:
 429:main.c        ****                         }
 430:main.c        ****                     } else {
ARM GAS  C:\Users\embedded\AppData\Local\Temp\ccHk1fkP.s 			page 49


 431:main.c        ****                     }
 432:main.c        ****                 }
 433:main.c        ****                 name[index] = sign;
 2228              		.loc 1 433 0
 2229 0d2a 964B     		ldr	r3, .L107+4
 2230 0d2c 9C22     		movs	r2, #156
 2231 0d2e 5200     		lsls	r2, r2, #1
 2232 0d30 BA18     		adds	r2, r7, r2
 2233 0d32 D218     		adds	r2, r2, r3
 2234 0d34 F823     		movs	r3, #248
 2235 0d36 FB18     		adds	r3, r7, r3
 2236 0d38 1B68     		ldr	r3, [r3]
 2237 0d3a D318     		adds	r3, r2, r3
 2238 0d3c F722     		movs	r2, #247
 2239 0d3e BA18     		adds	r2, r7, r2
 2240 0d40 1278     		ldrb	r2, [r2]
 2241 0d42 1A70     		strb	r2, [r3]
 434:main.c        ****                 while (index < 12) {
 2242              		.loc 1 434 0
 2243 0d44 0FE0     		b	.L86
 2244              	.L87:
 435:main.c        ****                     index++;
 2245              		.loc 1 435 0
 2246 0d46 F821     		movs	r1, #248
 2247 0d48 7B18     		adds	r3, r7, r1
 2248 0d4a 1B68     		ldr	r3, [r3]
 2249 0d4c 0133     		adds	r3, r3, #1
 2250 0d4e 7A18     		adds	r2, r7, r1
 2251 0d50 1360     		str	r3, [r2]
 436:main.c        ****                     name[index] = '\0';
 2252              		.loc 1 436 0
 2253 0d52 8C4B     		ldr	r3, .L107+4
 2254 0d54 9C22     		movs	r2, #156
 2255 0d56 5200     		lsls	r2, r2, #1
 2256 0d58 BA18     		adds	r2, r7, r2
 2257 0d5a D218     		adds	r2, r2, r3
 2258 0d5c 7B18     		adds	r3, r7, r1
 2259 0d5e 1B68     		ldr	r3, [r3]
 2260 0d60 D318     		adds	r3, r2, r3
 2261 0d62 0022     		movs	r2, #0
 2262 0d64 1A70     		strb	r2, [r3]
 2263              	.L86:
 434:main.c        ****                 while (index < 12) {
 2264              		.loc 1 434 0
 2265 0d66 F823     		movs	r3, #248
 2266 0d68 FB18     		adds	r3, r7, r3
 2267 0d6a 1B68     		ldr	r3, [r3]
 2268 0d6c 0B2B     		cmp	r3, #11
 2269 0d6e EADD     		ble	.L87
 437:main.c        ****                 }
 438:main.c        ****                 lcdGotoxy(10, 70);
 2270              		.loc 1 438 0
 2271 0d70 4621     		movs	r1, #70
 2272 0d72 0A20     		movs	r0, #10
 2273 0d74 FFF7FEFF 		bl	lcdGotoxy
 439:main.c        ****                 lcdPuts("Wybrano nazwe:\n");
 2274              		.loc 1 439 0
ARM GAS  C:\Users\embedded\AppData\Local\Temp\ccHk1fkP.s 			page 50


 2275 0d78 834B     		ldr	r3, .L107+8
 2276 0d7a 1800     		movs	r0, r3
 2277 0d7c FFF7FEFF 		bl	lcdPuts
 440:main.c        ****                 lcdGotoxy(10, 90);
 2278              		.loc 1 440 0
 2279 0d80 5A21     		movs	r1, #90
 2280 0d82 0A20     		movs	r0, #10
 2281 0d84 FFF7FEFF 		bl	lcdGotoxy
 441:main.c        ****                 lcdPuts(name);
 2282              		.loc 1 441 0
 2283 0d88 1023     		movs	r3, #16
 2284 0d8a FB18     		adds	r3, r7, r3
 2285 0d8c 1800     		movs	r0, r3
 2286 0d8e FFF7FEFF 		bl	lcdPuts
 442:main.c        **** 
 443:main.c        ****                 name[9] = howManyRounds;
 2287              		.loc 1 443 0
 2288 0d92 8823     		movs	r3, #136
 2289 0d94 5B00     		lsls	r3, r3, #1
 2290 0d96 FB18     		adds	r3, r7, r3
 2291 0d98 1B68     		ldr	r3, [r3]
 2292 0d9a 1B06     		lsls	r3, r3, #24
 2293 0d9c 1A0E     		lsrs	r2, r3, #24
 2294 0d9e 794B     		ldr	r3, .L107+4
 2295 0da0 9C21     		movs	r1, #156
 2296 0da2 4900     		lsls	r1, r1, #1
 2297 0da4 8C46     		mov	ip, r1
 2298 0da6 BC44     		add	ip, ip, r7
 2299 0da8 6344     		add	r3, r3, ip
 2300 0daa 5A72     		strb	r2, [r3, #9]
 444:main.c        ****                 int checkSum = 0;
 2301              		.loc 1 444 0
 2302 0dac 0023     		movs	r3, #0
 2303 0dae EC22     		movs	r2, #236
 2304 0db0 BA18     		adds	r2, r7, r2
 2305 0db2 1360     		str	r3, [r2]
 2306              	.LBB12:
 445:main.c        ****                 for (int i = 0; i < 10; i++) {
 2307              		.loc 1 445 0
 2308 0db4 0023     		movs	r3, #0
 2309 0db6 E822     		movs	r2, #232
 2310 0db8 BA18     		adds	r2, r7, r2
 2311 0dba 1360     		str	r3, [r2]
 2312 0dbc 15E0     		b	.L88
 2313              	.L89:
 446:main.c        ****                     checkSum += (int)name[i];
 2314              		.loc 1 446 0 discriminator 3
 2315 0dbe 714B     		ldr	r3, .L107+4
 2316 0dc0 9C22     		movs	r2, #156
 2317 0dc2 5200     		lsls	r2, r2, #1
 2318 0dc4 BA18     		adds	r2, r7, r2
 2319 0dc6 D218     		adds	r2, r2, r3
 2320 0dc8 E821     		movs	r1, #232
 2321 0dca 7B18     		adds	r3, r7, r1
 2322 0dcc 1B68     		ldr	r3, [r3]
 2323 0dce D318     		adds	r3, r2, r3
 2324 0dd0 1B78     		ldrb	r3, [r3]
ARM GAS  C:\Users\embedded\AppData\Local\Temp\ccHk1fkP.s 			page 51


 2325 0dd2 1A00     		movs	r2, r3
 2326 0dd4 EC20     		movs	r0, #236
 2327 0dd6 3B18     		adds	r3, r7, r0
 2328 0dd8 1B68     		ldr	r3, [r3]
 2329 0dda 9B18     		adds	r3, r3, r2
 2330 0ddc 3A18     		adds	r2, r7, r0
 2331 0dde 1360     		str	r3, [r2]
 445:main.c        ****                 for (int i = 0; i < 10; i++) {
 2332              		.loc 1 445 0 discriminator 3
 2333 0de0 7B18     		adds	r3, r7, r1
 2334 0de2 1B68     		ldr	r3, [r3]
 2335 0de4 0133     		adds	r3, r3, #1
 2336 0de6 7A18     		adds	r2, r7, r1
 2337 0de8 1360     		str	r3, [r2]
 2338              	.L88:
 445:main.c        ****                 for (int i = 0; i < 10; i++) {
 2339              		.loc 1 445 0 is_stmt 0 discriminator 1
 2340 0dea E823     		movs	r3, #232
 2341 0dec FB18     		adds	r3, r7, r3
 2342 0dee 1B68     		ldr	r3, [r3]
 2343 0df0 092B     		cmp	r3, #9
 2344 0df2 E4DD     		ble	.L89
 2345              	.LBE12:
 447:main.c        ****                 }
 448:main.c        ****                 checkSum %= 256;
 2346              		.loc 1 448 0 is_stmt 1
 2347 0df4 EC23     		movs	r3, #236
 2348 0df6 FB18     		adds	r3, r7, r3
 2349 0df8 1B68     		ldr	r3, [r3]
 2350 0dfa 644A     		ldr	r2, .L107+12
 2351 0dfc 1340     		ands	r3, r2
 2352 0dfe 03D5     		bpl	.L90
 2353 0e00 013B     		subs	r3, r3, #1
 2354 0e02 634A     		ldr	r2, .L107+16
 2355 0e04 1343     		orrs	r3, r2
 2356 0e06 0133     		adds	r3, r3, #1
 2357              	.L90:
 2358 0e08 EC21     		movs	r1, #236
 2359 0e0a 7A18     		adds	r2, r7, r1
 2360 0e0c 1360     		str	r3, [r2]
 449:main.c        ****                 checkSum ^= 1;
 2361              		.loc 1 449 0
 2362 0e0e 7B18     		adds	r3, r7, r1
 2363 0e10 1B68     		ldr	r3, [r3]
 2364 0e12 0122     		movs	r2, #1
 2365 0e14 5340     		eors	r3, r2
 2366 0e16 7A18     		adds	r2, r7, r1
 2367 0e18 1360     		str	r3, [r2]
 450:main.c        ****                 name[10] = checkSum;
 2368              		.loc 1 450 0
 2369 0e1a 7B18     		adds	r3, r7, r1
 2370 0e1c 1B68     		ldr	r3, [r3]
 2371 0e1e 1B06     		lsls	r3, r3, #24
 2372 0e20 1A0E     		lsrs	r2, r3, #24
 2373 0e22 584B     		ldr	r3, .L107+4
 2374 0e24 9C21     		movs	r1, #156
 2375 0e26 4900     		lsls	r1, r1, #1
ARM GAS  C:\Users\embedded\AppData\Local\Temp\ccHk1fkP.s 			page 52


 2376 0e28 8C46     		mov	ip, r1
 2377 0e2a BC44     		add	ip, ip, r7
 2378 0e2c 6344     		add	r3, r3, ip
 2379 0e2e 9A72     		strb	r2, [r3, #10]
 451:main.c        **** 
 452:main.c        ****                 name[11] = ~name[10];
 2380              		.loc 1 452 0
 2381 0e30 544B     		ldr	r3, .L107+4
 2382 0e32 9C22     		movs	r2, #156
 2383 0e34 5200     		lsls	r2, r2, #1
 2384 0e36 9446     		mov	ip, r2
 2385 0e38 BC44     		add	ip, ip, r7
 2386 0e3a 6344     		add	r3, r3, ip
 2387 0e3c 9B7A     		ldrb	r3, [r3, #10]
 2388 0e3e DB43     		mvns	r3, r3
 2389 0e40 1B06     		lsls	r3, r3, #24
 2390 0e42 1A0E     		lsrs	r2, r3, #24
 2391 0e44 4F4B     		ldr	r3, .L107+4
 2392 0e46 9C21     		movs	r1, #156
 2393 0e48 4900     		lsls	r1, r1, #1
 2394 0e4a 8C46     		mov	ip, r1
 2395 0e4c BC44     		add	ip, ip, r7
 2396 0e4e 6344     		add	r3, r3, ip
 2397 0e50 DA72     		strb	r2, [r3, #11]
 453:main.c        ****                 delayMs(1000);
 2398              		.loc 1 453 0
 2399 0e52 FA23     		movs	r3, #250
 2400 0e54 9B00     		lsls	r3, r3, #2
 2401 0e56 1800     		movs	r0, r3
 2402 0e58 FFF7FEFF 		bl	delayMs
 454:main.c        **** 
 455:main.c        ****                 while ((IOPIN & 0x00000100) != 0) {
 2403              		.loc 1 455 0
 2404 0e5c C046     		nop
 2405              	.L91:
 2406              		.loc 1 455 0 is_stmt 0 discriminator 1
 2407 0e5e 484B     		ldr	r3, .L107
 2408 0e60 1A68     		ldr	r2, [r3]
 2409 0e62 8023     		movs	r3, #128
 2410 0e64 5B00     		lsls	r3, r3, #1
 2411 0e66 1340     		ands	r3, r2
 2412 0e68 F9D1     		bne	.L91
 456:main.c        ****                 }  // Czekaj na zatwierdzenie nazwy
 457:main.c        **** 
 458:main.c        ****                 lcdClrscr();
 2413              		.loc 1 458 0 is_stmt 1
 2414 0e6a FFF7FEFF 		bl	lcdClrscr
 459:main.c        **** 
 460:main.c        ****                 tU8 testBuf[12];
 461:main.c        ****                 eepromPageRead(0x0000, testBuf, 12);
 2415              		.loc 1 461 0
 2416 0e6e 3B1D     		adds	r3, r7, #4
 2417 0e70 0C22     		movs	r2, #12
 2418 0e72 1900     		movs	r1, r3
 2419 0e74 0020     		movs	r0, #0
 2420 0e76 FFF7FEFF 		bl	eepromPageRead
 462:main.c        ****                 tU8 rounds = 0;
ARM GAS  C:\Users\embedded\AppData\Local\Temp\ccHk1fkP.s 			page 53


 2421              		.loc 1 462 0
 2422 0e7a E723     		movs	r3, #231
 2423 0e7c FB18     		adds	r3, r7, r3
 2424 0e7e 0022     		movs	r2, #0
 2425 0e80 1A70     		strb	r2, [r3]
 463:main.c        ****                 int checkSumCalculated = 0;  // liczona na pieszo
 2426              		.loc 1 463 0
 2427 0e82 0023     		movs	r3, #0
 2428 0e84 E022     		movs	r2, #224
 2429 0e86 BA18     		adds	r2, r7, r2
 2430 0e88 1360     		str	r3, [r2]
 2431              	.LBB13:
 464:main.c        ****                 for (int i = 0; i < 10; i++) {
 2432              		.loc 1 464 0
 2433 0e8a 0023     		movs	r3, #0
 2434 0e8c DC22     		movs	r2, #220
 2435 0e8e BA18     		adds	r2, r7, r2
 2436 0e90 1360     		str	r3, [r2]
 2437 0e92 15E0     		b	.L92
 2438              	.L93:
 465:main.c        ****                     checkSumCalculated += testBuf[i];
 2439              		.loc 1 465 0 discriminator 3
 2440 0e94 3F4B     		ldr	r3, .L107+20
 2441 0e96 9C22     		movs	r2, #156
 2442 0e98 5200     		lsls	r2, r2, #1
 2443 0e9a BA18     		adds	r2, r7, r2
 2444 0e9c D218     		adds	r2, r2, r3
 2445 0e9e DC21     		movs	r1, #220
 2446 0ea0 7B18     		adds	r3, r7, r1
 2447 0ea2 1B68     		ldr	r3, [r3]
 2448 0ea4 D318     		adds	r3, r2, r3
 2449 0ea6 1B78     		ldrb	r3, [r3]
 2450 0ea8 1A00     		movs	r2, r3
 2451 0eaa E020     		movs	r0, #224
 2452 0eac 3B18     		adds	r3, r7, r0
 2453 0eae 1B68     		ldr	r3, [r3]
 2454 0eb0 9B18     		adds	r3, r3, r2
 2455 0eb2 3A18     		adds	r2, r7, r0
 2456 0eb4 1360     		str	r3, [r2]
 464:main.c        ****                 for (int i = 0; i < 10; i++) {
 2457              		.loc 1 464 0 discriminator 3
 2458 0eb6 7B18     		adds	r3, r7, r1
 2459 0eb8 1B68     		ldr	r3, [r3]
 2460 0eba 0133     		adds	r3, r3, #1
 2461 0ebc 7A18     		adds	r2, r7, r1
 2462 0ebe 1360     		str	r3, [r2]
 2463              	.L92:
 464:main.c        ****                 for (int i = 0; i < 10; i++) {
 2464              		.loc 1 464 0 is_stmt 0 discriminator 1
 2465 0ec0 DC23     		movs	r3, #220
 2466 0ec2 FB18     		adds	r3, r7, r3
 2467 0ec4 1B68     		ldr	r3, [r3]
 2468 0ec6 092B     		cmp	r3, #9
 2469 0ec8 E4DD     		ble	.L93
 2470              	.LBE13:
 466:main.c        ****                 }
 467:main.c        ****                 checkSumCalculated %= 256;
ARM GAS  C:\Users\embedded\AppData\Local\Temp\ccHk1fkP.s 			page 54


 2471              		.loc 1 467 0 is_stmt 1
 2472 0eca E023     		movs	r3, #224
 2473 0ecc FB18     		adds	r3, r7, r3
 2474 0ece 1B68     		ldr	r3, [r3]
 2475 0ed0 2E4A     		ldr	r2, .L107+12
 2476 0ed2 1340     		ands	r3, r2
 2477 0ed4 03D5     		bpl	.L94
 2478 0ed6 013B     		subs	r3, r3, #1
 2479 0ed8 2D4A     		ldr	r2, .L107+16
 2480 0eda 1343     		orrs	r3, r2
 2481 0edc 0133     		adds	r3, r3, #1
 2482              	.L94:
 2483 0ede E021     		movs	r1, #224
 2484 0ee0 7A18     		adds	r2, r7, r1
 2485 0ee2 1360     		str	r3, [r2]
 468:main.c        ****                 checkSumCalculated ^= 1;
 2486              		.loc 1 468 0
 2487 0ee4 7B18     		adds	r3, r7, r1
 2488 0ee6 1B68     		ldr	r3, [r3]
 2489 0ee8 0122     		movs	r2, #1
 2490 0eea 5340     		eors	r3, r2
 2491 0eec 7A18     		adds	r2, r7, r1
 2492 0eee 1360     		str	r3, [r2]
 469:main.c        ****                 if (((testBuf[10] & testBuf[11]) == 0) &&
 2493              		.loc 1 469 0
 2494 0ef0 284B     		ldr	r3, .L107+20
 2495 0ef2 9C22     		movs	r2, #156
 2496 0ef4 5200     		lsls	r2, r2, #1
 2497 0ef6 9446     		mov	ip, r2
 2498 0ef8 BC44     		add	ip, ip, r7
 2499 0efa 6344     		add	r3, r3, ip
 2500 0efc 9B7A     		ldrb	r3, [r3, #10]
 2501 0efe 254A     		ldr	r2, .L107+20
 2502 0f00 9C21     		movs	r1, #156
 2503 0f02 4900     		lsls	r1, r1, #1
 2504 0f04 8C46     		mov	ip, r1
 2505 0f06 BC44     		add	ip, ip, r7
 2506 0f08 6244     		add	r2, r2, ip
 2507 0f0a D27A     		ldrb	r2, [r2, #11]
 2508 0f0c 1340     		ands	r3, r2
 2509 0f0e 1B06     		lsls	r3, r3, #24
 2510 0f10 1B0E     		lsrs	r3, r3, #24
 2511 0f12 16D1     		bne	.L95
 470:main.c        ****                     ((int)testBuf[10] == checkSumCalculated)) {
 2512              		.loc 1 470 0 discriminator 1
 2513 0f14 1F4B     		ldr	r3, .L107+20
 2514 0f16 9C22     		movs	r2, #156
 2515 0f18 5200     		lsls	r2, r2, #1
 2516 0f1a 9446     		mov	ip, r2
 2517 0f1c BC44     		add	ip, ip, r7
 2518 0f1e 6344     		add	r3, r3, ip
 2519 0f20 9B7A     		ldrb	r3, [r3, #10]
 2520 0f22 1A00     		movs	r2, r3
 469:main.c        ****                 if (((testBuf[10] & testBuf[11]) == 0) &&
 2521              		.loc 1 469 0 discriminator 1
 2522 0f24 E023     		movs	r3, #224
 2523 0f26 FB18     		adds	r3, r7, r3
ARM GAS  C:\Users\embedded\AppData\Local\Temp\ccHk1fkP.s 			page 55


 2524 0f28 1B68     		ldr	r3, [r3]
 2525 0f2a 9342     		cmp	r3, r2
 2526 0f2c 09D1     		bne	.L95
 471:main.c        ****                     rounds = testBuf[9];
 2527              		.loc 1 471 0
 2528 0f2e E723     		movs	r3, #231
 2529 0f30 FB18     		adds	r3, r7, r3
 2530 0f32 184A     		ldr	r2, .L107+20
 2531 0f34 9C21     		movs	r1, #156
 2532 0f36 4900     		lsls	r1, r1, #1
 2533 0f38 8C46     		mov	ip, r1
 2534 0f3a BC44     		add	ip, ip, r7
 2535 0f3c 6244     		add	r2, r2, ip
 2536 0f3e 527A     		ldrb	r2, [r2, #9]
 2537 0f40 1A70     		strb	r2, [r3]
 2538              	.L95:
 472:main.c        ****                 }
 473:main.c        **** 
 474:main.c        ****                 if (rounds <= howManyRounds) {  // jezeli stare jest mniejsze lub rowne
 2539              		.loc 1 474 0
 2540 0f42 E723     		movs	r3, #231
 2541 0f44 FB18     		adds	r3, r7, r3
 2542 0f46 1B78     		ldrb	r3, [r3]
 2543 0f48 8822     		movs	r2, #136
 2544 0f4a 5200     		lsls	r2, r2, #1
 2545 0f4c BA18     		adds	r2, r7, r2
 2546 0f4e 1268     		ldr	r2, [r2]
 2547 0f50 9A42     		cmp	r2, r3
 2548 0f52 29DB     		blt	.L96
 2549              	.LBB14:
 475:main.c        ****                     // to podmienia
 476:main.c        ****                     tS8 errorCode;
 477:main.c        ****                     errorCode = eepromWrite(0x0000, (tU8*)name, sizeof(name));
 2550              		.loc 1 477 0
 2551 0f54 D325     		movs	r5, #211
 2552 0f56 7C19     		adds	r4, r7, r5
 2553 0f58 1023     		movs	r3, #16
 2554 0f5a FB18     		adds	r3, r7, r3
 2555 0f5c 0C22     		movs	r2, #12
 2556 0f5e 1900     		movs	r1, r3
 2557 0f60 0020     		movs	r0, #0
 2558 0f62 FFF7FEFF 		bl	eepromWrite
 2559 0f66 0300     		movs	r3, r0
 2560 0f68 2370     		strb	r3, [r4]
 478:main.c        ****                     if (errorCode == I2C_CODE_OK) {
 2561              		.loc 1 478 0
 2562 0f6a 7B19     		adds	r3, r7, r5
 2563 0f6c 1B78     		ldrb	r3, [r3]
 2564 0f6e 1B06     		lsls	r3, r3, #24
 2565 0f70 1B16     		asrs	r3, r3, #24
 2566 0f72 012B     		cmp	r3, #1
 2567 0f74 12D1     		bne	.L97
 479:main.c        ****                         lcdPuts("OK");
 2568              		.loc 1 479 0
 2569 0f76 084B     		ldr	r3, .L107+24
 2570 0f78 1800     		movs	r0, r3
 2571 0f7a FFF7FEFF 		bl	lcdPuts
ARM GAS  C:\Users\embedded\AppData\Local\Temp\ccHk1fkP.s 			page 56


 2572 0f7e 11E0     		b	.L98
 2573              	.L108:
 2574              		.align	2
 2575              	.L107:
 2576 0f80 008002E0 		.word	-536707072
 2577 0f84 D8FEFFFF 		.word	-296
 2578 0f88 38010000 		.word	.LC48
 2579 0f8c FF000080 		.word	-2147483393
 2580 0f90 00FFFFFF 		.word	-256
 2581 0f94 CCFEFFFF 		.word	-308
 2582 0f98 48010000 		.word	.LC50
 2583              	.L97:
 480:main.c        ****                     } else {
 481:main.c        ****                         lcdPuts("Blad");
 2584              		.loc 1 481 0
 2585 0f9c 1F4B     		ldr	r3, .L109
 2586 0f9e 1800     		movs	r0, r3
 2587 0fa0 FFF7FEFF 		bl	lcdPuts
 2588              	.L98:
 482:main.c        ****                     }
 483:main.c        ****                     eepromPoll();
 2589              		.loc 1 483 0
 2590 0fa4 FFF7FEFF 		bl	eepromPoll
 2591              	.L96:
 2592              	.LBE14:
 484:main.c        ****                 }
 485:main.c        ****                 delayMs(100);
 2593              		.loc 1 485 0
 2594 0fa8 6420     		movs	r0, #100
 2595 0faa FFF7FEFF 		bl	delayMs
 486:main.c        ****                 lcdClrscr();
 2596              		.loc 1 486 0
 2597 0fae FFF7FEFF 		bl	lcdClrscr
 487:main.c        ****                 lcdGotoxy(10, 50);
 2598              		.loc 1 487 0
 2599 0fb2 3221     		movs	r1, #50
 2600 0fb4 0A20     		movs	r0, #10
 2601 0fb6 FFF7FEFF 		bl	lcdGotoxy
 488:main.c        ****                 lcdPuts("POWROT DO MENU");
 2602              		.loc 1 488 0
 2603 0fba 194B     		ldr	r3, .L109+4
 2604 0fbc 1800     		movs	r0, r3
 2605 0fbe FFF7FEFF 		bl	lcdPuts
 489:main.c        ****                 while ((IOPIN & 0x00000100) != 0) {
 2606              		.loc 1 489 0
 2607 0fc2 C046     		nop
 2608              	.L99:
 2609              		.loc 1 489 0 is_stmt 0 discriminator 1
 2610 0fc4 174B     		ldr	r3, .L109+8
 2611 0fc6 1A68     		ldr	r2, [r3]
 2612 0fc8 8023     		movs	r3, #128
 2613 0fca 5B00     		lsls	r3, r3, #1
 2614 0fcc 1340     		ands	r3, r2
 2615 0fce F9D1     		bne	.L99
 490:main.c        ****                 }
 491:main.c        ****                 exit = FALSE;
 2616              		.loc 1 491 0 is_stmt 1
ARM GAS  C:\Users\embedded\AppData\Local\Temp\ccHk1fkP.s 			page 57


 2617 0fd0 2823     		movs	r3, #40
 2618 0fd2 FF33     		adds	r3, r3, #255
 2619 0fd4 FB18     		adds	r3, r7, r3
 2620 0fd6 0022     		movs	r2, #0
 2621 0fd8 1A70     		strb	r2, [r3]
 492:main.c        ****                 delayMs(100);
 2622              		.loc 1 492 0
 2623 0fda 6420     		movs	r0, #100
 2624 0fdc FFF7FEFF 		bl	delayMs
 493:main.c        ****                 changeLEDs(8);
 2625              		.loc 1 493 0
 2626 0fe0 0820     		movs	r0, #8
 2627 0fe2 FFF7FEFF 		bl	changeLEDs
 2628              	.L58:
 2629              	.LBE8:
 290:main.c        ****                 int number;
 2630              		.loc 1 290 0
 2631 0fe6 0F4B     		ldr	r3, .L109+8
 2632 0fe8 1A68     		ldr	r2, [r3]
 2633 0fea 8023     		movs	r3, #128
 2634 0fec 5B00     		lsls	r3, r3, #1
 2635 0fee 1340     		ands	r3, r2
 2636 0ff0 07D0     		beq	.L100
 290:main.c        ****                 int number;
 2637              		.loc 1 290 0 is_stmt 0 discriminator 1
 2638 0ff2 2823     		movs	r3, #40
 2639 0ff4 FF33     		adds	r3, r3, #255
 2640 0ff6 FB18     		adds	r3, r7, r3
 2641 0ff8 1B78     		ldrb	r3, [r3]
 2642 0ffa 002B     		cmp	r3, #0
 2643 0ffc 01D0     		beq	.LCB2301
 2644 0ffe FFF7B0FB 		bl	.L101	@far jump
 2645              	.LCB2301:
 2646              	.L100:
 494:main.c        ****             }
 495:main.c        ****             choice = 0;
 2647              		.loc 1 495 0 is_stmt 1
 2648 1002 0023     		movs	r3, #0
 2649 1004 9A22     		movs	r2, #154
 2650 1006 5200     		lsls	r2, r2, #1
 2651 1008 BA18     		adds	r2, r7, r2
 2652 100a 1360     		str	r3, [r2]
 2653              	.L56:
 2654              	.LBE7:
 496:main.c        ****         }
 497:main.c        ****         delayMs(1000);
 2655              		.loc 1 497 0
 2656 100c FA23     		movs	r3, #250
 2657 100e 9B00     		lsls	r3, r3, #2
 2658 1010 1800     		movs	r0, r3
 2659 1012 FFF7FEFF 		bl	delayMs
 223:main.c        ****         while ((IOPIN & 0x00000100) != 0) {
 2660              		.loc 1 223 0
 2661 1016 FFF751FA 		bl	.L102	@ far jump
 2662              	.L110:
 2663 101a C046     		.align	2
 2664              	.L109:
ARM GAS  C:\Users\embedded\AppData\Local\Temp\ccHk1fkP.s 			page 58


 2665 101c 4C010000 		.word	.LC52
 2666 1020 54010000 		.word	.LC54
 2667 1024 008002E0 		.word	-536707072
 2668              		.cfi_endproc
 2669              	.LFE10:
 2670              		.size	main, .-main
 2671              	.Letext0:
 2672              		.file 2 "c:\\embedded\\tools\\arm-none-eabi\\include\\sys\\lock.h"
 2673              		.file 3 "c:\\embedded\\tools\\arm-none-eabi\\include\\sys\\_types.h"
 2674              		.file 4 "c:\\embedded\\tools\\lib\\gcc\\arm-none-eabi\\7.3.1\\include\\stddef.h"
 2675              		.file 5 "c:\\embedded\\tools\\arm-none-eabi\\include\\sys\\reent.h"
 2676              		.file 6 "general.h"
 2677              		.file 7 "irq/irq_handler.h"