ARM GAS  C:\Users\embedded\AppData\Local\Temp\ccHk1fkP.s 			page 1


   1              		.cpu arm7tdmi
   2              		.eabi_attribute 20, 1
   3              		.eabi_attribute 21, 1
   4              		.eabi_attribute 23, 3
   5              		.eabi_attribute 24, 1
   6              		.eabi_attribute 25, 1
   7              		.eabi_attribute 26, 1
   8              		.eabi_attribute 30, 6
   9              		.eabi_attribute 34, 0
  10              		.eabi_attribute 18, 4
  11              		.file	"main.c"
  12              		.text
  13              	.Ltext0:
  14              		.cfi_sections	.debug_frame
  15              		.comm	timeTwo,4,4
  16              		.align	1
  17              		.global	sdelay
  18              		.syntax unified
  19              		.code	16
  20              		.thumb_func
  21              		.fpu softvfp
  22              		.type	sdelay, %function
  23              	sdelay:
  24              	.LFB3:
  25              		.file 1 "main.c"
   1:main.c        **** 
   2:main.c        **** /*************************************************************************************
   3:main.c        ****  *
   4:main.c        ****  * Gra "Refleks"
   5:main.c        ****  *
   6:main.c        ****  * Rozgrywka polega na skierowanie joy-stick'a w odpowiednim kierunku
   7:main.c        ****  *(lewo/prawo) w zaleznosci od uslyszanego dzwieku. Gra przewidziana jest na 5
   8:main.c        ****  *rund, z czego czas na wykonanie ruchu przez gracza stopniowo sie zmniejsza.
   9:main.c        ****  * Wynik gracza stanowi liczba rund, w ktorych udalo mu sie wykonac prawidlowy
  10:main.c        ****  *ruch przed uplywem ustalonego czasu. Po zakonczeniu gry nalezy wprowadzic
  11:main.c        ****  *nazwe gracza. W pamieci urzadzenia zapisywana jest informacja o najlepszym
  12:main.c        ****  *uzyskanym wyniku.
  13:main.c        ****  *
  14:main.c        ****  * @Authors: Agata Granosik, Hubert Krolikowski, Jakub Czyzewski
  15:main.c        ****  ******************************************************************************/
  16:main.c        **** 
  17:main.c        **** #include <config.h>
  18:main.c        **** #include <consol.h>
  19:main.c        **** #include <lpc2xxx.h>
  20:main.c        **** #include <printf_P.h>
  21:main.c        **** #include <printf_init.h>
  22:main.c        **** #include <stdio.h>
  23:main.c        **** 
  24:main.c        **** #include "Common_Def.h"
  25:main.c        **** #include "VIC.h"
  26:main.c        **** #include "pca9532.h"
  27:main.c        **** #include "eeprom.h"
  28:main.c        **** #include "general.h"
  29:main.c        **** #include "i2c.h"
  30:main.c        **** #include "irq/irq_handler.h"
  31:main.c        **** #include "lcd.h"
  32:main.c        **** #include "lcd_hw.h"
ARM GAS  C:\Users\embedded\AppData\Local\Temp\ccHk1fkP.s 			page 2


  33:main.c        **** #include "timer.h"
  34:main.c        **** 
  35:main.c        **** /**
  36:main.c        ****  * @brief Opoznienie wyrazone w liczbie sekund
  37:main.c        ****  * @param seconds:
  38:main.c        ****  *      liczba sekund opoznienia
  39:main.c        ****  * @returns: Nic
  40:main.c        ****  * @attention:
  41:main.c        ****  *      przeprogramowany Timer #0
  42:main.c        ****  */
  43:main.c        **** void sdelay(tU32 seconds) {
  26              		.loc 1 43 0
  27              		.cfi_startproc
  28              		@ Function supports interworking.
  29              		@ args = 0, pretend = 0, frame = 8
  30              		@ frame_needed = 1, uses_anonymous_args = 0
  31 0000 80B5     		push	{r7, lr}
  32              	.LCFI0:
  33              		.cfi_def_cfa_offset 8
  34              		.cfi_offset 7, -8
  35              		.cfi_offset 14, -4
  36 0002 82B0     		sub	sp, sp, #8
  37              	.LCFI1:
  38              		.cfi_def_cfa_offset 16
  39 0004 00AF     		add	r7, sp, #0
  40              	.LCFI2:
  41              		.cfi_def_cfa_register 7
  42 0006 7860     		str	r0, [r7, #4]
  44:main.c        ****     T0TCR = TIMER_RESET;          // Zatrzymaj i zresetuj
  43              		.loc 1 44 0
  44 0008 0F4B     		ldr	r3, .L3
  45 000a 0222     		movs	r2, #2
  46 000c 1A60     		str	r2, [r3]
  45:main.c        ****     T0PR = PERIPHERAL_CLOCK - 1;  // jednostka w preskalerze
  47              		.loc 1 45 0
  48 000e 0F4B     		ldr	r3, .L3+4
  49 0010 0F4A     		ldr	r2, .L3+8
  50 0012 1A60     		str	r2, [r3]
  46:main.c        ****     T0MR0 = seconds;
  51              		.loc 1 46 0
  52 0014 0F4B     		ldr	r3, .L3+12
  53 0016 7A68     		ldr	r2, [r7, #4]
  54 0018 1A60     		str	r2, [r3]
  47:main.c        ****     T0IR = TIMER_ALL_INT;  // Resetowanie flag przerwan
  55              		.loc 1 47 0
  56 001a 0F4B     		ldr	r3, .L3+16
  57 001c FF22     		movs	r2, #255
  58 001e 1A60     		str	r2, [r3]
  48:main.c        ****     T0MCR = MR0_S;         // Licz do wartosci w MR0 i zatrzymaj sie
  59              		.loc 1 48 0
  60 0020 0E4B     		ldr	r3, .L3+20
  61 0022 0422     		movs	r2, #4
  62 0024 1A60     		str	r2, [r3]
  49:main.c        ****     T0TCR = TIMER_RUN;     // Uruchom timer
  63              		.loc 1 49 0
  64 0026 084B     		ldr	r3, .L3
  65 0028 0122     		movs	r2, #1
ARM GAS  C:\Users\embedded\AppData\Local\Temp\ccHk1fkP.s 			page 3


  66 002a 1A60     		str	r2, [r3]
  50:main.c        **** 
  51:main.c        ****     // sprawdza czy timer dziala
  52:main.c        ****     // nie ma wpisanego ogranicznika liczby petli, ze wzgledu na charakter
  53:main.c        ****     // procedury
  54:main.c        ****     while ((T0TCR & TIMER_RUN) == 1) {
  67              		.loc 1 54 0
  68 002c C046     		nop
  69              	.L2:
  70              		.loc 1 54 0 is_stmt 0 discriminator 1
  71 002e 064B     		ldr	r3, .L3
  72 0030 1B68     		ldr	r3, [r3]
  73 0032 0122     		movs	r2, #1
  74 0034 1340     		ands	r3, r2
  75 0036 012B     		cmp	r3, #1
  76 0038 F9D0     		beq	.L2
  55:main.c        ****     }
  56:main.c        **** }
  77              		.loc 1 56 0 is_stmt 1
  78 003a C046     		nop
  79 003c BD46     		mov	sp, r7
  80 003e 02B0     		add	sp, sp, #8
  81              		@ sp needed
  82 0040 80BC     		pop	{r7}
  83 0042 01BC     		pop	{r0}
  84 0044 0047     		bx	r0
  85              	.L4:
  86 0046 C046     		.align	2
  87              	.L3:
  88 0048 044000E0 		.word	-536854524
  89 004c 0C4000E0 		.word	-536854516
  90 0050 FFFF8303 		.word	58982399
  91 0054 184000E0 		.word	-536854504
  92 0058 004000E0 		.word	-536854528
  93 005c 144000E0 		.word	-536854508
  94              		.cfi_endproc
  95              	.LFE3:
  96              		.size	sdelay, .-sdelay
  97              		.align	1
  98              		.global	delayMs
  99              		.syntax unified
 100              		.code	16
 101              		.thumb_func
 102              		.fpu softvfp
 103              		.type	delayMs, %function
 104              	delayMs:
 105              	.LFB4:
  57:main.c        **** 
  58:main.c        **** /**
  59:main.c        ****  * @brief: Opoznienie wyrazone w liczbie milisekund
  60:main.c        ****  * @param seconds:
  61:main.c        ****  *      liczba milisekund opoznienia
  62:main.c        ****  * @Returns: Nic
  63:main.c        ****  * @attention:
  64:main.c        ****  *    przeprogramowany Timer #1
  65:main.c        ****  */
  66:main.c        **** void delayMs(tU16 delayInMs) {
ARM GAS  C:\Users\embedded\AppData\Local\Temp\ccHk1fkP.s 			page 4


 106              		.loc 1 66 0
 107              		.cfi_startproc
 108              		@ Function supports interworking.
 109              		@ args = 0, pretend = 0, frame = 8
 110              		@ frame_needed = 1, uses_anonymous_args = 0
 111 0060 80B5     		push	{r7, lr}
 112              	.LCFI3:
 113              		.cfi_def_cfa_offset 8
 114              		.cfi_offset 7, -8
 115              		.cfi_offset 14, -4
 116 0062 82B0     		sub	sp, sp, #8
 117              	.LCFI4:
 118              		.cfi_def_cfa_offset 16
 119 0064 00AF     		add	r7, sp, #0
 120              	.LCFI5:
 121              		.cfi_def_cfa_register 7
 122 0066 0200     		movs	r2, r0
 123 0068 BB1D     		adds	r3, r7, #6
 124 006a 1A80     		strh	r2, [r3]
  67:main.c        ****     T1TCR = 0x02;
 125              		.loc 1 67 0
 126 006c 114B     		ldr	r3, .L7
 127 006e 0222     		movs	r2, #2
 128 0070 1A60     		str	r2, [r3]
  68:main.c        ****     T1PR = 0x00;
 129              		.loc 1 68 0
 130 0072 114B     		ldr	r3, .L7+4
 131 0074 0022     		movs	r2, #0
 132 0076 1A60     		str	r2, [r3]
  69:main.c        ****     T1MR0 = delayInMs * (CORE_FREQ / PBSD / 1000);
 133              		.loc 1 69 0
 134 0078 BB1D     		adds	r3, r7, #6
 135 007a 1888     		ldrh	r0, [r3]
 136 007c 0F4B     		ldr	r3, .L7+8
 137 007e 1049     		ldr	r1, .L7+12
 138 0080 0200     		movs	r2, r0
 139 0082 4A43     		muls	r2, r1
 140 0084 1A60     		str	r2, [r3]
  70:main.c        ****     T1IR = 0xff;
 141              		.loc 1 70 0
 142 0086 0F4B     		ldr	r3, .L7+16
 143 0088 FF22     		movs	r2, #255
 144 008a 1A60     		str	r2, [r3]
  71:main.c        ****     T1MCR = 0x04;
 145              		.loc 1 71 0
 146 008c 0E4B     		ldr	r3, .L7+20
 147 008e 0422     		movs	r2, #4
 148 0090 1A60     		str	r2, [r3]
  72:main.c        ****     T1TCR = 0x01;
 149              		.loc 1 72 0
 150 0092 084B     		ldr	r3, .L7
 151 0094 0122     		movs	r2, #1
 152 0096 1A60     		str	r2, [r3]
  73:main.c        **** 
  74:main.c        ****     while ((T1TCR & 0x01) == 1) {
 153              		.loc 1 74 0
 154 0098 C046     		nop
ARM GAS  C:\Users\embedded\AppData\Local\Temp\ccHk1fkP.s 			page 5


 155              	.L6:
 156              		.loc 1 74 0 is_stmt 0 discriminator 1
 157 009a 064B     		ldr	r3, .L7
 158 009c 1B68     		ldr	r3, [r3]
 159 009e 0122     		movs	r2, #1
 160 00a0 1340     		ands	r3, r2
 161 00a2 012B     		cmp	r3, #1
 162 00a4 F9D0     		beq	.L6
  75:main.c        ****     }
  76:main.c        **** }
 163              		.loc 1 76 0 is_stmt 1
 164 00a6 C046     		nop
 165 00a8 BD46     		mov	sp, r7
 166 00aa 02B0     		add	sp, sp, #8
 167              		@ sp needed
 168 00ac 80BC     		pop	{r7}
 169 00ae 01BC     		pop	{r0}
 170 00b0 0047     		bx	r0
 171              	.L8:
 172 00b2 C046     		.align	2
 173              	.L7:
 174 00b4 048000E0 		.word	-536838140
 175 00b8 0C8000E0 		.word	-536838132
 176 00bc 188000E0 		.word	-536838120
 177 00c0 66E60000 		.word	58982
 178 00c4 008000E0 		.word	-536838144
 179 00c8 148000E0 		.word	-536838124
 180              		.cfi_endproc
 181              	.LFE4:
 182              		.size	delayMs, .-delayMs
 183              		.align	1
 184              		.global	delayUs
 185              		.syntax unified
 186              		.code	16
 187              		.thumb_func
 188              		.fpu softvfp
 189              		.type	delayUs, %function
 190              	delayUs:
 191              	.LFB5:
  77:main.c        **** 
  78:main.c        **** /**
  79:main.c        ****  * @brief: Opoznienie wyrazone w liczbie mikrosekund
  80:main.c        ****  * @param seconds:
  81:main.c        ****  *      liczba mikrosekund opoznienia
  82:main.c        ****  * @returns: Nic
  83:main.c        ****  * @attention:
  84:main.c        ****  *    przeprogramowany Timer #1
  85:main.c        ****  */
  86:main.c        **** void delayUs(tU16 delayInMs) {
 192              		.loc 1 86 0
 193              		.cfi_startproc
 194              		@ Function supports interworking.
 195              		@ args = 0, pretend = 0, frame = 8
 196              		@ frame_needed = 1, uses_anonymous_args = 0
 197 00cc 80B5     		push	{r7, lr}
 198              	.LCFI6:
 199              		.cfi_def_cfa_offset 8
ARM GAS  C:\Users\embedded\AppData\Local\Temp\ccHk1fkP.s 			page 6


 200              		.cfi_offset 7, -8
 201              		.cfi_offset 14, -4
 202 00ce 82B0     		sub	sp, sp, #8
 203              	.LCFI7:
 204              		.cfi_def_cfa_offset 16
 205 00d0 00AF     		add	r7, sp, #0
 206              	.LCFI8:
 207              		.cfi_def_cfa_register 7
 208 00d2 0200     		movs	r2, r0
 209 00d4 BB1D     		adds	r3, r7, #6
 210 00d6 1A80     		strh	r2, [r3]
  87:main.c        ****     T1TCR = 0x02;
 211              		.loc 1 87 0
 212 00d8 114B     		ldr	r3, .L11
 213 00da 0222     		movs	r2, #2
 214 00dc 1A60     		str	r2, [r3]
  88:main.c        ****     T1PR = 0x00;
 215              		.loc 1 88 0
 216 00de 114B     		ldr	r3, .L11+4
 217 00e0 0022     		movs	r2, #0
 218 00e2 1A60     		str	r2, [r3]
  89:main.c        ****     T1MR0 = delayInMs * (CORE_FREQ / PBSD / 1000000);
 219              		.loc 1 89 0
 220 00e4 BB1D     		adds	r3, r7, #6
 221 00e6 1888     		ldrh	r0, [r3]
 222 00e8 0F4B     		ldr	r3, .L11+8
 223 00ea 3A21     		movs	r1, #58
 224 00ec 0200     		movs	r2, r0
 225 00ee 4A43     		muls	r2, r1
 226 00f0 1A60     		str	r2, [r3]
  90:main.c        ****     T1IR = 0xff;
 227              		.loc 1 90 0
 228 00f2 0E4B     		ldr	r3, .L11+12
 229 00f4 FF22     		movs	r2, #255
 230 00f6 1A60     		str	r2, [r3]
  91:main.c        ****     T1MCR = 0x04;
 231              		.loc 1 91 0
 232 00f8 0D4B     		ldr	r3, .L11+16
 233 00fa 0422     		movs	r2, #4
 234 00fc 1A60     		str	r2, [r3]
  92:main.c        ****     T1TCR = 0x01;
 235              		.loc 1 92 0
 236 00fe 084B     		ldr	r3, .L11
 237 0100 0122     		movs	r2, #1
 238 0102 1A60     		str	r2, [r3]
  93:main.c        **** 
  94:main.c        ****     while ((T1TCR & 0x01) == 1) {
 239              		.loc 1 94 0
 240 0104 C046     		nop
 241              	.L10:
 242              		.loc 1 94 0 is_stmt 0 discriminator 1
 243 0106 064B     		ldr	r3, .L11
 244 0108 1B68     		ldr	r3, [r3]
 245 010a 0122     		movs	r2, #1
 246 010c 1340     		ands	r3, r2
 247 010e 012B     		cmp	r3, #1
 248 0110 F9D0     		beq	.L10
ARM GAS  C:\Users\embedded\AppData\Local\Temp\ccHk1fkP.s 			page 7


  95:main.c        ****     }
  96:main.c        **** }
 249              		.loc 1 96 0 is_stmt 1
 250 0112 C046     		nop
 251 0114 BD46     		mov	sp, r7
 252 0116 02B0     		add	sp, sp, #8
 253              		@ sp needed
 254 0118 80BC     		pop	{r7}
 255 011a 01BC     		pop	{r0}
 256 011c 0047     		bx	r0
 257              	.L12:
 258 011e C046     		.align	2
 259              	.L11:
 260 0120 048000E0 		.word	-536838140
 261 0124 0C8000E0 		.word	-536838132
 262 0128 188000E0 		.word	-536838120
 263 012c 008000E0 		.word	-536838144
 264 0130 148000E0 		.word	-536838124
 265              		.cfi_endproc
 266              	.LFE5:
 267              		.size	delayUs, .-delayUs
 268              		.align	1
 269              		.global	delayPs
 270              		.syntax unified
 271              		.code	16
 272              		.thumb_func
 273              		.fpu softvfp
 274              		.type	delayPs, %function
 275              	delayPs:
 276              	.LFB6:
  97:main.c        **** 
  98:main.c        **** /**
  99:main.c        ****  * @brief: Opoznienie wyrazone w liczbie pikosekund
 100:main.c        ****  * @param seconds:
 101:main.c        ****  *      liczba pikosekund opoznienia
 102:main.c        ****  * @returns: Nic
 103:main.c        ****  * @attention:
 104:main.c        ****  *    przeprogramowany Timer #1
 105:main.c        ****  */
 106:main.c        **** void delayPs(tU16 delayInMs) {
 277              		.loc 1 106 0
 278              		.cfi_startproc
 279              		@ Function supports interworking.
 280              		@ args = 0, pretend = 0, frame = 8
 281              		@ frame_needed = 1, uses_anonymous_args = 0
 282 0134 80B5     		push	{r7, lr}
 283              	.LCFI9:
 284              		.cfi_def_cfa_offset 8
 285              		.cfi_offset 7, -8
 286              		.cfi_offset 14, -4
 287 0136 82B0     		sub	sp, sp, #8
 288              	.LCFI10:
 289              		.cfi_def_cfa_offset 16
 290 0138 00AF     		add	r7, sp, #0
 291              	.LCFI11:
 292              		.cfi_def_cfa_register 7
 293 013a 0200     		movs	r2, r0
ARM GAS  C:\Users\embedded\AppData\Local\Temp\ccHk1fkP.s 			page 8


 294 013c BB1D     		adds	r3, r7, #6
 295 013e 1A80     		strh	r2, [r3]
 107:main.c        ****     T1TCR = 0x02;
 296              		.loc 1 107 0
 297 0140 0F4B     		ldr	r3, .L15
 298 0142 0222     		movs	r2, #2
 299 0144 1A60     		str	r2, [r3]
 108:main.c        ****     T1PR = 0x00;
 300              		.loc 1 108 0
 301 0146 0F4B     		ldr	r3, .L15+4
 302 0148 0022     		movs	r2, #0
 303 014a 1A60     		str	r2, [r3]
 109:main.c        ****     T1MR0 = delayInMs * (CORE_FREQ / PBSD / 1000000000);
 304              		.loc 1 109 0
 305 014c 0E4B     		ldr	r3, .L15+8
 306 014e 0022     		movs	r2, #0
 307 0150 1A60     		str	r2, [r3]
 110:main.c        ****     T1IR = 0xff;
 308              		.loc 1 110 0
 309 0152 0E4B     		ldr	r3, .L15+12
 310 0154 FF22     		movs	r2, #255
 311 0156 1A60     		str	r2, [r3]
 111:main.c        ****     T1MCR = 0x04;
 312              		.loc 1 111 0
 313 0158 0D4B     		ldr	r3, .L15+16
 314 015a 0422     		movs	r2, #4
 315 015c 1A60     		str	r2, [r3]
 112:main.c        ****     T1TCR = 0x01;
 316              		.loc 1 112 0
 317 015e 084B     		ldr	r3, .L15
 318 0160 0122     		movs	r2, #1
 319 0162 1A60     		str	r2, [r3]
 113:main.c        **** 
 114:main.c        ****     while ((T1TCR & 0x01) == 1) {
 320              		.loc 1 114 0
 321 0164 C046     		nop
 322              	.L14:
 323              		.loc 1 114 0 is_stmt 0 discriminator 1
 324 0166 064B     		ldr	r3, .L15
 325 0168 1B68     		ldr	r3, [r3]
 326 016a 0122     		movs	r2, #1
 327 016c 1340     		ands	r3, r2
 328 016e 012B     		cmp	r3, #1
 329 0170 F9D0     		beq	.L14
 115:main.c        ****     }
 116:main.c        **** }
 330              		.loc 1 116 0 is_stmt 1
 331 0172 C046     		nop
 332 0174 BD46     		mov	sp, r7
 333 0176 02B0     		add	sp, sp, #8
 334              		@ sp needed
 335 0178 80BC     		pop	{r7}
 336 017a 01BC     		pop	{r0}
 337 017c 0047     		bx	r0
 338              	.L16:
 339 017e C046     		.align	2
 340              	.L15:
ARM GAS  C:\Users\embedded\AppData\Local\Temp\ccHk1fkP.s 			page 9


 341 0180 048000E0 		.word	-536838140
 342 0184 0C8000E0 		.word	-536838132
 343 0188 188000E0 		.word	-536838120
 344 018c 008000E0 		.word	-536838144
 345 0190 148000E0 		.word	-536838124
 346              		.cfi_endproc
 347              	.LFE6:
 348              		.size	delayPs, .-delayPs
 349              		.global	__aeabi_uldivmod
 350              		.global	__aeabi_lmul
 351              		.align	1
 352              		.syntax unified
 353              		.code	16
 354              		.thumb_func
 355              		.fpu softvfp
 356              		.type	init_irq, %function
 357              	init_irq:
 358              	.LFB7:
 117:main.c        **** 
 118:main.c        **** /************************************************************************
 119:main.c        ****  * @brief: Uruchomienie obslugi przerwan
 120:main.c        ****  * @param period:
 121:main.c        ****  *      okres generatora przerwan
 122:main.c        ****  * @param duty_cycle:
 123:main.c        ****  *      wypelnienie w %
 124:main.c        ****  * @returns: Nic
 125:main.c        ****  * @attention:
 126:main.c        ****  *    przeprogramowany timer #1
 127:main.c        ****  *************************************************************************/
 128:main.c        **** static void init_irq(tU32 period, tU8 duty_cycle) {
 359              		.loc 1 128 0
 360              		.cfi_startproc
 361              		@ Function supports interworking.
 362              		@ args = 0, pretend = 0, frame = 48
 363              		@ frame_needed = 1, uses_anonymous_args = 0
 364 0194 F0B5     		push	{r4, r5, r6, r7, lr}
 365              	.LCFI12:
 366              		.cfi_def_cfa_offset 20
 367              		.cfi_offset 4, -20
 368              		.cfi_offset 5, -16
 369              		.cfi_offset 6, -12
 370              		.cfi_offset 7, -8
 371              		.cfi_offset 14, -4
 372 0196 8DB0     		sub	sp, sp, #52
 373              	.LCFI13:
 374              		.cfi_def_cfa_offset 72
 375 0198 00AF     		add	r7, sp, #0
 376              	.LCFI14:
 377              		.cfi_def_cfa_register 7
 378 019a F862     		str	r0, [r7, #44]
 379 019c 0B00     		movs	r3, r1
 380 019e 2B22     		movs	r2, #43
 381 01a0 BA18     		adds	r2, r7, r2
 382 01a2 1370     		strb	r3, [r2]
 129:main.c        ****     // Zainicjuj VIC dla przerwan od Timera #1
 130:main.c        ****     VICIntSelect &=
 383              		.loc 1 130 0
ARM GAS  C:\Users\embedded\AppData\Local\Temp\ccHk1fkP.s 			page 10


 384 01a4 3C4B     		ldr	r3, .L18
 385 01a6 1968     		ldr	r1, [r3]
 386 01a8 3B4A     		ldr	r2, .L18
 387 01aa 2023     		movs	r3, #32
 388 01ac 9943     		bics	r1, r3
 389 01ae 0B00     		movs	r3, r1
 390 01b0 1360     		str	r3, [r2]
 131:main.c        ****             ~TIMER_1_IRQ;  // Przerwanie od Timera #1 przypisane do IRQ (nie do FIQ)
 132:main.c        ****     VICVectAddr5 = (tU32)IRQ_Test;  // adres procedury przerwania
 391              		.loc 1 132 0
 392 01b2 3A4A     		ldr	r2, .L18+4
 393 01b4 3A4B     		ldr	r3, .L18+8
 394 01b6 1360     		str	r3, [r2]
 133:main.c        ****     VICVectCntl5 = VIC_ENABLE_SLOT | TIMER_1_IRQ_NO;
 395              		.loc 1 133 0
 396 01b8 3A4A     		ldr	r2, .L18+12
 397 01ba 2523     		movs	r3, #37
 398 01bc 1360     		str	r3, [r2]
 134:main.c        ****     VICIntEnable =
 399              		.loc 1 134 0
 400 01be 3A4A     		ldr	r2, .L18+16
 401 01c0 2023     		movs	r3, #32
 402 01c2 1360     		str	r3, [r2]
 135:main.c        ****             TIMER_1_IRQ;  // Przypisanie i odblokowanie slotu w VIC od Timera #1
 136:main.c        **** 
 137:main.c        ****     T1TCR = TIMER_RESET;  // Zatrzymaj i zresetuj
 403              		.loc 1 137 0
 404 01c4 394A     		ldr	r2, .L18+20
 405 01c6 0223     		movs	r3, #2
 406 01c8 1360     		str	r3, [r2]
 138:main.c        ****     T1PR = 0;             // Preskaler nieuzywany
 407              		.loc 1 138 0
 408 01ca 394A     		ldr	r2, .L18+24
 409 01cc 0023     		movs	r3, #0
 410 01ce 1360     		str	r3, [r2]
 139:main.c        ****     T1MR0 = ((tU64)period) * ((tU64)PERIPHERAL_CLOCK) / 1000;
 411              		.loc 1 139 0
 412 01d0 FB6A     		ldr	r3, [r7, #44]
 413 01d2 3B61     		str	r3, [r7, #16]
 414 01d4 0023     		movs	r3, #0
 415 01d6 7B61     		str	r3, [r7, #20]
 416 01d8 3B69     		ldr	r3, [r7, #16]
 417 01da 7C69     		ldr	r4, [r7, #20]
 418 01dc 1A0F     		lsrs	r2, r3, #28
 419 01de 2101     		lsls	r1, r4, #4
 420 01e0 7962     		str	r1, [r7, #36]
 421 01e2 796A     		ldr	r1, [r7, #36]
 422 01e4 1143     		orrs	r1, r2
 423 01e6 7962     		str	r1, [r7, #36]
 424 01e8 1B01     		lsls	r3, r3, #4
 425 01ea 3B62     		str	r3, [r7, #32]
 426 01ec 3B6A     		ldr	r3, [r7, #32]
 427 01ee 7C6A     		ldr	r4, [r7, #36]
 428 01f0 3869     		ldr	r0, [r7, #16]
 429 01f2 7969     		ldr	r1, [r7, #20]
 430 01f4 1B1A     		subs	r3, r3, r0
 431 01f6 8C41     		sbcs	r4, r4, r1
ARM GAS  C:\Users\embedded\AppData\Local\Temp\ccHk1fkP.s 			page 11


 432 01f8 1A0F     		lsrs	r2, r3, #28
 433 01fa 2601     		lsls	r6, r4, #4
 434 01fc 1643     		orrs	r6, r2
 435 01fe 1D01     		lsls	r5, r3, #4
 436 0200 ED1A     		subs	r5, r5, r3
 437 0202 A641     		sbcs	r6, r6, r4
 438 0204 AB0B     		lsrs	r3, r5, #14
 439 0206 B204     		lsls	r2, r6, #18
 440 0208 FA61     		str	r2, [r7, #28]
 441 020a FA69     		ldr	r2, [r7, #28]
 442 020c 1A43     		orrs	r2, r3
 443 020e FA61     		str	r2, [r7, #28]
 444 0210 AB04     		lsls	r3, r5, #18
 445 0212 BB61     		str	r3, [r7, #24]
 446 0214 BD69     		ldr	r5, [r7, #24]
 447 0216 FE69     		ldr	r6, [r7, #28]
 448 0218 2800     		movs	r0, r5
 449 021a 3100     		movs	r1, r6
 450 021c FA22     		movs	r2, #250
 451 021e 9200     		lsls	r2, r2, #2
 452 0220 0023     		movs	r3, #0
 453 0222 FFF7FEFF 		bl	__aeabi_uldivmod
 454              	.LVL0:
 455 0226 0300     		movs	r3, r0
 456 0228 0C00     		movs	r4, r1
 457 022a 1900     		movs	r1, r3
 458 022c 2200     		movs	r2, r4
 459 022e 214B     		ldr	r3, .L18+28
 460 0230 0A00     		movs	r2, r1
 461 0232 1A60     		str	r2, [r3]
 140:main.c        ****     T1MR1 = (tU64)T1MR0 * duty_cycle / 100;  // Wypelnienie
 462              		.loc 1 140 0
 463 0234 1F4B     		ldr	r3, .L18+28
 464 0236 1B68     		ldr	r3, [r3]
 465 0238 BB60     		str	r3, [r7, #8]
 466 023a 0023     		movs	r3, #0
 467 023c FB60     		str	r3, [r7, #12]
 468 023e 2B23     		movs	r3, #43
 469 0240 FB18     		adds	r3, r7, r3
 470 0242 1B78     		ldrb	r3, [r3]
 471 0244 1B06     		lsls	r3, r3, #24
 472 0246 1B0E     		lsrs	r3, r3, #24
 473 0248 3B60     		str	r3, [r7]
 474 024a 0023     		movs	r3, #0
 475 024c 7B60     		str	r3, [r7, #4]
 476 024e 3A68     		ldr	r2, [r7]
 477 0250 7B68     		ldr	r3, [r7, #4]
 478 0252 B868     		ldr	r0, [r7, #8]
 479 0254 F968     		ldr	r1, [r7, #12]
 480 0256 FFF7FEFF 		bl	__aeabi_lmul
 481              	.LVL1:
 482 025a 0300     		movs	r3, r0
 483 025c 0C00     		movs	r4, r1
 484 025e 1800     		movs	r0, r3
 485 0260 2100     		movs	r1, r4
 486 0262 6422     		movs	r2, #100
 487 0264 0023     		movs	r3, #0
ARM GAS  C:\Users\embedded\AppData\Local\Temp\ccHk1fkP.s 			page 12


 488 0266 FFF7FEFF 		bl	__aeabi_uldivmod
 489              	.LVL2:
 490 026a 0300     		movs	r3, r0
 491 026c 0C00     		movs	r4, r1
 492 026e 1900     		movs	r1, r3
 493 0270 2200     		movs	r2, r4
 494 0272 114B     		ldr	r3, .L18+32
 495 0274 0A00     		movs	r2, r1
 496 0276 1A60     		str	r2, [r3]
 141:main.c        ****     T1IR = TIMER_ALL_INT;  // Resetowanie flag przerwan
 497              		.loc 1 141 0
 498 0278 104B     		ldr	r3, .L18+36
 499 027a FF22     		movs	r2, #255
 500 027c 1A60     		str	r2, [r3]
 142:main.c        ****     T1MCR = MR0_I | MR1_I |
 501              		.loc 1 142 0
 502 027e 104B     		ldr	r3, .L18+40
 503 0280 0B22     		movs	r2, #11
 504 0282 1A60     		str	r2, [r3]
 143:main.c        ****             MR0_R;      // Generuj okresowe przerwania dla MR0 i dodatkowo dla MR1
 144:main.c        ****     T1TCR = TIMER_RUN;  // Uruchom timer
 505              		.loc 1 144 0
 506 0284 094B     		ldr	r3, .L18+20
 507 0286 0122     		movs	r2, #1
 508 0288 1A60     		str	r2, [r3]
 145:main.c        **** }
 509              		.loc 1 145 0
 510 028a C046     		nop
 511 028c BD46     		mov	sp, r7
 512 028e 0DB0     		add	sp, sp, #52
 513              		@ sp needed
 514 0290 F0BC     		pop	{r4, r5, r6, r7}
 515 0292 01BC     		pop	{r0}
 516 0294 0047     		bx	r0
 517              	.L19:
 518 0296 C046     		.align	2
 519              	.L18:
 520 0298 0CF0FFFF 		.word	-4084
 521 029c 14F1FFFF 		.word	-3820
 522 02a0 00000000 		.word	IRQ_Test
 523 02a4 14F2FFFF 		.word	-3564
 524 02a8 10F0FFFF 		.word	-4080
 525 02ac 048000E0 		.word	-536838140
 526 02b0 0C8000E0 		.word	-536838132
 527 02b4 188000E0 		.word	-536838120
 528 02b8 1C8000E0 		.word	-536838116
 529 02bc 008000E0 		.word	-536838144
 530 02c0 148000E0 		.word	-536838124
 531              		.cfi_endproc
 532              	.LFE7:
 533              		.size	init_irq, .-init_irq
 534              		.global	__aeabi_idiv
 535              		.align	1
 536              		.global	playSound
 537              		.syntax unified
 538              		.code	16
 539              		.thumb_func
ARM GAS  C:\Users\embedded\AppData\Local\Temp\ccHk1fkP.s 			page 13


 540              		.fpu softvfp
 541              		.type	playSound, %function
 542              	playSound:
 543              	.LFB8:
 146:main.c        **** 
 147:main.c        **** /**
 148:main.c        ****  * @brief: Generowanie dzwieku danej dlugosci o zadanej czestotliwosci
 149:main.c        ****  * @param freq:
 150:main.c        ****  *      czestotliwosc dzwieku
 151:main.c        ****  * @param time:
 152:main.c        ****  *      czas trwania dzwieku
 153:main.c        ****  * @returns: Nic
 154:main.c        ****  * @attention:
 155:main.c        ****  *    brak
 156:main.c        ****  */
 157:main.c        **** void playSound(int freq, int time) {
 544              		.loc 1 157 0
 545              		.cfi_startproc
 546              		@ Function supports interworking.
 547              		@ args = 0, pretend = 0, frame = 16
 548              		@ frame_needed = 1, uses_anonymous_args = 0
 549 02c4 80B5     		push	{r7, lr}
 550              	.LCFI15:
 551              		.cfi_def_cfa_offset 8
 552              		.cfi_offset 7, -8
 553              		.cfi_offset 14, -4
 554 02c6 84B0     		sub	sp, sp, #16
 555              	.LCFI16:
 556              		.cfi_def_cfa_offset 24
 557 02c8 00AF     		add	r7, sp, #0
 558              	.LCFI17:
 559              		.cfi_def_cfa_register 7
 560 02ca 7860     		str	r0, [r7, #4]
 561 02cc 3960     		str	r1, [r7]
 158:main.c        ****     tU16 s = 0;
 562              		.loc 1 158 0
 563 02ce 0E23     		movs	r3, #14
 564 02d0 FB18     		adds	r3, r7, r3
 565 02d2 0022     		movs	r2, #0
 566 02d4 1A80     		strh	r2, [r3]
 567              	.LBB2:
 159:main.c        ****     for (int i = 0; i < time; i++) {
 568              		.loc 1 159 0
 569 02d6 0023     		movs	r3, #0
 570 02d8 BB60     		str	r3, [r7, #8]
 571 02da 76E0     		b	.L21
 572              	.L36:
 160:main.c        ****         DACR = (s << 6) | (1 << 16);
 573              		.loc 1 160 0
 574 02dc 0E23     		movs	r3, #14
 575 02de FB18     		adds	r3, r7, r3
 576 02e0 1B88     		ldrh	r3, [r3]
 577 02e2 9B01     		lsls	r3, r3, #6
 578 02e4 8022     		movs	r2, #128
 579 02e6 5202     		lsls	r2, r2, #9
 580 02e8 1A43     		orrs	r2, r3
 581 02ea 3D4B     		ldr	r3, .L37
ARM GAS  C:\Users\embedded\AppData\Local\Temp\ccHk1fkP.s 			page 14


 582 02ec 1A60     		str	r2, [r3]
 161:main.c        ****         if ((i % 8) == 0) {
 583              		.loc 1 161 0
 584 02ee BB68     		ldr	r3, [r7, #8]
 585 02f0 0722     		movs	r2, #7
 586 02f2 1340     		ands	r3, r2
 587 02f4 04D1     		bne	.L22
 162:main.c        ****             s = 0;
 588              		.loc 1 162 0
 589 02f6 0E23     		movs	r3, #14
 590 02f8 FB18     		adds	r3, r7, r3
 591 02fa 0022     		movs	r2, #0
 592 02fc 1A80     		strh	r2, [r3]
 593 02fe 55E0     		b	.L23
 594              	.L22:
 163:main.c        ****         } else if (((i % 8) == 1) || ((i % 8) == 7)) {
 595              		.loc 1 163 0
 596 0300 BB68     		ldr	r3, [r7, #8]
 597 0302 384A     		ldr	r2, .L37+4
 598 0304 1340     		ands	r3, r2
 599 0306 04D5     		bpl	.L24
 600 0308 013B     		subs	r3, r3, #1
 601 030a 0822     		movs	r2, #8
 602 030c 5242     		rsbs	r2, r2, #0
 603 030e 1343     		orrs	r3, r2
 604 0310 0133     		adds	r3, r3, #1
 605              	.L24:
 606 0312 012B     		cmp	r3, #1
 607 0314 0AD0     		beq	.L25
 608              		.loc 1 163 0 is_stmt 0 discriminator 1
 609 0316 BB68     		ldr	r3, [r7, #8]
 610 0318 324A     		ldr	r2, .L37+4
 611 031a 1340     		ands	r3, r2
 612 031c 04D5     		bpl	.L26
 613 031e 013B     		subs	r3, r3, #1
 614 0320 0822     		movs	r2, #8
 615 0322 5242     		rsbs	r2, r2, #0
 616 0324 1343     		orrs	r3, r2
 617 0326 0133     		adds	r3, r3, #1
 618              	.L26:
 619 0328 072B     		cmp	r3, #7
 620 032a 04D1     		bne	.L27
 621              	.L25:
 164:main.c        ****             s = 150;
 622              		.loc 1 164 0 is_stmt 1
 623 032c 0E23     		movs	r3, #14
 624 032e FB18     		adds	r3, r7, r3
 625 0330 9622     		movs	r2, #150
 626 0332 1A80     		strh	r2, [r3]
 627 0334 3AE0     		b	.L23
 628              	.L27:
 165:main.c        ****         } else if (((i % 8) == 2) || ((i % 8) == 6)) {
 629              		.loc 1 165 0
 630 0336 BB68     		ldr	r3, [r7, #8]
 631 0338 2A4A     		ldr	r2, .L37+4
 632 033a 1340     		ands	r3, r2
 633 033c 04D5     		bpl	.L28
ARM GAS  C:\Users\embedded\AppData\Local\Temp\ccHk1fkP.s 			page 15


 634 033e 013B     		subs	r3, r3, #1
 635 0340 0822     		movs	r2, #8
 636 0342 5242     		rsbs	r2, r2, #0
 637 0344 1343     		orrs	r3, r2
 638 0346 0133     		adds	r3, r3, #1
 639              	.L28:
 640 0348 022B     		cmp	r3, #2
 641 034a 0AD0     		beq	.L29
 642              		.loc 1 165 0 is_stmt 0 discriminator 1
 643 034c BB68     		ldr	r3, [r7, #8]
 644 034e 254A     		ldr	r2, .L37+4
 645 0350 1340     		ands	r3, r2
 646 0352 04D5     		bpl	.L30
 647 0354 013B     		subs	r3, r3, #1
 648 0356 0822     		movs	r2, #8
 649 0358 5242     		rsbs	r2, r2, #0
 650 035a 1343     		orrs	r3, r2
 651 035c 0133     		adds	r3, r3, #1
 652              	.L30:
 653 035e 062B     		cmp	r3, #6
 654 0360 05D1     		bne	.L31
 655              	.L29:
 166:main.c        ****             s = 512;
 656              		.loc 1 166 0 is_stmt 1
 657 0362 0E23     		movs	r3, #14
 658 0364 FB18     		adds	r3, r7, r3
 659 0366 8022     		movs	r2, #128
 660 0368 9200     		lsls	r2, r2, #2
 661 036a 1A80     		strh	r2, [r3]
 662 036c 1EE0     		b	.L23
 663              	.L31:
 167:main.c        ****         } else if (((i % 8) == 3) || ((i % 8) == 5)) {
 664              		.loc 1 167 0
 665 036e BB68     		ldr	r3, [r7, #8]
 666 0370 1C4A     		ldr	r2, .L37+4
 667 0372 1340     		ands	r3, r2
 668 0374 04D5     		bpl	.L32
 669 0376 013B     		subs	r3, r3, #1
 670 0378 0822     		movs	r2, #8
 671 037a 5242     		rsbs	r2, r2, #0
 672 037c 1343     		orrs	r3, r2
 673 037e 0133     		adds	r3, r3, #1
 674              	.L32:
 675 0380 032B     		cmp	r3, #3
 676 0382 0AD0     		beq	.L33
 677              		.loc 1 167 0 is_stmt 0 discriminator 1
 678 0384 BB68     		ldr	r3, [r7, #8]
 679 0386 174A     		ldr	r2, .L37+4
 680 0388 1340     		ands	r3, r2
 681 038a 04D5     		bpl	.L34
 682 038c 013B     		subs	r3, r3, #1
 683 038e 0822     		movs	r2, #8
 684 0390 5242     		rsbs	r2, r2, #0
 685 0392 1343     		orrs	r3, r2
 686 0394 0133     		adds	r3, r3, #1
 687              	.L34:
 688 0396 052B     		cmp	r3, #5
ARM GAS  C:\Users\embedded\AppData\Local\Temp\ccHk1fkP.s 			page 16


 689 0398 04D1     		bne	.L35
 690              	.L33:
 168:main.c        ****             s = 874;
 691              		.loc 1 168 0 is_stmt 1
 692 039a 0E23     		movs	r3, #14
 693 039c FB18     		adds	r3, r7, r3
 694 039e 124A     		ldr	r2, .L37+8
 695 03a0 1A80     		strh	r2, [r3]
 696 03a2 03E0     		b	.L23
 697              	.L35:
 169:main.c        ****         } else {
 170:main.c        ****             s = 1023;
 698              		.loc 1 170 0
 699 03a4 0E23     		movs	r3, #14
 700 03a6 FB18     		adds	r3, r7, r3
 701 03a8 104A     		ldr	r2, .L37+12
 702 03aa 1A80     		strh	r2, [r3]
 703              	.L23:
 171:main.c        ****         }
 172:main.c        ****         delayUs(1000000 / (8 * freq));
 704              		.loc 1 172 0 discriminator 2
 705 03ac 7B68     		ldr	r3, [r7, #4]
 706 03ae DB00     		lsls	r3, r3, #3
 707 03b0 1900     		movs	r1, r3
 708 03b2 0F48     		ldr	r0, .L37+16
 709 03b4 FFF7FEFF 		bl	__aeabi_idiv
 710              	.LVL3:
 711 03b8 0300     		movs	r3, r0
 712 03ba 1B04     		lsls	r3, r3, #16
 713 03bc 1B0C     		lsrs	r3, r3, #16
 714 03be 1800     		movs	r0, r3
 715 03c0 FFF7FEFF 		bl	delayUs
 159:main.c        ****         DACR = (s << 6) | (1 << 16);
 716              		.loc 1 159 0 discriminator 2
 717 03c4 BB68     		ldr	r3, [r7, #8]
 718 03c6 0133     		adds	r3, r3, #1
 719 03c8 BB60     		str	r3, [r7, #8]
 720              	.L21:
 159:main.c        ****         DACR = (s << 6) | (1 << 16);
 721              		.loc 1 159 0 is_stmt 0 discriminator 1
 722 03ca BA68     		ldr	r2, [r7, #8]
 723 03cc 3B68     		ldr	r3, [r7]
 724 03ce 9A42     		cmp	r2, r3
 725 03d0 00DA     		bge	.LCB616
 726 03d2 83E7     		b	.L36	@long jump
 727              	.LCB616:
 728              	.LBE2:
 173:main.c        ****     }
 174:main.c        **** }
 729              		.loc 1 174 0 is_stmt 1
 730 03d4 C046     		nop
 731 03d6 BD46     		mov	sp, r7
 732 03d8 04B0     		add	sp, sp, #16
 733              		@ sp needed
 734 03da 80BC     		pop	{r7}
 735 03dc 01BC     		pop	{r0}
 736 03de 0047     		bx	r0
ARM GAS  C:\Users\embedded\AppData\Local\Temp\ccHk1fkP.s 			page 17


 737              	.L38:
 738              		.align	2
 739              	.L37:
 740 03e0 00C006E0 		.word	-536428544
 741 03e4 07000080 		.word	-2147483641
 742 03e8 6A030000 		.word	874
 743 03ec FF030000 		.word	1023
 744 03f0 40420F00 		.word	1000000
 745              		.cfi_endproc
 746              	.LFE8:
 747              		.size	playSound, .-playSound
 748              		.align	1
 749              		.global	changeLEDs
 750              		.syntax unified
 751              		.code	16
 752              		.thumb_func
 753              		.fpu softvfp
 754              		.type	changeLEDs, %function
 755              	changeLEDs:
 756              	.LFB9:
 175:main.c        **** 
 176:main.c        **** /**
 177:main.c        ****  * @brief: Zmiana aktualnego stanu diod LED
 178:main.c        ****  * @param row:
 179:main.c        ****  *      Rzad, do ktorego (wlacznie) wszystkie diody ponizej zmienia swoj
 180:main.c        ****  * aktualny stan.
 181:main.c        ****  * @Returns: Nic
 182:main.c        ****  * @attention:
 183:main.c        ****  *    brak
 184:main.c        ****  */
 185:main.c        **** void changeLEDs(int row) {
 757              		.loc 1 185 0
 758              		.cfi_startproc
 759              		@ Function supports interworking.
 760              		@ args = 0, pretend = 0, frame = 16
 761              		@ frame_needed = 1, uses_anonymous_args = 0
 762 03f4 80B5     		push	{r7, lr}
 763              	.LCFI18:
 764              		.cfi_def_cfa_offset 8
 765              		.cfi_offset 7, -8
 766              		.cfi_offset 14, -4
 767 03f6 84B0     		sub	sp, sp, #16
 768              	.LCFI19:
 769              		.cfi_def_cfa_offset 24
 770 03f8 00AF     		add	r7, sp, #0
 771              	.LCFI20:
 772              		.cfi_def_cfa_register 7
 773 03fa 7860     		str	r0, [r7, #4]
 774              	.LBB3:
 186:main.c        ****     for (int i = 0; i < row; i++) {
 775              		.loc 1 186 0
 776 03fc 0023     		movs	r3, #0
 777 03fe FB60     		str	r3, [r7, #12]
 778 0400 17E0     		b	.L40
 779              	.L41:
 187:main.c        ****         setPca9532Pin(7 - i, 1);
 780              		.loc 1 187 0 discriminator 3
ARM GAS  C:\Users\embedded\AppData\Local\Temp\ccHk1fkP.s 			page 18


 781 0402 FB68     		ldr	r3, [r7, #12]
 782 0404 1B06     		lsls	r3, r3, #24
 783 0406 1B0E     		lsrs	r3, r3, #24
 784 0408 0722     		movs	r2, #7
 785 040a D31A     		subs	r3, r2, r3
 786 040c 1B06     		lsls	r3, r3, #24
 787 040e 1B0E     		lsrs	r3, r3, #24
 788 0410 0121     		movs	r1, #1
 789 0412 1800     		movs	r0, r3
 790 0414 FFF7FEFF 		bl	setPca9532Pin
 188:main.c        ****         setPca9532Pin(8 + i, 1);
 791              		.loc 1 188 0 discriminator 3
 792 0418 FB68     		ldr	r3, [r7, #12]
 793 041a 1B06     		lsls	r3, r3, #24
 794 041c 1B0E     		lsrs	r3, r3, #24
 795 041e 0833     		adds	r3, r3, #8
 796 0420 1B06     		lsls	r3, r3, #24
 797 0422 1B0E     		lsrs	r3, r3, #24
 798 0424 0121     		movs	r1, #1
 799 0426 1800     		movs	r0, r3
 800 0428 FFF7FEFF 		bl	setPca9532Pin
 186:main.c        ****     for (int i = 0; i < row; i++) {
 801              		.loc 1 186 0 discriminator 3
 802 042c FB68     		ldr	r3, [r7, #12]
 803 042e 0133     		adds	r3, r3, #1
 804 0430 FB60     		str	r3, [r7, #12]
 805              	.L40:
 186:main.c        ****     for (int i = 0; i < row; i++) {
 806              		.loc 1 186 0 is_stmt 0 discriminator 1
 807 0432 FA68     		ldr	r2, [r7, #12]
 808 0434 7B68     		ldr	r3, [r7, #4]
 809 0436 9A42     		cmp	r2, r3
 810 0438 E3DB     		blt	.L41
 811              	.LBE3:
 189:main.c        ****     }
 190:main.c        **** }
 812              		.loc 1 190 0 is_stmt 1
 813 043a C046     		nop
 814 043c BD46     		mov	sp, r7
 815 043e 04B0     		add	sp, sp, #16
 816              		@ sp needed
 817 0440 80BC     		pop	{r7}
 818 0442 01BC     		pop	{r0}
 819 0444 0047     		bx	r0
 820              		.cfi_endproc
 821              	.LFE9:
 822              		.size	changeLEDs, .-changeLEDs
 823              		.section	.rodata
 824              		.align	2
 825              	.LC6:
 826 0000 0A2A2A2A 		.ascii	"\012***************\000"
 826      2A2A2A2A 
 826      2A2A2A2A 
 826      2A2A2A2A 
 826      00
 827 0011 000000   		.align	2
 828              	.LC8:
ARM GAS  C:\Users\embedded\AppData\Local\Temp\ccHk1fkP.s 			page 19


 829 0014 0A2A2053 		.ascii	"\012* Systemy\012* Wbudowane\000"
 829      79737465 
 829      6D790A2A 
 829      20576275 
 829      646F7761 
 830 002b 00       		.align	2
 831              	.LC10:
 832 002c 0A2A2057 		.ascii	"\012* Wydzial FTIMS\000"
 832      79647A69 
 832      616C2046 
 832      54494D53 
 832      00
 833 003d 000000   		.align	2
 834              	.LC12:
 835 0040 0A5A4147 		.ascii	"\012ZAGRAJ <-> TOP1\000"
 835      52414A20 
 835      3C2D3E20 
 835      544F5031 
 835      00
 836 0051 000000   		.align	2
 837              	.LC14:
 838 0054 5A414752 		.ascii	"ZAGRAJ\000"
 838      414A00
 839 005b 00       		.align	2
 840              	.LC16:
 841 005c 57594E49 		.ascii	"WYNIKI\000"
 841      4B4900
 842 0063 00       		.align	2
 843              	.LC18:
 844 0064 544F5020 		.ascii	"TOP 1:\000"
 844      313A00
 845 006b 00       		.align	2
 846              	.LC20:
 847 006c 57796772 		.ascii	"Wygrane: \000"
 847      616E653A 
 847      2000
 848 0076 0000     		.align	2
 849              	.LC22:
 850 0078 4272616B 		.ascii	"Brak wynikow\000"
 850      2077796E 
 850      696B6F77 
 850      00
 851 0085 000000   		.align	2
 852              	.LC24:
 853 0088 5245464C 		.ascii	"REFLEKS\000"
 853      454B5300 
 854              		.align	2
 855              	.LC26:
 856 0090 0A0A2020 		.ascii	"\012\012  dzwiek:\000"
 856      647A7769 
 856      656B3A00 
 857              		.align	2
 858              	.LC28:
 859 009c 0A20206E 		.ascii	"\012  niski-lewo\000"
 859      69736B69 
 859      2D6C6577 
 859      6F00
ARM GAS  C:\Users\embedded\AppData\Local\Temp\ccHk1fkP.s 			page 20


 860 00aa 0000     		.align	2
 861              	.LC30:
 862 00ac 0A202077 		.ascii	"\012  wysoki-prawo\000"
 862      79736F6B 
 862      692D7072 
 862      61776F00 
 863              		.align	2
 864              	.LC32:
 865 00bc 52756E64 		.ascii	"Runda \000"
 865      612000
 866 00c3 00       		.align	2
 867              	.LC34:
 868 00c4 30303A25 		.ascii	"00:%02d:%02d\000"
 868      3032643A 
 868      25303264 
 868      00
 869 00d1 000000   		.align	2
 870              	.LC36:
 871 00d4 54776F6A 		.ascii	"Twoj czas:\000"
 871      20637A61 
 871      733A00
 872 00df 00       		.align	2
 873              	.LC38:
 874 00e0 70727A65 		.ascii	"przegrales!\000"
 874      6772616C 
 874      65732100 
 875              		.align	2
 876              	.LC40:
 877 00ec 77796772 		.ascii	"wygrales!\000"
 877      616C6573 
 877      2100
 878 00f6 0000     		.align	2
 879              	.LC42:
 880 00f8 0A6A6573 		.ascii	"\012jestes najlepszy!\000"
 880      74657320 
 880      6E616A6C 
 880      6570737A 
 880      792100
 881 010b 00       		.align	2
 882              	.LC44:
 883 010c 696C6F73 		.ascii	"ilosc \012wygranych \012rund: \000"
 883      63200A77 
 883      79677261 
 883      6E796368 
 883      200A7275 
 884 0125 000000   		.align	2
 885              	.LC46:
 886 0128 0A4E617A 		.ascii	"\012Nazwa gracza:\012\000"
 886      77612067 
 886      7261637A 
 886      613A0A00 
 887              		.align	2
 888              	.LC48:
 889 0138 57796272 		.ascii	"Wybrano nazwe:\012\000"
 889      616E6F20 
 889      6E617A77 
 889      653A0A00 
ARM GAS  C:\Users\embedded\AppData\Local\Temp\ccHk1fkP.s 			page 21


 890              		.align	2
 891              	.LC50:
 892 0148 4F4B00   		.ascii	"OK\000"
 893 014b 00       		.align	2
 894              	.LC52:
 895 014c 426C6164 		.ascii	"Blad\000"
 895      00
 896 0151 000000   		.align	2
 897              	.LC54:
 898 0154 504F5752 		.ascii	"POWROT DO MENU\000"
 898      4F542044 
 898      4F204D45 
 898      4E5500
 899 0163 00       		.align	2
 900              	.LC0:
 901 0164 DC000000 		.word	220
 902 0168 DC000000 		.word	220
 903 016c DC000000 		.word	220
 904 0170 AF000000 		.word	175
 905 0174 06010000 		.word	262
 906 0178 DC000000 		.word	220
 907 017c AF000000 		.word	175
 908 0180 06010000 		.word	262
 909 0184 DC000000 		.word	220
 910 0188 4A010000 		.word	330
 911 018c 4A010000 		.word	330
 912 0190 4A010000 		.word	330
 913 0194 5D010000 		.word	349
 914 0198 06010000 		.word	262
 915 019c D0000000 		.word	208
 916 01a0 AF000000 		.word	175
 917 01a4 06010000 		.word	262
 918 01a8 DC000000 		.word	220
 919              		.align	2
 920              	.LC1:
 921 01ac 00EF0600 		.word	454400
 922 01b0 00EF0600 		.word	454400
 923 01b4 00EF0600 		.word	454400
 924 01b8 80770300 		.word	227200
 925 01bc 80770300 		.word	227200
 926 01c0 00EF0600 		.word	454400
 927 01c4 80770300 		.word	227200
 928 01c8 80770300 		.word	227200
 929 01cc 00DE0D00 		.word	908800
 930 01d0 00EF0600 		.word	454400
 931 01d4 00EF0600 		.word	454400
 932 01d8 00EF0600 		.word	454400
 933 01dc 80770300 		.word	227200
 934 01e0 80770300 		.word	227200
 935 01e4 00EF0600 		.word	454400
 936 01e8 80770300 		.word	227200
 937 01ec 80770300 		.word	227200
 938 01f0 00DE0D00 		.word	908800
 939              		.text
 940              		.align	1
 941              		.global	main
 942              		.syntax unified
ARM GAS  C:\Users\embedded\AppData\Local\Temp\ccHk1fkP.s 			page 22


 943              		.code	16
 944              		.thumb_func
 945              		.fpu softvfp
 946              		.type	main, %function
 947              	main:
 948              	.LFB10:
 191:main.c        **** 
 192:main.c        **** int main(void) {
 949              		.loc 1 192 0
 950              		.cfi_startproc
 951              		@ Function supports interworking.
 952              		@ args = 0, pretend = 0, frame = 312
 953              		@ frame_needed = 1, uses_anonymous_args = 0
 954 0446 F0B5     		push	{r4, r5, r6, r7, lr}
 955              	.LCFI21:
 956              		.cfi_def_cfa_offset 20
 957              		.cfi_offset 4, -20
 958              		.cfi_offset 5, -16
 959              		.cfi_offset 6, -12
 960              		.cfi_offset 7, -8
 961              		.cfi_offset 14, -4
 962 0448 D1B0     		sub	sp, sp, #324
 963              	.LCFI22:
 964              		.cfi_def_cfa_offset 344
 965 044a 02AF     		add	r7, sp, #8
 966              	.LCFI23:
 967              		.cfi_def_cfa 7, 336
 193:main.c        ****     timeTwo = 0;
 968              		.loc 1 193 0
 969 044c E04B     		ldr	r3, .L103
 970 044e 0022     		movs	r2, #0
 971 0450 1A60     		str	r2, [r3]
 194:main.c        **** 
 195:main.c        ****     // INICJALIZACJA MODUloW
 196:main.c        ****     //printf_init();
 197:main.c        ****     i2cInit();
 972              		.loc 1 197 0
 973 0452 FFF7FEFF 		bl	i2cInit
 198:main.c        ****     pca9532Init();
 974              		.loc 1 198 0
 975 0456 FFF7FEFF 		bl	pca9532Init
 199:main.c        ****     init_irq(10, 20);
 976              		.loc 1 199 0
 977 045a 1421     		movs	r1, #20
 978 045c 0A20     		movs	r0, #10
 979 045e FFF799FE 		bl	init_irq
 200:main.c        ****     lcdInit();
 980              		.loc 1 200 0
 981 0462 FFF7FEFF 		bl	lcdInit
 201:main.c        **** 
 202:main.c        ****     // KOLOR TlA
 203:main.c        ****     lcdColor(250, 0);
 982              		.loc 1 203 0
 983 0466 0021     		movs	r1, #0
 984 0468 FA20     		movs	r0, #250
 985 046a FFF7FEFF 		bl	lcdColor
 204:main.c        **** 
ARM GAS  C:\Users\embedded\AppData\Local\Temp\ccHk1fkP.s 			page 23


 205:main.c        ****     // ZGASZENIE LEDoW
 206:main.c        ****     changeLEDs(8);
 986              		.loc 1 206 0
 987 046e 0820     		movs	r0, #8
 988 0470 FFF7FEFF 		bl	changeLEDs
 207:main.c        **** 
 208:main.c        ****     // PINY DO AUDIO
 209:main.c        ****     PINSEL1 &= ~0x000C0000;
 989              		.loc 1 209 0
 990 0474 D74B     		ldr	r3, .L103+4
 991 0476 1A68     		ldr	r2, [r3]
 992 0478 D64B     		ldr	r3, .L103+4
 993 047a D749     		ldr	r1, .L103+8
 994 047c 0A40     		ands	r2, r1
 995 047e 1A60     		str	r2, [r3]
 210:main.c        ****     PINSEL1 |= 0x00080000;
 996              		.loc 1 210 0
 997 0480 D44B     		ldr	r3, .L103+4
 998 0482 1A68     		ldr	r2, [r3]
 999 0484 D34B     		ldr	r3, .L103+4
 1000 0486 8021     		movs	r1, #128
 1001 0488 0903     		lsls	r1, r1, #12
 1002 048a 0A43     		orrs	r2, r1
 1003 048c 1A60     		str	r2, [r3]
 211:main.c        **** 
 212:main.c        ****     // MUZYKA NA PRZEGRANa
 213:main.c        ****     int freqs[18] = {
 1004              		.loc 1 213 0
 1005 048e 8823     		movs	r3, #136
 1006 0490 FA18     		adds	r2, r7, r3
 1007 0492 D24B     		ldr	r3, .L103+12
 1008 0494 1000     		movs	r0, r2
 1009 0496 1900     		movs	r1, r3
 1010 0498 4823     		movs	r3, #72
 1011 049a 1A00     		movs	r2, r3
 1012 049c FFF7FEFF 		bl	memcpy
 214:main.c        ****             220, 220, 220, 175, 262, 220, 175, 262, 220,
 215:main.c        ****             330, 330, 330, 349, 262, 208, 175, 262, 220};
 216:main.c        ****     int times[18] = {454400, 454400, 454400, 227200, 227200, 454400,
 1013              		.loc 1 216 0
 1014 04a0 4023     		movs	r3, #64
 1015 04a2 FA18     		adds	r2, r7, r3
 1016 04a4 CE4B     		ldr	r3, .L103+16
 1017 04a6 1000     		movs	r0, r2
 1018 04a8 1900     		movs	r1, r3
 1019 04aa 4823     		movs	r3, #72
 1020 04ac 1A00     		movs	r2, r3
 1021 04ae FFF7FEFF 		bl	memcpy
 217:main.c        ****                      227200, 227200, 908800, 454400, 454400, 454400,
 218:main.c        ****                      227200, 227200, 454400, 227200, 227200, 908800};
 219:main.c        **** 
 220:main.c        ****     // START PROGRAM
 221:main.c        ****     int choice = 0;  // 0 - GRA; 1 - NAJLEPSZY WYNIK
 1022              		.loc 1 221 0
 1023 04b2 0023     		movs	r3, #0
 1024 04b4 9A22     		movs	r2, #154
 1025 04b6 5200     		lsls	r2, r2, #1
ARM GAS  C:\Users\embedded\AppData\Local\Temp\ccHk1fkP.s 			page 24


 1026 04b8 BA18     		adds	r2, r7, r2
 1027 04ba 1360     		str	r3, [r2]
 1028              	.L102:
 222:main.c        ****     while (1) {
 223:main.c        ****         lcdClrscr();
 1029              		.loc 1 223 0
 1030 04bc FFF7FEFF 		bl	lcdClrscr
 224:main.c        ****         while ((IOPIN & 0x00000100) != 0) {
 1031              		.loc 1 224 0
 1032 04c0 39E0     		b	.L43
 1033              	.L45:
 225:main.c        ****             lcdGotoxy(10, 0);
 1034              		.loc 1 225 0
 1035 04c2 0021     		movs	r1, #0
 1036 04c4 0A20     		movs	r0, #10
 1037 04c6 FFF7FEFF 		bl	lcdGotoxy
 226:main.c        ****             lcdPuts("\n***************");
 1038              		.loc 1 226 0
 1039 04ca C64B     		ldr	r3, .L103+20
 1040 04cc 1800     		movs	r0, r3
 1041 04ce FFF7FEFF 		bl	lcdPuts
 227:main.c        ****             lcdPuts("\n* Systemy\n* Wbudowane");
 1042              		.loc 1 227 0
 1043 04d2 C54B     		ldr	r3, .L103+24
 1044 04d4 1800     		movs	r0, r3
 1045 04d6 FFF7FEFF 		bl	lcdPuts
 228:main.c        ****             lcdPuts("\n* Wydzial FTIMS");
 1046              		.loc 1 228 0
 1047 04da C44B     		ldr	r3, .L103+28
 1048 04dc 1800     		movs	r0, r3
 1049 04de FFF7FEFF 		bl	lcdPuts
 229:main.c        ****             lcdPuts("\n***************");
 1050              		.loc 1 229 0
 1051 04e2 C04B     		ldr	r3, .L103+20
 1052 04e4 1800     		movs	r0, r3
 1053 04e6 FFF7FEFF 		bl	lcdPuts
 230:main.c        ****             lcdPuts("\nZAGRAJ <-> TOP1");
 1054              		.loc 1 230 0
 1055 04ea C14B     		ldr	r3, .L103+32
 1056 04ec 1800     		movs	r0, r3
 1057 04ee FFF7FEFF 		bl	lcdPuts
 231:main.c        ****             lcdGotoxy(40, 110);
 1058              		.loc 1 231 0
 1059 04f2 6E21     		movs	r1, #110
 1060 04f4 2820     		movs	r0, #40
 1061 04f6 FFF7FEFF 		bl	lcdGotoxy
 232:main.c        ****             if ((IOPIN & 0x00000200) == 0) {
 1062              		.loc 1 232 0
 1063 04fa BE4B     		ldr	r3, .L103+36
 1064 04fc 1A68     		ldr	r2, [r3]
 1065 04fe 8023     		movs	r3, #128
 1066 0500 9B00     		lsls	r3, r3, #2
 1067 0502 1340     		ands	r3, r2
 1068 0504 08D1     		bne	.L44
 233:main.c        ****                 lcdPuts("ZAGRAJ");
 1069              		.loc 1 233 0
 1070 0506 BC4B     		ldr	r3, .L103+40
ARM GAS  C:\Users\embedded\AppData\Local\Temp\ccHk1fkP.s 			page 25


 1071 0508 1800     		movs	r0, r3
 1072 050a FFF7FEFF 		bl	lcdPuts
 234:main.c        ****                 choice = 2;
 1073              		.loc 1 234 0
 1074 050e 0223     		movs	r3, #2
 1075 0510 9A22     		movs	r2, #154
 1076 0512 5200     		lsls	r2, r2, #1
 1077 0514 BA18     		adds	r2, r7, r2
 1078 0516 1360     		str	r3, [r2]
 1079              	.L44:
 235:main.c        ****             }
 236:main.c        ****             if ((IOPIN & 0x00000800) == 0) {
 1080              		.loc 1 236 0
 1081 0518 B64B     		ldr	r3, .L103+36
 1082 051a 1A68     		ldr	r2, [r3]
 1083 051c 8023     		movs	r3, #128
 1084 051e 1B01     		lsls	r3, r3, #4
 1085 0520 1340     		ands	r3, r2
 1086 0522 08D1     		bne	.L43
 237:main.c        ****                 lcdPuts("WYNIKI");
 1087              		.loc 1 237 0
 1088 0524 B54B     		ldr	r3, .L103+44
 1089 0526 1800     		movs	r0, r3
 1090 0528 FFF7FEFF 		bl	lcdPuts
 238:main.c        ****                 choice = 1;
 1091              		.loc 1 238 0
 1092 052c 0123     		movs	r3, #1
 1093 052e 9A22     		movs	r2, #154
 1094 0530 5200     		lsls	r2, r2, #1
 1095 0532 BA18     		adds	r2, r7, r2
 1096 0534 1360     		str	r3, [r2]
 1097              	.L43:
 224:main.c        ****             lcdGotoxy(10, 0);
 1098              		.loc 1 224 0
 1099 0536 AF4B     		ldr	r3, .L103+36
 1100 0538 1A68     		ldr	r2, [r3]
 1101 053a 8023     		movs	r3, #128
 1102 053c 5B00     		lsls	r3, r3, #1
 1103 053e 1340     		ands	r3, r2
 1104 0540 BFD1     		bne	.L45
 239:main.c        ****             }
 240:main.c        ****         }
 241:main.c        ****         if (choice == 1) {
 1105              		.loc 1 241 0
 1106 0542 9A23     		movs	r3, #154
 1107 0544 5B00     		lsls	r3, r3, #1
 1108 0546 FB18     		adds	r3, r7, r3
 1109 0548 1B68     		ldr	r3, [r3]
 1110 054a 012B     		cmp	r3, #1
 1111 054c 00D0     		beq	.LCB840
 1112 054e D0E0     		b	.L46	@long jump
 1113              	.LCB840:
 242:main.c        ****             delayMs(1000);
 1114              		.loc 1 242 0
 1115 0550 FA23     		movs	r3, #250
 1116 0552 9B00     		lsls	r3, r3, #2
 1117 0554 1800     		movs	r0, r3
ARM GAS  C:\Users\embedded\AppData\Local\Temp\ccHk1fkP.s 			page 26


 1118 0556 FFF7FEFF 		bl	delayMs
 243:main.c        ****             lcdClrscr();
 1119              		.loc 1 243 0
 1120 055a FFF7FEFF 		bl	lcdClrscr
 244:main.c        ****             while ((IOPIN & 0x00000100) != 0) {
 1121              		.loc 1 244 0
 1122 055e BCE0     		b	.L47
 1123              	.L55:
 1124              	.LBB4:
 245:main.c        ****                 tU8 testBuf[12];
 246:main.c        ****                 eepromPageRead(0x0000, testBuf, 12);
 1125              		.loc 1 246 0
 1126 0560 3423     		movs	r3, #52
 1127 0562 FB18     		adds	r3, r7, r3
 1128 0564 0C22     		movs	r2, #12
 1129 0566 1900     		movs	r1, r3
 1130 0568 0020     		movs	r0, #0
 1131 056a FFF7FEFF 		bl	eepromPageRead
 247:main.c        ****                 char read[9];
 248:main.c        ****                 tU8 rounds;
 249:main.c        ****                 int checkSumCalculated = 0;  // liczona na pieszo
 1132              		.loc 1 249 0
 1133 056e 0023     		movs	r3, #0
 1134 0570 9822     		movs	r2, #152
 1135 0572 5200     		lsls	r2, r2, #1
 1136 0574 BA18     		adds	r2, r7, r2
 1137 0576 1360     		str	r3, [r2]
 1138              	.LBB5:
 250:main.c        ****                 for (int i = 0; i < 10; i++) {
 1139              		.loc 1 250 0
 1140 0578 0023     		movs	r3, #0
 1141 057a 9622     		movs	r2, #150
 1142 057c 5200     		lsls	r2, r2, #1
 1143 057e BA18     		adds	r2, r7, r2
 1144 0580 1360     		str	r3, [r2]
 1145 0582 17E0     		b	.L48
 1146              	.L49:
 251:main.c        ****                     checkSumCalculated += testBuf[i];
 1147              		.loc 1 251 0 discriminator 3
 1148 0584 9E4B     		ldr	r3, .L103+48
 1149 0586 9C22     		movs	r2, #156
 1150 0588 5200     		lsls	r2, r2, #1
 1151 058a BA18     		adds	r2, r7, r2
 1152 058c D218     		adds	r2, r2, r3
 1153 058e 9621     		movs	r1, #150
 1154 0590 4900     		lsls	r1, r1, #1
 1155 0592 7B18     		adds	r3, r7, r1
 1156 0594 1B68     		ldr	r3, [r3]
 1157 0596 D318     		adds	r3, r2, r3
 1158 0598 1B78     		ldrb	r3, [r3]
 1159 059a 1A00     		movs	r2, r3
 1160 059c 9820     		movs	r0, #152
 1161 059e 4000     		lsls	r0, r0, #1
 1162 05a0 3B18     		adds	r3, r7, r0
 1163 05a2 1B68     		ldr	r3, [r3]
 1164 05a4 9B18     		adds	r3, r3, r2
 1165 05a6 3A18     		adds	r2, r7, r0
ARM GAS  C:\Users\embedded\AppData\Local\Temp\ccHk1fkP.s 			page 27


 1166 05a8 1360     		str	r3, [r2]
 250:main.c        ****                 for (int i = 0; i < 10; i++) {
 1167              		.loc 1 250 0 discriminator 3
 1168 05aa 7B18     		adds	r3, r7, r1
 1169 05ac 1B68     		ldr	r3, [r3]
 1170 05ae 0133     		adds	r3, r3, #1
 1171 05b0 7A18     		adds	r2, r7, r1
 1172 05b2 1360     		str	r3, [r2]
 1173              	.L48:
 250:main.c        ****                 for (int i = 0; i < 10; i++) {
 1174              		.loc 1 250 0 is_stmt 0 discriminator 1
 1175 05b4 9623     		movs	r3, #150
 1176 05b6 5B00     		lsls	r3, r3, #1
 1177 05b8 FB18     		adds	r3, r7, r3
 1178 05ba 1B68     		ldr	r3, [r3]
 1179 05bc 092B     		cmp	r3, #9
 1180 05be E1DD     		ble	.L49
 1181              	.LBE5:
 252:main.c        ****                 }
 253:main.c        ****                 checkSumCalculated %= 256;
 1182              		.loc 1 253 0 is_stmt 1
 1183 05c0 9823     		movs	r3, #152
 1184 05c2 5B00     		lsls	r3, r3, #1
 1185 05c4 FB18     		adds	r3, r7, r3
 1186 05c6 1B68     		ldr	r3, [r3]
 1187 05c8 8E4A     		ldr	r2, .L103+52
 1188 05ca 1340     		ands	r3, r2
 1189 05cc 03D5     		bpl	.L50
 1190 05ce 013B     		subs	r3, r3, #1
 1191 05d0 8D4A     		ldr	r2, .L103+56
 1192 05d2 1343     		orrs	r3, r2
 1193 05d4 0133     		adds	r3, r3, #1
 1194              	.L50:
 1195 05d6 9821     		movs	r1, #152
 1196 05d8 4900     		lsls	r1, r1, #1
 1197 05da 7A18     		adds	r2, r7, r1
 1198 05dc 1360     		str	r3, [r2]
 254:main.c        ****                 checkSumCalculated ^= 1;
 1199              		.loc 1 254 0
 1200 05de 7B18     		adds	r3, r7, r1
 1201 05e0 1B68     		ldr	r3, [r3]
 1202 05e2 0122     		movs	r2, #1
 1203 05e4 5340     		eors	r3, r2
 1204 05e6 7A18     		adds	r2, r7, r1
 1205 05e8 1360     		str	r3, [r2]
 255:main.c        ****                 if (((testBuf[10] & testBuf[11]) == 0) &&
 1206              		.loc 1 255 0
 1207 05ea 854B     		ldr	r3, .L103+48
 1208 05ec 9C22     		movs	r2, #156
 1209 05ee 5200     		lsls	r2, r2, #1
 1210 05f0 9446     		mov	ip, r2
 1211 05f2 BC44     		add	ip, ip, r7
 1212 05f4 6344     		add	r3, r3, ip
 1213 05f6 9B7A     		ldrb	r3, [r3, #10]
 1214 05f8 814A     		ldr	r2, .L103+48
 1215 05fa 9C21     		movs	r1, #156
 1216 05fc 4900     		lsls	r1, r1, #1
ARM GAS  C:\Users\embedded\AppData\Local\Temp\ccHk1fkP.s 			page 28


 1217 05fe 8C46     		mov	ip, r1
 1218 0600 BC44     		add	ip, ip, r7
 1219 0602 6244     		add	r2, r2, ip
 1220 0604 D27A     		ldrb	r2, [r2, #11]
 1221 0606 1340     		ands	r3, r2
 1222 0608 1B06     		lsls	r3, r3, #24
 1223 060a 1B0E     		lsrs	r3, r3, #24
 1224 060c 5DD1     		bne	.L51
 256:main.c        ****                     ((int)testBuf[10] == checkSumCalculated)) {
 1225              		.loc 1 256 0 discriminator 1
 1226 060e 7C4B     		ldr	r3, .L103+48
 1227 0610 9C22     		movs	r2, #156
 1228 0612 5200     		lsls	r2, r2, #1
 1229 0614 9446     		mov	ip, r2
 1230 0616 BC44     		add	ip, ip, r7
 1231 0618 6344     		add	r3, r3, ip
 1232 061a 9B7A     		ldrb	r3, [r3, #10]
 1233 061c 1A00     		movs	r2, r3
 255:main.c        ****                 if (((testBuf[10] & testBuf[11]) == 0) &&
 1234              		.loc 1 255 0 discriminator 1
 1235 061e 9823     		movs	r3, #152
 1236 0620 5B00     		lsls	r3, r3, #1
 1237 0622 FB18     		adds	r3, r7, r3
 1238 0624 1B68     		ldr	r3, [r3]
 1239 0626 9342     		cmp	r3, r2
 1240 0628 4FD1     		bne	.L51
 1241              	.LBB6:
 257:main.c        ****                     for (int i = 0; i < 9; i++) {
 1242              		.loc 1 257 0
 1243 062a 0023     		movs	r3, #0
 1244 062c 9422     		movs	r2, #148
 1245 062e 5200     		lsls	r2, r2, #1
 1246 0630 BA18     		adds	r2, r7, r2
 1247 0632 1360     		str	r3, [r2]
 1248 0634 17E0     		b	.L52
 1249              	.L53:
 258:main.c        ****                         read[i] = testBuf[i];
 1250              		.loc 1 258 0 discriminator 3
 1251 0636 724B     		ldr	r3, .L103+48
 1252 0638 9C24     		movs	r4, #156
 1253 063a 6400     		lsls	r4, r4, #1
 1254 063c 3A19     		adds	r2, r7, r4
 1255 063e D218     		adds	r2, r2, r3
 1256 0640 9420     		movs	r0, #148
 1257 0642 4000     		lsls	r0, r0, #1
 1258 0644 3B18     		adds	r3, r7, r0
 1259 0646 1B68     		ldr	r3, [r3]
 1260 0648 D318     		adds	r3, r2, r3
 1261 064a 1978     		ldrb	r1, [r3]
 1262 064c 6F4B     		ldr	r3, .L103+60
 1263 064e 3A19     		adds	r2, r7, r4
 1264 0650 D218     		adds	r2, r2, r3
 1265 0652 3B18     		adds	r3, r7, r0
 1266 0654 1B68     		ldr	r3, [r3]
 1267 0656 D318     		adds	r3, r2, r3
 1268 0658 0A1C     		adds	r2, r1, #0
 1269 065a 1A70     		strb	r2, [r3]
ARM GAS  C:\Users\embedded\AppData\Local\Temp\ccHk1fkP.s 			page 29


 257:main.c        ****                     for (int i = 0; i < 9; i++) {
 1270              		.loc 1 257 0 discriminator 3
 1271 065c 3B18     		adds	r3, r7, r0
 1272 065e 1B68     		ldr	r3, [r3]
 1273 0660 0133     		adds	r3, r3, #1
 1274 0662 3A18     		adds	r2, r7, r0
 1275 0664 1360     		str	r3, [r2]
 1276              	.L52:
 257:main.c        ****                     for (int i = 0; i < 9; i++) {
 1277              		.loc 1 257 0 is_stmt 0 discriminator 1
 1278 0666 9423     		movs	r3, #148
 1279 0668 5B00     		lsls	r3, r3, #1
 1280 066a FB18     		adds	r3, r7, r3
 1281 066c 1B68     		ldr	r3, [r3]
 1282 066e 082B     		cmp	r3, #8
 1283 0670 E1DD     		ble	.L53
 1284              	.LBE6:
 259:main.c        ****                     }
 260:main.c        ****                     rounds = testBuf[9];
 1285              		.loc 1 260 0 is_stmt 1
 1286 0672 DB24     		movs	r4, #219
 1287 0674 3B19     		adds	r3, r7, r4
 1288 0676 624A     		ldr	r2, .L103+48
 1289 0678 9C21     		movs	r1, #156
 1290 067a 4900     		lsls	r1, r1, #1
 1291 067c 8C46     		mov	ip, r1
 1292 067e BC44     		add	ip, ip, r7
 1293 0680 6244     		add	r2, r2, ip
 1294 0682 527A     		ldrb	r2, [r2, #9]
 1295 0684 1A70     		strb	r2, [r3]
 261:main.c        ****                     lcdGotoxy(10, 30);
 1296              		.loc 1 261 0
 1297 0686 1E21     		movs	r1, #30
 1298 0688 0A20     		movs	r0, #10
 1299 068a FFF7FEFF 		bl	lcdGotoxy
 262:main.c        ****                     lcdPuts("TOP 1:");
 1300              		.loc 1 262 0
 1301 068e 604B     		ldr	r3, .L103+64
 1302 0690 1800     		movs	r0, r3
 1303 0692 FFF7FEFF 		bl	lcdPuts
 263:main.c        ****                     lcdGotoxy(10, 50);
 1304              		.loc 1 263 0
 1305 0696 3221     		movs	r1, #50
 1306 0698 0A20     		movs	r0, #10
 1307 069a FFF7FEFF 		bl	lcdGotoxy
 264:main.c        ****                     lcdPuts(read);
 1308              		.loc 1 264 0
 1309 069e 2823     		movs	r3, #40
 1310 06a0 FB18     		adds	r3, r7, r3
 1311 06a2 1800     		movs	r0, r3
 1312 06a4 FFF7FEFF 		bl	lcdPuts
 265:main.c        ****                     lcdGotoxy(10, 70);
 1313              		.loc 1 265 0
 1314 06a8 4621     		movs	r1, #70
 1315 06aa 0A20     		movs	r0, #10
 1316 06ac FFF7FEFF 		bl	lcdGotoxy
 266:main.c        ****                     lcdPuts("Wygrane: ");
ARM GAS  C:\Users\embedded\AppData\Local\Temp\ccHk1fkP.s 			page 30


 1317              		.loc 1 266 0
 1318 06b0 584B     		ldr	r3, .L103+68
 1319 06b2 1800     		movs	r0, r3
 1320 06b4 FFF7FEFF 		bl	lcdPuts
 267:main.c        ****                     lcdPutchar(rounds + '0');
 1321              		.loc 1 267 0
 1322 06b8 3B19     		adds	r3, r7, r4
 1323 06ba 1B78     		ldrb	r3, [r3]
 1324 06bc 3033     		adds	r3, r3, #48
 1325 06be 1B06     		lsls	r3, r3, #24
 1326 06c0 1B0E     		lsrs	r3, r3, #24
 1327 06c2 1800     		movs	r0, r3
 1328 06c4 FFF7FEFF 		bl	lcdPutchar
 1329 06c8 07E0     		b	.L47
 1330              	.L51:
 268:main.c        ****                 } else {
 269:main.c        ****                     lcdGotoxy(10, 50);
 1331              		.loc 1 269 0
 1332 06ca 3221     		movs	r1, #50
 1333 06cc 0A20     		movs	r0, #10
 1334 06ce FFF7FEFF 		bl	lcdGotoxy
 270:main.c        ****                     lcdPuts("Brak wynikow");
 1335              		.loc 1 270 0
 1336 06d2 514B     		ldr	r3, .L103+72
 1337 06d4 1800     		movs	r0, r3
 1338 06d6 FFF7FEFF 		bl	lcdPuts
 1339              	.L47:
 1340              	.LBE4:
 244:main.c        ****                 tU8 testBuf[12];
 1341              		.loc 1 244 0
 1342 06da 464B     		ldr	r3, .L103+36
 1343 06dc 1A68     		ldr	r2, [r3]
 1344 06de 8023     		movs	r3, #128
 1345 06e0 5B00     		lsls	r3, r3, #1
 1346 06e2 1340     		ands	r3, r2
 1347 06e4 00D0     		beq	.LCB1070
 1348 06e6 3BE7     		b	.L55	@long jump
 1349              	.LCB1070:
 271:main.c        ****                 }
 272:main.c        ****             }
 273:main.c        ****             choice = 0;
 1350              		.loc 1 273 0
 1351 06e8 0023     		movs	r3, #0
 1352 06ea 9A22     		movs	r2, #154
 1353 06ec 5200     		lsls	r2, r2, #1
 1354 06ee BA18     		adds	r2, r7, r2
 1355 06f0 1360     		str	r3, [r2]
 1356              	.L46:
 274:main.c        ****         }
 275:main.c        ****         if (choice == 2) {  // gra
 1357              		.loc 1 275 0
 1358 06f2 9A23     		movs	r3, #154
 1359 06f4 5B00     		lsls	r3, r3, #1
 1360 06f6 FB18     		adds	r3, r7, r3
 1361 06f8 1B68     		ldr	r3, [r3]
 1362 06fa 022B     		cmp	r3, #2
 1363 06fc 01D0     		beq	.LCB1083
ARM GAS  C:\Users\embedded\AppData\Local\Temp\ccHk1fkP.s 			page 31


 1364 06fe 00F085FC 		bl	.L56	@far jump
 1365              	.LCB1083:
 1366              	.LBB7:
 276:main.c        ****             delayMs(1000);
 1367              		.loc 1 276 0
 1368 0702 FA23     		movs	r3, #250
 1369 0704 9B00     		lsls	r3, r3, #2
 1370 0706 1800     		movs	r0, r3
 1371 0708 FFF7FEFF 		bl	delayMs
 277:main.c        ****             lcdClrscr();
 1372              		.loc 1 277 0
 1373 070c FFF7FEFF 		bl	lcdClrscr
 278:main.c        ****             lcdGotoxy(20, 20);
 1374              		.loc 1 278 0
 1375 0710 1421     		movs	r1, #20
 1376 0712 1420     		movs	r0, #20
 1377 0714 FFF7FEFF 		bl	lcdGotoxy
 279:main.c        ****             lcdPuts("REFLEKS");
 1378              		.loc 1 279 0
 1379 0718 404B     		ldr	r3, .L103+76
 1380 071a 1800     		movs	r0, r3
 1381 071c FFF7FEFF 		bl	lcdPuts
 280:main.c        ****             lcdPuts("\n\n  dzwiek:");
 1382              		.loc 1 280 0
 1383 0720 3F4B     		ldr	r3, .L103+80
 1384 0722 1800     		movs	r0, r3
 1385 0724 FFF7FEFF 		bl	lcdPuts
 281:main.c        ****             lcdPuts("\n  niski-lewo");
 1386              		.loc 1 281 0
 1387 0728 3E4B     		ldr	r3, .L103+84
 1388 072a 1800     		movs	r0, r3
 1389 072c FFF7FEFF 		bl	lcdPuts
 282:main.c        ****             lcdPuts("\n  wysoki-prawo");
 1390              		.loc 1 282 0
 1391 0730 3D4B     		ldr	r3, .L103+88
 1392 0732 1800     		movs	r0, r3
 1393 0734 FFF7FEFF 		bl	lcdPuts
 283:main.c        **** 
 284:main.c        ****             while ((IOPIN & 0x00000100) != 0) {
 1394              		.loc 1 284 0
 1395 0738 C046     		nop
 1396              	.L57:
 1397              		.loc 1 284 0 is_stmt 0 discriminator 1
 1398 073a 2E4B     		ldr	r3, .L103+36
 1399 073c 1A68     		ldr	r2, [r3]
 1400 073e 8023     		movs	r3, #128
 1401 0740 5B00     		lsls	r3, r3, #1
 1402 0742 1340     		ands	r3, r2
 1403 0744 F9D1     		bne	.L57
 285:main.c        ****             }
 286:main.c        ****             lcdClrscr();
 1404              		.loc 1 286 0 is_stmt 1
 1405 0746 FFF7FEFF 		bl	lcdClrscr
 287:main.c        ****             delayMs(1000);
 1406              		.loc 1 287 0
 1407 074a FA23     		movs	r3, #250
 1408 074c 9B00     		lsls	r3, r3, #2
ARM GAS  C:\Users\embedded\AppData\Local\Temp\ccHk1fkP.s 			page 32


 1409 074e 1800     		movs	r0, r3
 1410 0750 FFF7FEFF 		bl	delayMs
 288:main.c        **** 
 289:main.c        ****             tBool exit = TRUE;
 1411              		.loc 1 289 0
 1412 0754 2823     		movs	r3, #40
 1413 0756 FF33     		adds	r3, r3, #255
 1414 0758 FB18     		adds	r3, r7, r3
 1415 075a 0122     		movs	r2, #1
 1416 075c 1A70     		strb	r2, [r3]
 290:main.c        ****             while (((IOPIN & 0x00000100) != 0) && exit) {
 1417              		.loc 1 290 0
 1418 075e 00F042FC 		bl	.L58	@ far jump
 1419              	.L101:
 1420              	.LBB8:
 291:main.c        ****                 int number;
 292:main.c        ****                 char num_char[8 + (int)sizeof(char)];
 293:main.c        ****                 int waitingfor = 1;
 1421              		.loc 1 293 0
 1422 0762 0123     		movs	r3, #1
 1423 0764 8E22     		movs	r2, #142
 1424 0766 5200     		lsls	r2, r2, #1
 1425 0768 BA18     		adds	r2, r7, r2
 1426 076a 1360     		str	r3, [r2]
 294:main.c        ****                 int seconds = 0;
 1427              		.loc 1 294 0
 1428 076c 0023     		movs	r3, #0
 1429 076e 8C22     		movs	r2, #140
 1430 0770 5200     		lsls	r2, r2, #1
 1431 0772 BA18     		adds	r2, r7, r2
 1432 0774 1360     		str	r3, [r2]
 295:main.c        ****                 int miliseconds = 0;
 1433              		.loc 1 295 0
 1434 0776 0023     		movs	r3, #0
 1435 0778 8A22     		movs	r2, #138
 1436 077a 5200     		lsls	r2, r2, #1
 1437 077c BA18     		adds	r2, r7, r2
 1438 077e 1360     		str	r3, [r2]
 296:main.c        ****                 int howManyRounds = 0;  // wygranych
 1439              		.loc 1 296 0
 1440 0780 0023     		movs	r3, #0
 1441 0782 8822     		movs	r2, #136
 1442 0784 5200     		lsls	r2, r2, #1
 1443 0786 BA18     		adds	r2, r7, r2
 1444 0788 1360     		str	r3, [r2]
 297:main.c        ****                 tBool exitFor = FALSE;
 1445              		.loc 1 297 0
 1446 078a 1023     		movs	r3, #16
 1447 078c FF33     		adds	r3, r3, #255
 1448 078e FB18     		adds	r3, r7, r3
 1449 0790 0022     		movs	r2, #0
 1450 0792 1A70     		strb	r2, [r3]
 1451              	.LBB9:
 298:main.c        ****                 for (int i = 0; (i < 5) && !exitFor; i++) {
 1452              		.loc 1 298 0
 1453 0794 0023     		movs	r3, #0
 1454 0796 8422     		movs	r2, #132
ARM GAS  C:\Users\embedded\AppData\Local\Temp\ccHk1fkP.s 			page 33


 1455 0798 5200     		lsls	r2, r2, #1
 1456 079a BA18     		adds	r2, r7, r2
 1457 079c 1360     		str	r3, [r2]
 1458 079e 76E1     		b	.L59
 1459              	.L71:
 1460              	.LBB10:
 299:main.c        ****                     lcdClrscr();
 1461              		.loc 1 299 0
 1462 07a0 FFF7FEFF 		bl	lcdClrscr
 300:main.c        ****                     int correct = timeTwo % 2; 
 1463              		.loc 1 300 0
 1464 07a4 0A4B     		ldr	r3, .L103
 1465 07a6 1B68     		ldr	r3, [r3]
 1466 07a8 1A00     		movs	r2, r3
 1467 07aa 0123     		movs	r3, #1
 1468 07ac 1340     		ands	r3, r2
 1469 07ae D422     		movs	r2, #212
 1470 07b0 B918     		adds	r1, r7, r2
 1471 07b2 0B60     		str	r3, [r1]
 301:main.c        ****                     int directionAddr;
 302:main.c        ****                     int freq;
 303:main.c        ****                     if (correct == 0) { //niski
 1472              		.loc 1 303 0
 1473 07b4 BB18     		adds	r3, r7, r2
 1474 07b6 1B68     		ldr	r3, [r3]
 1475 07b8 002B     		cmp	r3, #0
 1476 07ba 37D1     		bne	.L60
 304:main.c        ****                         freq = 220;
 1477              		.loc 1 304 0
 1478 07bc DC23     		movs	r3, #220
 1479 07be 7A1C     		adds	r2, r7, #1
 1480 07c0 FF32     		adds	r2, r2, #255
 1481 07c2 1360     		str	r3, [r2]
 305:main.c        ****                         directionAddr = 0x00000200;
 1482              		.loc 1 305 0
 1483 07c4 8023     		movs	r3, #128
 1484 07c6 9B00     		lsls	r3, r3, #2
 1485 07c8 7A1D     		adds	r2, r7, #5
 1486 07ca FF32     		adds	r2, r2, #255
 1487 07cc 1360     		str	r3, [r2]
 1488 07ce 37E0     		b	.L61
 1489              	.L104:
 1490              		.align	2
 1491              	.L103:
 1492 07d0 00000000 		.word	timeTwo
 1493 07d4 04C002E0 		.word	-536690684
 1494 07d8 FFFFF3FF 		.word	-786433
 1495 07dc 64010000 		.word	.LC0
 1496 07e0 AC010000 		.word	.LC1
 1497 07e4 00000000 		.word	.LC6
 1498 07e8 14000000 		.word	.LC8
 1499 07ec 2C000000 		.word	.LC10
 1500 07f0 40000000 		.word	.LC12
 1501 07f4 008002E0 		.word	-536707072
 1502 07f8 54000000 		.word	.LC14
 1503 07fc 5C000000 		.word	.LC16
 1504 0800 FCFEFFFF 		.word	-260
ARM GAS  C:\Users\embedded\AppData\Local\Temp\ccHk1fkP.s 			page 34


 1505 0804 FF000080 		.word	-2147483393
 1506 0808 00FFFFFF 		.word	-256
 1507 080c F0FEFFFF 		.word	-272
 1508 0810 64000000 		.word	.LC18
 1509 0814 6C000000 		.word	.LC20
 1510 0818 78000000 		.word	.LC22
 1511 081c 88000000 		.word	.LC24
 1512 0820 90000000 		.word	.LC26
 1513 0824 9C000000 		.word	.LC28
 1514 0828 AC000000 		.word	.LC30
 1515              	.L60:
 306:main.c        ****                     } else { //wysoki
 307:main.c        ****                         freq = 880;
 1516              		.loc 1 307 0
 1517 082c DC23     		movs	r3, #220
 1518 082e 9B00     		lsls	r3, r3, #2
 1519 0830 7A1C     		adds	r2, r7, #1
 1520 0832 FF32     		adds	r2, r2, #255
 1521 0834 1360     		str	r3, [r2]
 308:main.c        ****                         directionAddr = 0x00000800;
 1522              		.loc 1 308 0
 1523 0836 8023     		movs	r3, #128
 1524 0838 1B01     		lsls	r3, r3, #4
 1525 083a 7A1D     		adds	r2, r7, #5
 1526 083c FF32     		adds	r2, r2, #255
 1527 083e 1360     		str	r3, [r2]
 1528              	.L61:
 309:main.c        ****                     }
 310:main.c        ****                     playSound(freq, 640 * freq);
 1529              		.loc 1 310 0
 1530 0840 7B1C     		adds	r3, r7, #1
 1531 0842 FF33     		adds	r3, r3, #255
 1532 0844 1A68     		ldr	r2, [r3]
 1533 0846 1300     		movs	r3, r2
 1534 0848 9B00     		lsls	r3, r3, #2
 1535 084a 9B18     		adds	r3, r3, r2
 1536 084c DB01     		lsls	r3, r3, #7
 1537 084e 1A00     		movs	r2, r3
 1538 0850 7B1C     		adds	r3, r7, #1
 1539 0852 FF33     		adds	r3, r3, #255
 1540 0854 1B68     		ldr	r3, [r3]
 1541 0856 1100     		movs	r1, r2
 1542 0858 1800     		movs	r0, r3
 1543 085a FFF7FEFF 		bl	playSound
 311:main.c        ****                     init_irq(10, 20);
 1544              		.loc 1 311 0
 1545 085e 1421     		movs	r1, #20
 1546 0860 0A20     		movs	r0, #10
 1547 0862 FFF797FC 		bl	init_irq
 312:main.c        ****                     number = 0;
 1548              		.loc 1 312 0
 1549 0866 0023     		movs	r3, #0
 1550 0868 9022     		movs	r2, #144
 1551 086a 5200     		lsls	r2, r2, #1
 1552 086c BA18     		adds	r2, r7, r2
 1553 086e 1360     		str	r3, [r2]
 313:main.c        ****                     waitingfor = 1;
ARM GAS  C:\Users\embedded\AppData\Local\Temp\ccHk1fkP.s 			page 35


 1554              		.loc 1 313 0
 1555 0870 0123     		movs	r3, #1
 1556 0872 8E22     		movs	r2, #142
 1557 0874 5200     		lsls	r2, r2, #1
 1558 0876 BA18     		adds	r2, r7, r2
 1559 0878 1360     		str	r3, [r2]
 314:main.c        ****                     lcdGotoxy(10, 10);
 1560              		.loc 1 314 0
 1561 087a 0A21     		movs	r1, #10
 1562 087c 0A20     		movs	r0, #10
 1563 087e FFF7FEFF 		bl	lcdGotoxy
 315:main.c        ****                     lcdPuts("Runda ");
 1564              		.loc 1 315 0
 1565 0882 DD4B     		ldr	r3, .L105
 1566 0884 1800     		movs	r0, r3
 1567 0886 FFF7FEFF 		bl	lcdPuts
 316:main.c        ****                     lcdPutchar(i + 1 + '0');
 1568              		.loc 1 316 0
 1569 088a 8423     		movs	r3, #132
 1570 088c 5B00     		lsls	r3, r3, #1
 1571 088e FB18     		adds	r3, r7, r3
 1572 0890 1B68     		ldr	r3, [r3]
 1573 0892 1B06     		lsls	r3, r3, #24
 1574 0894 1B0E     		lsrs	r3, r3, #24
 1575 0896 3133     		adds	r3, r3, #49
 1576 0898 1B06     		lsls	r3, r3, #24
 1577 089a 1B0E     		lsrs	r3, r3, #24
 1578 089c 1800     		movs	r0, r3
 1579 089e FFF7FEFF 		bl	lcdPutchar
 1580              	.L68:
 317:main.c        ****                     while (1) {
 318:main.c        ****                         if (timeTwo >=
 1581              		.loc 1 318 0
 1582 08a2 D64B     		ldr	r3, .L105+4
 1583 08a4 1A68     		ldr	r2, [r3]
 319:main.c        ****                             (unsigned int)waitingfor) { 
 1584              		.loc 1 319 0
 1585 08a6 8E23     		movs	r3, #142
 1586 08a8 5B00     		lsls	r3, r3, #1
 1587 08aa FB18     		adds	r3, r7, r3
 1588 08ac 1B68     		ldr	r3, [r3]
 318:main.c        ****                             (unsigned int)waitingfor) { 
 1589              		.loc 1 318 0
 1590 08ae 9A42     		cmp	r2, r3
 1591 08b0 3ED3     		bcc	.L62
 320:main.c        ****                             seconds = number / 100;
 1592              		.loc 1 320 0
 1593 08b2 9024     		movs	r4, #144
 1594 08b4 6400     		lsls	r4, r4, #1
 1595 08b6 3B19     		adds	r3, r7, r4
 1596 08b8 1B68     		ldr	r3, [r3]
 1597 08ba 6421     		movs	r1, #100
 1598 08bc 1800     		movs	r0, r3
 1599 08be FFF7FEFF 		bl	__aeabi_idiv
 1600              	.LVL4:
 1601 08c2 0300     		movs	r3, r0
 1602 08c4 8C25     		movs	r5, #140
ARM GAS  C:\Users\embedded\AppData\Local\Temp\ccHk1fkP.s 			page 36


 1603 08c6 6D00     		lsls	r5, r5, #1
 1604 08c8 7A19     		adds	r2, r7, r5
 1605 08ca 1360     		str	r3, [r2]
 321:main.c        ****                             miliseconds = number - (seconds * 100);
 1606              		.loc 1 321 0
 1607 08cc 7B19     		adds	r3, r7, r5
 1608 08ce 1A68     		ldr	r2, [r3]
 1609 08d0 1300     		movs	r3, r2
 1610 08d2 5B06     		lsls	r3, r3, #25
 1611 08d4 9B1A     		subs	r3, r3, r2
 1612 08d6 9B00     		lsls	r3, r3, #2
 1613 08d8 9B18     		adds	r3, r3, r2
 1614 08da DB00     		lsls	r3, r3, #3
 1615 08dc 9B1A     		subs	r3, r3, r2
 1616 08de 9B00     		lsls	r3, r3, #2
 1617 08e0 1A00     		movs	r2, r3
 1618 08e2 3B19     		adds	r3, r7, r4
 1619 08e4 1B68     		ldr	r3, [r3]
 1620 08e6 9B18     		adds	r3, r3, r2
 1621 08e8 8A26     		movs	r6, #138
 1622 08ea 7600     		lsls	r6, r6, #1
 1623 08ec BA19     		adds	r2, r7, r6
 1624 08ee 1360     		str	r3, [r2]
 322:main.c        ****                             lcdGotoxy(10, 30);
 1625              		.loc 1 322 0
 1626 08f0 1E21     		movs	r1, #30
 1627 08f2 0A20     		movs	r0, #10
 1628 08f4 FFF7FEFF 		bl	lcdGotoxy
 323:main.c        ****                             snprintf(num_char, sizeof(num_char), "00:%02d:%02d", seconds,
 1629              		.loc 1 323 0
 1630 08f8 7B19     		adds	r3, r7, r5
 1631 08fa 1968     		ldr	r1, [r3]
 1632 08fc C04A     		ldr	r2, .L105+8
 1633 08fe 1C25     		movs	r5, #28
 1634 0900 7819     		adds	r0, r7, r5
 1635 0902 BB19     		adds	r3, r7, r6
 1636 0904 1B68     		ldr	r3, [r3]
 1637 0906 0093     		str	r3, [sp]
 1638 0908 0B00     		movs	r3, r1
 1639 090a 0921     		movs	r1, #9
 1640 090c FFF7FEFF 		bl	snprintf
 324:main.c        ****                                      miliseconds);
 325:main.c        ****                             lcdPuts(num_char);
 1641              		.loc 1 325 0
 1642 0910 7B19     		adds	r3, r7, r5
 1643 0912 1800     		movs	r0, r3
 1644 0914 FFF7FEFF 		bl	lcdPuts
 326:main.c        ****                             number += 1;
 1645              		.loc 1 326 0
 1646 0918 3B19     		adds	r3, r7, r4
 1647 091a 1B68     		ldr	r3, [r3]
 1648 091c 0133     		adds	r3, r3, #1
 1649 091e 3A19     		adds	r2, r7, r4
 1650 0920 1360     		str	r3, [r2]
 327:main.c        ****                             waitingfor += 1;
 1651              		.loc 1 327 0
 1652 0922 8E22     		movs	r2, #142
ARM GAS  C:\Users\embedded\AppData\Local\Temp\ccHk1fkP.s 			page 37


 1653 0924 5200     		lsls	r2, r2, #1
 1654 0926 BB18     		adds	r3, r7, r2
 1655 0928 1B68     		ldr	r3, [r3]
 1656 092a 0133     		adds	r3, r3, #1
 1657 092c BA18     		adds	r2, r7, r2
 1658 092e 1360     		str	r3, [r2]
 1659              	.L62:
 328:main.c        ****                         }
 329:main.c        ****                         if ((IOPIN & directionAddr) == 0) {
 1660              		.loc 1 329 0
 1661 0930 B44B     		ldr	r3, .L105+12
 1662 0932 1B68     		ldr	r3, [r3]
 1663 0934 7A1D     		adds	r2, r7, #5
 1664 0936 FF32     		adds	r2, r2, #255
 1665 0938 1268     		ldr	r2, [r2]
 1666 093a 1340     		ands	r3, r2
 1667 093c 40D1     		bne	.L63
 330:main.c        ****                             lcdGotoxy(10, 50);
 1668              		.loc 1 330 0
 1669 093e 3221     		movs	r1, #50
 1670 0940 0A20     		movs	r0, #10
 1671 0942 FFF7FEFF 		bl	lcdGotoxy
 331:main.c        ****                             lcdPuts("Twoj czas:");
 1672              		.loc 1 331 0
 1673 0946 B04B     		ldr	r3, .L105+16
 1674 0948 1800     		movs	r0, r3
 1675 094a FFF7FEFF 		bl	lcdPuts
 332:main.c        ****                             lcdGotoxy(10, 70);
 1676              		.loc 1 332 0
 1677 094e 4621     		movs	r1, #70
 1678 0950 0A20     		movs	r0, #10
 1679 0952 FFF7FEFF 		bl	lcdGotoxy
 333:main.c        ****                             snprintf(num_char, sizeof(num_char), "00:%02d:%02d", seconds,
 1680              		.loc 1 333 0
 1681 0956 8C23     		movs	r3, #140
 1682 0958 5B00     		lsls	r3, r3, #1
 1683 095a FB18     		adds	r3, r7, r3
 1684 095c 1968     		ldr	r1, [r3]
 1685 095e A84A     		ldr	r2, .L105+8
 1686 0960 1C24     		movs	r4, #28
 1687 0962 3819     		adds	r0, r7, r4
 1688 0964 8A23     		movs	r3, #138
 1689 0966 5B00     		lsls	r3, r3, #1
 1690 0968 FB18     		adds	r3, r7, r3
 1691 096a 1B68     		ldr	r3, [r3]
 1692 096c 0093     		str	r3, [sp]
 1693 096e 0B00     		movs	r3, r1
 1694 0970 0921     		movs	r1, #9
 1695 0972 FFF7FEFF 		bl	snprintf
 334:main.c        ****                                      miliseconds);
 335:main.c        ****                             lcdPuts(num_char);
 1696              		.loc 1 335 0
 1697 0976 3B19     		adds	r3, r7, r4
 1698 0978 1800     		movs	r0, r3
 1699 097a FFF7FEFF 		bl	lcdPuts
 336:main.c        ****                             howManyRounds = i + 1;
 1700              		.loc 1 336 0
ARM GAS  C:\Users\embedded\AppData\Local\Temp\ccHk1fkP.s 			page 38


 1701 097e 8424     		movs	r4, #132
 1702 0980 6400     		lsls	r4, r4, #1
 1703 0982 3B19     		adds	r3, r7, r4
 1704 0984 1B68     		ldr	r3, [r3]
 1705 0986 0133     		adds	r3, r3, #1
 1706 0988 8822     		movs	r2, #136
 1707 098a 5200     		lsls	r2, r2, #1
 1708 098c BA18     		adds	r2, r7, r2
 1709 098e 1360     		str	r3, [r2]
 337:main.c        ****                             setPca9532Pin(7 - i, 0);
 1710              		.loc 1 337 0
 1711 0990 3B19     		adds	r3, r7, r4
 1712 0992 1B68     		ldr	r3, [r3]
 1713 0994 1B06     		lsls	r3, r3, #24
 1714 0996 1B0E     		lsrs	r3, r3, #24
 1715 0998 0722     		movs	r2, #7
 1716 099a D31A     		subs	r3, r2, r3
 1717 099c 1B06     		lsls	r3, r3, #24
 1718 099e 1B0E     		lsrs	r3, r3, #24
 1719 09a0 0021     		movs	r1, #0
 1720 09a2 1800     		movs	r0, r3
 1721 09a4 FFF7FEFF 		bl	setPca9532Pin
 338:main.c        ****                             setPca9532Pin(8 + i, 0);
 1722              		.loc 1 338 0
 1723 09a8 3B19     		adds	r3, r7, r4
 1724 09aa 1B68     		ldr	r3, [r3]
 1725 09ac 1B06     		lsls	r3, r3, #24
 1726 09ae 1B0E     		lsrs	r3, r3, #24
 1727 09b0 0833     		adds	r3, r3, #8
 1728 09b2 1B06     		lsls	r3, r3, #24
 1729 09b4 1B0E     		lsrs	r3, r3, #24
 1730 09b6 0021     		movs	r1, #0
 1731 09b8 1800     		movs	r0, r3
 1732 09ba FFF7FEFF 		bl	setPca9532Pin
 339:main.c        ****                             break;
 1733              		.loc 1 339 0
 1734 09be 58E0     		b	.L64
 1735              	.L63:
 340:main.c        ****                         }
 341:main.c        ****                         if (number > (500 / (i + 1))) {
 1736              		.loc 1 341 0
 1737 09c0 8423     		movs	r3, #132
 1738 09c2 5B00     		lsls	r3, r3, #1
 1739 09c4 FB18     		adds	r3, r7, r3
 1740 09c6 1B68     		ldr	r3, [r3]
 1741 09c8 0133     		adds	r3, r3, #1
 1742 09ca 1900     		movs	r1, r3
 1743 09cc FA23     		movs	r3, #250
 1744 09ce 5800     		lsls	r0, r3, #1
 1745 09d0 FFF7FEFF 		bl	__aeabi_idiv
 1746              	.LVL5:
 1747 09d4 0300     		movs	r3, r0
 1748 09d6 1A00     		movs	r2, r3
 1749 09d8 9023     		movs	r3, #144
 1750 09da 5B00     		lsls	r3, r3, #1
 1751 09dc FB18     		adds	r3, r7, r3
 1752 09de 1B68     		ldr	r3, [r3]
ARM GAS  C:\Users\embedded\AppData\Local\Temp\ccHk1fkP.s 			page 39


 1753 09e0 9342     		cmp	r3, r2
 1754 09e2 00DC     		bgt	.LCB1444
 1755 09e4 5DE7     		b	.L68	@long jump
 1756              	.LCB1444:
 342:main.c        ****                             howManyRounds = i;
 1757              		.loc 1 342 0
 1758 09e6 8423     		movs	r3, #132
 1759 09e8 5B00     		lsls	r3, r3, #1
 1760 09ea FB18     		adds	r3, r7, r3
 1761 09ec 1B68     		ldr	r3, [r3]
 1762 09ee 8822     		movs	r2, #136
 1763 09f0 5200     		lsls	r2, r2, #1
 1764 09f2 BA18     		adds	r2, r7, r2
 1765 09f4 1360     		str	r3, [r2]
 343:main.c        ****                             exitFor = TRUE;
 1766              		.loc 1 343 0
 1767 09f6 1023     		movs	r3, #16
 1768 09f8 FF33     		adds	r3, r3, #255
 1769 09fa FB18     		adds	r3, r7, r3
 1770 09fc 0122     		movs	r2, #1
 1771 09fe 1A70     		strb	r2, [r3]
 344:main.c        ****                             lcdClrscr();
 1772              		.loc 1 344 0
 1773 0a00 FFF7FEFF 		bl	lcdClrscr
 345:main.c        ****                             lcdGotoxy(10, 30);
 1774              		.loc 1 345 0
 1775 0a04 1E21     		movs	r1, #30
 1776 0a06 0A20     		movs	r0, #10
 1777 0a08 FFF7FEFF 		bl	lcdGotoxy
 346:main.c        ****                             lcdPuts("przegrales!");
 1778              		.loc 1 346 0
 1779 0a0c 7F4B     		ldr	r3, .L105+20
 1780 0a0e 1800     		movs	r0, r3
 1781 0a10 FFF7FEFF 		bl	lcdPuts
 1782              	.LBB11:
 347:main.c        ****                             for (int i = 0; i < 18; i++) {
 1783              		.loc 1 347 0
 1784 0a14 0023     		movs	r3, #0
 1785 0a16 FC22     		movs	r2, #252
 1786 0a18 BA18     		adds	r2, r7, r2
 1787 0a1a 1360     		str	r3, [r2]
 1788 0a1c 24E0     		b	.L66
 1789              	.L67:
 348:main.c        ****                                 playSound(freqs[i], times[i] * freqs[i] / 100000); //
 1790              		.loc 1 348 0 discriminator 3
 1791 0a1e 8821     		movs	r1, #136
 1792 0a20 7B18     		adds	r3, r7, r1
 1793 0a22 FC25     		movs	r5, #252
 1794 0a24 7A19     		adds	r2, r7, r5
 1795 0a26 1268     		ldr	r2, [r2]
 1796 0a28 9200     		lsls	r2, r2, #2
 1797 0a2a D458     		ldr	r4, [r2, r3]
 1798 0a2c 4023     		movs	r3, #64
 1799 0a2e FB18     		adds	r3, r7, r3
 1800 0a30 7A19     		adds	r2, r7, r5
 1801 0a32 1268     		ldr	r2, [r2]
 1802 0a34 9200     		lsls	r2, r2, #2
ARM GAS  C:\Users\embedded\AppData\Local\Temp\ccHk1fkP.s 			page 40


 1803 0a36 D058     		ldr	r0, [r2, r3]
 1804 0a38 7A18     		adds	r2, r7, r1
 1805 0a3a 7B19     		adds	r3, r7, r5
 1806 0a3c 1968     		ldr	r1, [r3]
 1807 0a3e 8900     		lsls	r1, r1, #2
 1808 0a40 8A58     		ldr	r2, [r1, r2]
 1809 0a42 0300     		movs	r3, r0
 1810 0a44 5343     		muls	r3, r2
 1811 0a46 7249     		ldr	r1, .L105+24
 1812 0a48 1800     		movs	r0, r3
 1813 0a4a FFF7FEFF 		bl	__aeabi_idiv
 1814              	.LVL6:
 1815 0a4e 0300     		movs	r3, r0
 1816 0a50 1900     		movs	r1, r3
 1817 0a52 2000     		movs	r0, r4
 1818 0a54 FFF7FEFF 		bl	playSound
 349:main.c        ****                                 delayMs(100);
 1819              		.loc 1 349 0 discriminator 3
 1820 0a58 6420     		movs	r0, #100
 1821 0a5a FFF7FEFF 		bl	delayMs
 347:main.c        ****                             for (int i = 0; i < 18; i++) {
 1822              		.loc 1 347 0 discriminator 3
 1823 0a5e 7B19     		adds	r3, r7, r5
 1824 0a60 1B68     		ldr	r3, [r3]
 1825 0a62 0133     		adds	r3, r3, #1
 1826 0a64 7A19     		adds	r2, r7, r5
 1827 0a66 1360     		str	r3, [r2]
 1828              	.L66:
 347:main.c        ****                             for (int i = 0; i < 18; i++) {
 1829              		.loc 1 347 0 is_stmt 0 discriminator 1
 1830 0a68 FC23     		movs	r3, #252
 1831 0a6a FB18     		adds	r3, r7, r3
 1832 0a6c 1B68     		ldr	r3, [r3]
 1833 0a6e 112B     		cmp	r3, #17
 1834 0a70 D5DD     		ble	.L67
 1835              	.L64:
 1836              	.LBE11:
 350:main.c        ****                             }
 351:main.c        ****                             break;
 352:main.c        ****                         }
 353:main.c        ****                     }
 354:main.c        ****                     while ((IOPIN & 0x00000400) != 0) {
 1837              		.loc 1 354 0 is_stmt 1 discriminator 1
 1838 0a72 C046     		nop
 1839              	.L69:
 1840 0a74 634B     		ldr	r3, .L105+12
 1841 0a76 1A68     		ldr	r2, [r3]
 1842 0a78 8023     		movs	r3, #128
 1843 0a7a DB00     		lsls	r3, r3, #3
 1844 0a7c 1340     		ands	r3, r2
 1845 0a7e F9D1     		bne	.L69
 1846              	.LBE10:
 298:main.c        ****                     lcdClrscr();
 1847              		.loc 1 298 0 discriminator 2
 1848 0a80 8422     		movs	r2, #132
 1849 0a82 5200     		lsls	r2, r2, #1
 1850 0a84 BB18     		adds	r3, r7, r2
ARM GAS  C:\Users\embedded\AppData\Local\Temp\ccHk1fkP.s 			page 41


 1851 0a86 1B68     		ldr	r3, [r3]
 1852 0a88 0133     		adds	r3, r3, #1
 1853 0a8a BA18     		adds	r2, r7, r2
 1854 0a8c 1360     		str	r3, [r2]
 1855              	.L59:
 298:main.c        ****                     lcdClrscr();
 1856              		.loc 1 298 0 is_stmt 0 discriminator 1
 1857 0a8e 8423     		movs	r3, #132
 1858 0a90 5B00     		lsls	r3, r3, #1
 1859 0a92 FB18     		adds	r3, r7, r3
 1860 0a94 1B68     		ldr	r3, [r3]
 1861 0a96 042B     		cmp	r3, #4
 1862 0a98 06DC     		bgt	.L70
 298:main.c        ****                     lcdClrscr();
 1863              		.loc 1 298 0 discriminator 3
 1864 0a9a 1023     		movs	r3, #16
 1865 0a9c FF33     		adds	r3, r3, #255
 1866 0a9e FB18     		adds	r3, r7, r3
 1867 0aa0 1B78     		ldrb	r3, [r3]
 1868 0aa2 002B     		cmp	r3, #0
 1869 0aa4 00D1     		bne	.LCB1553
 1870 0aa6 7BE6     		b	.L71	@long jump
 1871              	.LCB1553:
 1872              	.L70:
 1873              	.LBE9:
 355:main.c        ****                     }  // przejscie do kolejnej rundy joystick w gore
 356:main.c        ****                 }
 357:main.c        ****                 if (howManyRounds == 5) {
 1874              		.loc 1 357 0 is_stmt 1
 1875 0aa8 8823     		movs	r3, #136
 1876 0aaa 5B00     		lsls	r3, r3, #1
 1877 0aac FB18     		adds	r3, r7, r3
 1878 0aae 1B68     		ldr	r3, [r3]
 1879 0ab0 052B     		cmp	r3, #5
 1880 0ab2 0DD1     		bne	.L72
 358:main.c        ****                     lcdClrscr();
 1881              		.loc 1 358 0
 1882 0ab4 FFF7FEFF 		bl	lcdClrscr
 359:main.c        ****                     lcdGotoxy(10, 20);
 1883              		.loc 1 359 0
 1884 0ab8 1421     		movs	r1, #20
 1885 0aba 0A20     		movs	r0, #10
 1886 0abc FFF7FEFF 		bl	lcdGotoxy
 360:main.c        ****                     lcdPuts("wygrales!");
 1887              		.loc 1 360 0
 1888 0ac0 544B     		ldr	r3, .L105+28
 1889 0ac2 1800     		movs	r0, r3
 1890 0ac4 FFF7FEFF 		bl	lcdPuts
 361:main.c        ****                     lcdPuts("\njestes najlepszy!");
 1891              		.loc 1 361 0
 1892 0ac8 534B     		ldr	r3, .L105+32
 1893 0aca 1800     		movs	r0, r3
 1894 0acc FFF7FEFF 		bl	lcdPuts
 1895              	.L72:
 362:main.c        ****                 }
 363:main.c        ****                 lcdGotoxy(0, 50);
 1896              		.loc 1 363 0
ARM GAS  C:\Users\embedded\AppData\Local\Temp\ccHk1fkP.s 			page 42


 1897 0ad0 3221     		movs	r1, #50
 1898 0ad2 0020     		movs	r0, #0
 1899 0ad4 FFF7FEFF 		bl	lcdGotoxy
 364:main.c        ****                 lcdPuts("ilosc \nwygranych \nrund: ");
 1900              		.loc 1 364 0
 1901 0ad8 504B     		ldr	r3, .L105+36
 1902 0ada 1800     		movs	r0, r3
 1903 0adc FFF7FEFF 		bl	lcdPuts
 365:main.c        ****                 lcdPutchar(howManyRounds + '0');
 1904              		.loc 1 365 0
 1905 0ae0 8823     		movs	r3, #136
 1906 0ae2 5B00     		lsls	r3, r3, #1
 1907 0ae4 FB18     		adds	r3, r7, r3
 1908 0ae6 1B68     		ldr	r3, [r3]
 1909 0ae8 1B06     		lsls	r3, r3, #24
 1910 0aea 1B0E     		lsrs	r3, r3, #24
 1911 0aec 3033     		adds	r3, r3, #48
 1912 0aee 1B06     		lsls	r3, r3, #24
 1913 0af0 1B0E     		lsrs	r3, r3, #24
 1914 0af2 1800     		movs	r0, r3
 1915 0af4 FFF7FEFF 		bl	lcdPutchar
 366:main.c        **** 
 367:main.c        ****                 while ((IOPIN & 0x00000100) != 0) {
 1916              		.loc 1 367 0
 1917 0af8 C046     		nop
 1918              	.L73:
 1919              		.loc 1 367 0 is_stmt 0 discriminator 1
 1920 0afa 424B     		ldr	r3, .L105+12
 1921 0afc 1A68     		ldr	r2, [r3]
 1922 0afe 8023     		movs	r3, #128
 1923 0b00 5B00     		lsls	r3, r3, #1
 1924 0b02 1340     		ands	r3, r2
 1925 0b04 F9D1     		bne	.L73
 368:main.c        ****                 }  // Czekaj na zatwierdzenie ,przejscie do wpisywania nazwy
 369:main.c        **** 
 370:main.c        ****                 lcdClrscr();
 1926              		.loc 1 370 0 is_stmt 1
 1927 0b06 FFF7FEFF 		bl	lcdClrscr
 371:main.c        ****                 lcdGotoxy(10, 0);
 1928              		.loc 1 371 0
 1929 0b0a 0021     		movs	r1, #0
 1930 0b0c 0A20     		movs	r0, #10
 1931 0b0e FFF7FEFF 		bl	lcdGotoxy
 372:main.c        ****                 lcdPuts("\nNazwa gracza:\n");
 1932              		.loc 1 372 0
 1933 0b12 434B     		ldr	r3, .L105+40
 1934 0b14 1800     		movs	r0, r3
 1935 0b16 FFF7FEFF 		bl	lcdPuts
 373:main.c        **** 
 374:main.c        ****                 char name[12];  // rozmiar = rozmiar nazwy + suma kontrolna na 11 i 12
 375:main.c        ****                 // bajcie
 376:main.c        ****                 int index = 0;
 1936              		.loc 1 376 0
 1937 0b1a 0023     		movs	r3, #0
 1938 0b1c F822     		movs	r2, #248
 1939 0b1e BA18     		adds	r2, r7, r2
 1940 0b20 1360     		str	r3, [r2]
ARM GAS  C:\Users\embedded\AppData\Local\Temp\ccHk1fkP.s 			page 43


 377:main.c        ****                 char sign = 'A';
 1941              		.loc 1 377 0
 1942 0b22 F724     		movs	r4, #247
 1943 0b24 3B19     		adds	r3, r7, r4
 1944 0b26 4122     		movs	r2, #65
 1945 0b28 1A70     		strb	r2, [r3]
 378:main.c        ****                 int position = 10;
 1946              		.loc 1 378 0
 1947 0b2a 0A23     		movs	r3, #10
 1948 0b2c F022     		movs	r2, #240
 1949 0b2e B918     		adds	r1, r7, r2
 1950 0b30 0B60     		str	r3, [r1]
 379:main.c        **** 
 380:main.c        ****                 lcdGotoxy(position, 50);
 1951              		.loc 1 380 0
 1952 0b32 BB18     		adds	r3, r7, r2
 1953 0b34 1B68     		ldr	r3, [r3]
 1954 0b36 1B06     		lsls	r3, r3, #24
 1955 0b38 1B0E     		lsrs	r3, r3, #24
 1956 0b3a 3221     		movs	r1, #50
 1957 0b3c 1800     		movs	r0, r3
 1958 0b3e FFF7FEFF 		bl	lcdGotoxy
 381:main.c        ****                 lcdPutchar(sign);
 1959              		.loc 1 381 0
 1960 0b42 3B19     		adds	r3, r7, r4
 1961 0b44 1B78     		ldrb	r3, [r3]
 1962 0b46 1800     		movs	r0, r3
 1963 0b48 FFF7FEFF 		bl	lcdPutchar
 382:main.c        **** 
 383:main.c        ****                 delayMs(500);
 1964              		.loc 1 383 0
 1965 0b4c FA23     		movs	r3, #250
 1966 0b4e 5B00     		lsls	r3, r3, #1
 1967 0b50 1800     		movs	r0, r3
 1968 0b52 FFF7FEFF 		bl	delayMs
 384:main.c        ****                 while ((IOPIN & 0x00000100) != 0) {  // zatwierdzenie srodkowy
 1969              		.loc 1 384 0
 1970 0b56 E1E0     		b	.L74
 1971              	.L85:
 385:main.c        ****                     delayMs(200);
 1972              		.loc 1 385 0
 1973 0b58 C820     		movs	r0, #200
 1974 0b5a FFF7FEFF 		bl	delayMs
 386:main.c        ****                     // check if P0.12 down-key is pressed
 387:main.c        ****                     if ((IOPIN & 0x00001000) == 0) {
 1975              		.loc 1 387 0
 1976 0b5e 294B     		ldr	r3, .L105+12
 1977 0b60 1A68     		ldr	r2, [r3]
 1978 0b62 8023     		movs	r3, #128
 1979 0b64 5B01     		lsls	r3, r3, #5
 1980 0b66 1340     		ands	r3, r2
 1981 0b68 1FD1     		bne	.L75
 388:main.c        ****                         if (sign == 'A') {
 1982              		.loc 1 388 0
 1983 0b6a F723     		movs	r3, #247
 1984 0b6c FB18     		adds	r3, r7, r3
 1985 0b6e 1B78     		ldrb	r3, [r3]
ARM GAS  C:\Users\embedded\AppData\Local\Temp\ccHk1fkP.s 			page 44


 1986 0b70 412B     		cmp	r3, #65
 1987 0b72 04D1     		bne	.L76
 389:main.c        ****                             sign = 'Z';
 1988              		.loc 1 389 0
 1989 0b74 F723     		movs	r3, #247
 1990 0b76 FB18     		adds	r3, r7, r3
 1991 0b78 5A22     		movs	r2, #90
 1992 0b7a 1A70     		strb	r2, [r3]
 1993 0b7c 05E0     		b	.L77
 1994              	.L76:
 390:main.c        ****                         } else {
 391:main.c        ****                             sign--;
 1995              		.loc 1 391 0
 1996 0b7e F721     		movs	r1, #247
 1997 0b80 7B18     		adds	r3, r7, r1
 1998 0b82 1A78     		ldrb	r2, [r3]
 1999 0b84 7B18     		adds	r3, r7, r1
 2000 0b86 013A     		subs	r2, r2, #1
 2001 0b88 1A70     		strb	r2, [r3]
 2002              	.L77:
 392:main.c        ****                         }
 393:main.c        ****                         lcdGotoxy(position, 50);
 2003              		.loc 1 393 0
 2004 0b8a F023     		movs	r3, #240
 2005 0b8c FB18     		adds	r3, r7, r3
 2006 0b8e 1B68     		ldr	r3, [r3]
 2007 0b90 1B06     		lsls	r3, r3, #24
 2008 0b92 1B0E     		lsrs	r3, r3, #24
 2009 0b94 3221     		movs	r1, #50
 2010 0b96 1800     		movs	r0, r3
 2011 0b98 FFF7FEFF 		bl	lcdGotoxy
 394:main.c        ****                         lcdPutchar(sign);
 2012              		.loc 1 394 0
 2013 0b9c F723     		movs	r3, #247
 2014 0b9e FB18     		adds	r3, r7, r3
 2015 0ba0 1B78     		ldrb	r3, [r3]
 2016 0ba2 1800     		movs	r0, r3
 2017 0ba4 FFF7FEFF 		bl	lcdPutchar
 2018 0ba8 B8E0     		b	.L74
 2019              	.L75:
 395:main.c        ****                     }
 396:main.c        ****                         // check if P0.10 up-key is pressed
 397:main.c        ****                     else if ((IOPIN & 0x00000400) == 0) {
 2020              		.loc 1 397 0
 2021 0baa 164B     		ldr	r3, .L105+12
 2022 0bac 1A68     		ldr	r2, [r3]
 2023 0bae 8023     		movs	r3, #128
 2024 0bb0 DB00     		lsls	r3, r3, #3
 2025 0bb2 1340     		ands	r3, r2
 2026 0bb4 36D1     		bne	.L78
 398:main.c        ****                         if (sign == 'Z') {
 2027              		.loc 1 398 0
 2028 0bb6 F723     		movs	r3, #247
 2029 0bb8 FB18     		adds	r3, r7, r3
 2030 0bba 1B78     		ldrb	r3, [r3]
 2031 0bbc 5A2B     		cmp	r3, #90
 2032 0bbe 04D1     		bne	.L79
ARM GAS  C:\Users\embedded\AppData\Local\Temp\ccHk1fkP.s 			page 45


 399:main.c        ****                             sign = 'A';
 2033              		.loc 1 399 0
 2034 0bc0 F723     		movs	r3, #247
 2035 0bc2 FB18     		adds	r3, r7, r3
 2036 0bc4 4122     		movs	r2, #65
 2037 0bc6 1A70     		strb	r2, [r3]
 2038 0bc8 05E0     		b	.L80
 2039              	.L79:
 400:main.c        ****                         } else {
 401:main.c        ****                             sign++;
 2040              		.loc 1 401 0
 2041 0bca F721     		movs	r1, #247
 2042 0bcc 7B18     		adds	r3, r7, r1
 2043 0bce 1A78     		ldrb	r2, [r3]
 2044 0bd0 7B18     		adds	r3, r7, r1
 2045 0bd2 0132     		adds	r2, r2, #1
 2046 0bd4 1A70     		strb	r2, [r3]
 2047              	.L80:
 402:main.c        ****                         }
 403:main.c        ****                         lcdGotoxy(position, 50);
 2048              		.loc 1 403 0
 2049 0bd6 F023     		movs	r3, #240
 2050 0bd8 FB18     		adds	r3, r7, r3
 2051 0bda 1B68     		ldr	r3, [r3]
 2052 0bdc 1B06     		lsls	r3, r3, #24
 2053 0bde 1B0E     		lsrs	r3, r3, #24
 2054 0be0 3221     		movs	r1, #50
 2055 0be2 1800     		movs	r0, r3
 2056 0be4 FFF7FEFF 		bl	lcdGotoxy
 404:main.c        ****                         lcdPutchar(sign);
 2057              		.loc 1 404 0
 2058 0be8 F723     		movs	r3, #247
 2059 0bea FB18     		adds	r3, r7, r3
 2060 0bec 1B78     		ldrb	r3, [r3]
 2061 0bee 1800     		movs	r0, r3
 2062 0bf0 FFF7FEFF 		bl	lcdPutchar
 2063 0bf4 92E0     		b	.L74
 2064              	.L106:
 2065 0bf6 C046     		.align	2
 2066              	.L105:
 2067 0bf8 BC000000 		.word	.LC32
 2068 0bfc 00000000 		.word	timeTwo
 2069 0c00 C4000000 		.word	.LC34
 2070 0c04 008002E0 		.word	-536707072
 2071 0c08 D4000000 		.word	.LC36
 2072 0c0c E0000000 		.word	.LC38
 2073 0c10 A0860100 		.word	100000
 2074 0c14 EC000000 		.word	.LC40
 2075 0c18 F8000000 		.word	.LC42
 2076 0c1c 0C010000 		.word	.LC44
 2077 0c20 28010000 		.word	.LC46
 2078              	.L78:
 405:main.c        ****                     }
 406:main.c        ****                         // check if P0.9 left-key is pressed
 407:main.c        ****                     else if ((IOPIN & 0x00000200) == 0) {
 2079              		.loc 1 407 0
 2080 0c24 D64B     		ldr	r3, .L107
ARM GAS  C:\Users\embedded\AppData\Local\Temp\ccHk1fkP.s 			page 46


 2081 0c26 1A68     		ldr	r2, [r3]
 2082 0c28 8023     		movs	r3, #128
 2083 0c2a 9B00     		lsls	r3, r3, #2
 2084 0c2c 1340     		ands	r3, r2
 2085 0c2e 3AD1     		bne	.L81
 408:main.c        ****                         name[index] = '\0';
 2086              		.loc 1 408 0
 2087 0c30 D44B     		ldr	r3, .L107+4
 2088 0c32 9C22     		movs	r2, #156
 2089 0c34 5200     		lsls	r2, r2, #1
 2090 0c36 BA18     		adds	r2, r7, r2
 2091 0c38 D218     		adds	r2, r2, r3
 2092 0c3a F821     		movs	r1, #248
 2093 0c3c 7B18     		adds	r3, r7, r1
 2094 0c3e 1B68     		ldr	r3, [r3]
 2095 0c40 D318     		adds	r3, r2, r3
 2096 0c42 0022     		movs	r2, #0
 2097 0c44 1A70     		strb	r2, [r3]
 409:main.c        ****                         if (index != 0) {
 2098              		.loc 1 409 0
 2099 0c46 7B18     		adds	r3, r7, r1
 2100 0c48 1B68     		ldr	r3, [r3]
 2101 0c4a 002B     		cmp	r3, #0
 2102 0c4c 05D0     		beq	.L82
 410:main.c        ****                             index--;
 2103              		.loc 1 410 0
 2104 0c4e F822     		movs	r2, #248
 2105 0c50 BB18     		adds	r3, r7, r2
 2106 0c52 1B68     		ldr	r3, [r3]
 2107 0c54 013B     		subs	r3, r3, #1
 2108 0c56 BA18     		adds	r2, r7, r2
 2109 0c58 1360     		str	r3, [r2]
 2110              	.L82:
 411:main.c        ****                         }
 412:main.c        ****                         if (position != 10) {
 2111              		.loc 1 412 0
 2112 0c5a F023     		movs	r3, #240
 2113 0c5c FB18     		adds	r3, r7, r3
 2114 0c5e 1B68     		ldr	r3, [r3]
 2115 0c60 0A2B     		cmp	r3, #10
 2116 0c62 5BD0     		beq	.L74
 413:main.c        ****                             lcdGotoxy(position, 50);
 2117              		.loc 1 413 0
 2118 0c64 F024     		movs	r4, #240
 2119 0c66 3B19     		adds	r3, r7, r4
 2120 0c68 1B68     		ldr	r3, [r3]
 2121 0c6a 1B06     		lsls	r3, r3, #24
 2122 0c6c 1B0E     		lsrs	r3, r3, #24
 2123 0c6e 3221     		movs	r1, #50
 2124 0c70 1800     		movs	r0, r3
 2125 0c72 FFF7FEFF 		bl	lcdGotoxy
 414:main.c        ****                             lcdPutchar(' ');
 2126              		.loc 1 414 0
 2127 0c76 2020     		movs	r0, #32
 2128 0c78 FFF7FEFF 		bl	lcdPutchar
 415:main.c        ****                             position -= 10;
 2129              		.loc 1 415 0
ARM GAS  C:\Users\embedded\AppData\Local\Temp\ccHk1fkP.s 			page 47


 2130 0c7c 3B19     		adds	r3, r7, r4
 2131 0c7e 1B68     		ldr	r3, [r3]
 2132 0c80 0A3B     		subs	r3, r3, #10
 2133 0c82 3A19     		adds	r2, r7, r4
 2134 0c84 1360     		str	r3, [r2]
 416:main.c        ****                             lcdGotoxy(position, 50);
 2135              		.loc 1 416 0
 2136 0c86 3B19     		adds	r3, r7, r4
 2137 0c88 1B68     		ldr	r3, [r3]
 2138 0c8a 1B06     		lsls	r3, r3, #24
 2139 0c8c 1B0E     		lsrs	r3, r3, #24
 2140 0c8e 3221     		movs	r1, #50
 2141 0c90 1800     		movs	r0, r3
 2142 0c92 FFF7FEFF 		bl	lcdGotoxy
 417:main.c        ****                             lcdPutchar('A');
 2143              		.loc 1 417 0
 2144 0c96 4120     		movs	r0, #65
 2145 0c98 FFF7FEFF 		bl	lcdPutchar
 418:main.c        ****                             sign = 'A';
 2146              		.loc 1 418 0
 2147 0c9c F723     		movs	r3, #247
 2148 0c9e FB18     		adds	r3, r7, r3
 2149 0ca0 4122     		movs	r2, #65
 2150 0ca2 1A70     		strb	r2, [r3]
 2151 0ca4 3AE0     		b	.L74
 2152              	.L81:
 419:main.c        ****                         }
 420:main.c        ****                     }
 421:main.c        ****                         // check if P0.11 right-key is pressed
 422:main.c        ****                     else if ((IOPIN & 0x00000800) == 0) {
 2153              		.loc 1 422 0
 2154 0ca6 B64B     		ldr	r3, .L107
 2155 0ca8 1A68     		ldr	r2, [r3]
 2156 0caa 8023     		movs	r3, #128
 2157 0cac 1B01     		lsls	r3, r3, #4
 2158 0cae 1340     		ands	r3, r2
 2159 0cb0 F721     		movs	r1, #247
 2160 0cb2 7A18     		adds	r2, r7, r1
 2161 0cb4 7918     		adds	r1, r7, r1
 2162 0cb6 0978     		ldrb	r1, [r1]
 2163 0cb8 1170     		strb	r1, [r2]
 2164 0cba 002B     		cmp	r3, #0
 2165 0cbc 2ED1     		bne	.L74
 423:main.c        ****                         if (position != 90) {  // jesli to nie jest ostatni znak
 2166              		.loc 1 423 0
 2167 0cbe F023     		movs	r3, #240
 2168 0cc0 FB18     		adds	r3, r7, r3
 2169 0cc2 1B68     		ldr	r3, [r3]
 2170 0cc4 5A2B     		cmp	r3, #90
 2171 0cc6 24D0     		beq	.L84
 424:main.c        ****                             name[index] = sign;
 2172              		.loc 1 424 0
 2173 0cc8 AE4B     		ldr	r3, .L107+4
 2174 0cca 9C22     		movs	r2, #156
 2175 0ccc 5200     		lsls	r2, r2, #1
 2176 0cce BA18     		adds	r2, r7, r2
 2177 0cd0 D218     		adds	r2, r2, r3
ARM GAS  C:\Users\embedded\AppData\Local\Temp\ccHk1fkP.s 			page 48


 2178 0cd2 F821     		movs	r1, #248
 2179 0cd4 7B18     		adds	r3, r7, r1
 2180 0cd6 1B68     		ldr	r3, [r3]
 2181 0cd8 D318     		adds	r3, r2, r3
 2182 0cda F724     		movs	r4, #247
 2183 0cdc 3A19     		adds	r2, r7, r4
 2184 0cde 1278     		ldrb	r2, [r2]
 2185 0ce0 1A70     		strb	r2, [r3]
 425:main.c        ****                             index++;
 2186              		.loc 1 425 0
 2187 0ce2 7B18     		adds	r3, r7, r1
 2188 0ce4 1B68     		ldr	r3, [r3]
 2189 0ce6 0133     		adds	r3, r3, #1
 2190 0ce8 7A18     		adds	r2, r7, r1
 2191 0cea 1360     		str	r3, [r2]
 426:main.c        ****                             position += 10;
 2192              		.loc 1 426 0
 2193 0cec F022     		movs	r2, #240
 2194 0cee BB18     		adds	r3, r7, r2
 2195 0cf0 1B68     		ldr	r3, [r3]
 2196 0cf2 0A33     		adds	r3, r3, #10
 2197 0cf4 B918     		adds	r1, r7, r2
 2198 0cf6 0B60     		str	r3, [r1]
 427:main.c        ****                             lcdGotoxy(position, 50);
 2199              		.loc 1 427 0
 2200 0cf8 BB18     		adds	r3, r7, r2
 2201 0cfa 1B68     		ldr	r3, [r3]
 2202 0cfc 1B06     		lsls	r3, r3, #24
 2203 0cfe 1B0E     		lsrs	r3, r3, #24
 2204 0d00 3221     		movs	r1, #50
 2205 0d02 1800     		movs	r0, r3
 2206 0d04 FFF7FEFF 		bl	lcdGotoxy
 428:main.c        ****                             lcdPutchar(sign);
 2207              		.loc 1 428 0
 2208 0d08 3B19     		adds	r3, r7, r4
 2209 0d0a 1B78     		ldrb	r3, [r3]
 2210 0d0c 1800     		movs	r0, r3
 2211 0d0e FFF7FEFF 		bl	lcdPutchar
 2212              	.L84:
 2213 0d12 F722     		movs	r2, #247
 2214 0d14 BB18     		adds	r3, r7, r2
 2215 0d16 BA18     		adds	r2, r7, r2
 2216 0d18 1278     		ldrb	r2, [r2]
 2217 0d1a 1A70     		strb	r2, [r3]
 2218              	.L74:
 384:main.c        ****                     delayMs(200);
 2219              		.loc 1 384 0
 2220 0d1c 984B     		ldr	r3, .L107
 2221 0d1e 1A68     		ldr	r2, [r3]
 2222 0d20 8023     		movs	r3, #128
 2223 0d22 5B00     		lsls	r3, r3, #1
 2224 0d24 1340     		ands	r3, r2
 2225 0d26 00D0     		beq	.LCB1897
 2226 0d28 16E7     		b	.L85	@long jump
 2227              	.LCB1897:
 429:main.c        ****                         }
 430:main.c        ****                     } else {
ARM GAS  C:\Users\embedded\AppData\Local\Temp\ccHk1fkP.s 			page 49


 431:main.c        ****                     }
 432:main.c        ****                 }
 433:main.c        ****                 name[index] = sign;
 2228              		.loc 1 433 0
 2229 0d2a 964B     		ldr	r3, .L107+4
 2230 0d2c 9C22     		movs	r2, #156
 2231 0d2e 5200     		lsls	r2, r2, #1
 2232 0d30 BA18     		adds	r2, r7, r2
 2233 0d32 D218     		adds	r2, r2, r3
 2234 0d34 F823     		movs	r3, #248
 2235 0d36 FB18     		adds	r3, r7, r3
 2236 0d38 1B68     		ldr	r3, [r3]
 2237 0d3a D318     		adds	r3, r2, r3
 2238 0d3c F722     		movs	r2, #247
 2239 0d3e BA18     		adds	r2, r7, r2
 2240 0d40 1278     		ldrb	r2, [r2]
 2241 0d42 1A70     		strb	r2, [r3]
 434:main.c        ****                 while (index < 12) {
 2242              		.loc 1 434 0
 2243 0d44 0FE0     		b	.L86
 2244              	.L87:
 435:main.c        ****                     index++;
 2245              		.loc 1 435 0
 2246 0d46 F821     		movs	r1, #248
 2247 0d48 7B18     		adds	r3, r7, r1
 2248 0d4a 1B68     		ldr	r3, [r3]
 2249 0d4c 0133     		adds	r3, r3, #1
 2250 0d4e 7A18     		adds	r2, r7, r1
 2251 0d50 1360     		str	r3, [r2]
 436:main.c        ****                     name[index] = '\0';
 2252              		.loc 1 436 0
 2253 0d52 8C4B     		ldr	r3, .L107+4
 2254 0d54 9C22     		movs	r2, #156
 2255 0d56 5200     		lsls	r2, r2, #1
 2256 0d58 BA18     		adds	r2, r7, r2
 2257 0d5a D218     		adds	r2, r2, r3
 2258 0d5c 7B18     		adds	r3, r7, r1
 2259 0d5e 1B68     		ldr	r3, [r3]
 2260 0d60 D318     		adds	r3, r2, r3
 2261 0d62 0022     		movs	r2, #0
 2262 0d64 1A70     		strb	r2, [r3]
 2263              	.L86:
 434:main.c        ****                 while (index < 12) {
 2264              		.loc 1 434 0
 2265 0d66 F823     		movs	r3, #248
 2266 0d68 FB18     		adds	r3, r7, r3
 2267 0d6a 1B68     		ldr	r3, [r3]
 2268 0d6c 0B2B     		cmp	r3, #11
 2269 0d6e EADD     		ble	.L87
 437:main.c        ****                 }
 438:main.c        ****                 lcdGotoxy(10, 70);
 2270              		.loc 1 438 0
 2271 0d70 4621     		movs	r1, #70
 2272 0d72 0A20     		movs	r0, #10
 2273 0d74 FFF7FEFF 		bl	lcdGotoxy
 439:main.c        ****                 lcdPuts("Wybrano nazwe:\n");
 2274              		.loc 1 439 0
ARM GAS  C:\Users\embedded\AppData\Local\Temp\ccHk1fkP.s 			page 50


 2275 0d78 834B     		ldr	r3, .L107+8
 2276 0d7a 1800     		movs	r0, r3
 2277 0d7c FFF7FEFF 		bl	lcdPuts
 440:main.c        ****                 lcdGotoxy(10, 90);
 2278              		.loc 1 440 0
 2279 0d80 5A21     		movs	r1, #90
 2280 0d82 0A20     		movs	r0, #10
 2281 0d84 FFF7FEFF 		bl	lcdGotoxy
 441:main.c        ****                 lcdPuts(name);
 2282              		.loc 1 441 0
 2283 0d88 1023     		movs	r3, #16
 2284 0d8a FB18     		adds	r3, r7, r3
 2285 0d8c 1800     		movs	r0, r3
 2286 0d8e FFF7FEFF 		bl	lcdPuts
 442:main.c        **** 
 443:main.c        ****                 name[9] = howManyRounds;
 2287              		.loc 1 443 0
 2288 0d92 8823     		movs	r3, #136
 2289 0d94 5B00     		lsls	r3, r3, #1
 2290 0d96 FB18     		adds	r3, r7, r3
 2291 0d98 1B68     		ldr	r3, [r3]
 2292 0d9a 1B06     		lsls	r3, r3, #24
 2293 0d9c 1A0E     		lsrs	r2, r3, #24
 2294 0d9e 794B     		ldr	r3, .L107+4
 2295 0da0 9C21     		movs	r1, #156
 2296 0da2 4900     		lsls	r1, r1, #1
 2297 0da4 8C46     		mov	ip, r1
 2298 0da6 BC44     		add	ip, ip, r7
 2299 0da8 6344     		add	r3, r3, ip
 2300 0daa 5A72     		strb	r2, [r3, #9]
 444:main.c        ****                 int checkSum = 0;
 2301              		.loc 1 444 0
 2302 0dac 0023     		movs	r3, #0
 2303 0dae EC22     		movs	r2, #236
 2304 0db0 BA18     		adds	r2, r7, r2
 2305 0db2 1360     		str	r3, [r2]
 2306              	.LBB12:
 445:main.c        ****                 for (int i = 0; i < 10; i++) {
 2307              		.loc 1 445 0
 2308 0db4 0023     		movs	r3, #0
 2309 0db6 E822     		movs	r2, #232
 2310 0db8 BA18     		adds	r2, r7, r2
 2311 0dba 1360     		str	r3, [r2]
 2312 0dbc 15E0     		b	.L88
 2313              	.L89:
 446:main.c        ****                     checkSum += (int)name[i];
 2314              		.loc 1 446 0 discriminator 3
 2315 0dbe 714B     		ldr	r3, .L107+4
 2316 0dc0 9C22     		movs	r2, #156
 2317 0dc2 5200     		lsls	r2, r2, #1
 2318 0dc4 BA18     		adds	r2, r7, r2
 2319 0dc6 D218     		adds	r2, r2, r3
 2320 0dc8 E821     		movs	r1, #232
 2321 0dca 7B18     		adds	r3, r7, r1
 2322 0dcc 1B68     		ldr	r3, [r3]
 2323 0dce D318     		adds	r3, r2, r3
 2324 0dd0 1B78     		ldrb	r3, [r3]
ARM GAS  C:\Users\embedded\AppData\Local\Temp\ccHk1fkP.s 			page 51


 2325 0dd2 1A00     		movs	r2, r3
 2326 0dd4 EC20     		movs	r0, #236
 2327 0dd6 3B18     		adds	r3, r7, r0
 2328 0dd8 1B68     		ldr	r3, [r3]
 2329 0dda 9B18     		adds	r3, r3, r2
 2330 0ddc 3A18     		adds	r2, r7, r0
 2331 0dde 1360     		str	r3, [r2]
 445:main.c        ****                 for (int i = 0; i < 10; i++) {
 2332              		.loc 1 445 0 discriminator 3
 2333 0de0 7B18     		adds	r3, r7, r1
 2334 0de2 1B68     		ldr	r3, [r3]
 2335 0de4 0133     		adds	r3, r3, #1
 2336 0de6 7A18     		adds	r2, r7, r1
 2337 0de8 1360     		str	r3, [r2]
 2338              	.L88:
 445:main.c        ****                 for (int i = 0; i < 10; i++) {
 2339              		.loc 1 445 0 is_stmt 0 discriminator 1
 2340 0dea E823     		movs	r3, #232
 2341 0dec FB18     		adds	r3, r7, r3
 2342 0dee 1B68     		ldr	r3, [r3]
 2343 0df0 092B     		cmp	r3, #9
 2344 0df2 E4DD     		ble	.L89
 2345              	.LBE12:
 447:main.c        ****                 }
 448:main.c        ****                 checkSum %= 256;
 2346              		.loc 1 448 0 is_stmt 1
 2347 0df4 EC23     		movs	r3, #236
 2348 0df6 FB18     		adds	r3, r7, r3
 2349 0df8 1B68     		ldr	r3, [r3]
 2350 0dfa 644A     		ldr	r2, .L107+12
 2351 0dfc 1340     		ands	r3, r2
 2352 0dfe 03D5     		bpl	.L90
 2353 0e00 013B     		subs	r3, r3, #1
 2354 0e02 634A     		ldr	r2, .L107+16
 2355 0e04 1343     		orrs	r3, r2
 2356 0e06 0133     		adds	r3, r3, #1
 2357              	.L90:
 2358 0e08 EC21     		movs	r1, #236
 2359 0e0a 7A18     		adds	r2, r7, r1
 2360 0e0c 1360     		str	r3, [r2]
 449:main.c        ****                 checkSum ^= 1;
 2361              		.loc 1 449 0
 2362 0e0e 7B18     		adds	r3, r7, r1
 2363 0e10 1B68     		ldr	r3, [r3]
 2364 0e12 0122     		movs	r2, #1
 2365 0e14 5340     		eors	r3, r2
 2366 0e16 7A18     		adds	r2, r7, r1
 2367 0e18 1360     		str	r3, [r2]
 450:main.c        ****                 name[10] = checkSum;
 2368              		.loc 1 450 0
 2369 0e1a 7B18     		adds	r3, r7, r1
 2370 0e1c 1B68     		ldr	r3, [r3]
 2371 0e1e 1B06     		lsls	r3, r3, #24
 2372 0e20 1A0E     		lsrs	r2, r3, #24
 2373 0e22 584B     		ldr	r3, .L107+4
 2374 0e24 9C21     		movs	r1, #156
 2375 0e26 4900     		lsls	r1, r1, #1
ARM GAS  C:\Users\embedded\AppData\Local\Temp\ccHk1fkP.s 			page 52


 2376 0e28 8C46     		mov	ip, r1
 2377 0e2a BC44     		add	ip, ip, r7
 2378 0e2c 6344     		add	r3, r3, ip
 2379 0e2e 9A72     		strb	r2, [r3, #10]
 451:main.c        **** 
 452:main.c        ****                 name[11] = ~name[10];
 2380              		.loc 1 452 0
 2381 0e30 544B     		ldr	r3, .L107+4
 2382 0e32 9C22     		movs	r2, #156
 2383 0e34 5200     		lsls	r2, r2, #1
 2384 0e36 9446     		mov	ip, r2
 2385 0e38 BC44     		add	ip, ip, r7
 2386 0e3a 6344     		add	r3, r3, ip
 2387 0e3c 9B7A     		ldrb	r3, [r3, #10]
 2388 0e3e DB43     		mvns	r3, r3
 2389 0e40 1B06     		lsls	r3, r3, #24
 2390 0e42 1A0E     		lsrs	r2, r3, #24
 2391 0e44 4F4B     		ldr	r3, .L107+4
 2392 0e46 9C21     		movs	r1, #156
 2393 0e48 4900     		lsls	r1, r1, #1
 2394 0e4a 8C46     		mov	ip, r1
 2395 0e4c BC44     		add	ip, ip, r7
 2396 0e4e 6344     		add	r3, r3, ip
 2397 0e50 DA72     		strb	r2, [r3, #11]
 453:main.c        ****                 delayMs(1000);
 2398              		.loc 1 453 0
 2399 0e52 FA23     		movs	r3, #250
 2400 0e54 9B00     		lsls	r3, r3, #2
 2401 0e56 1800     		movs	r0, r3
 2402 0e58 FFF7FEFF 		bl	delayMs
 454:main.c        **** 
 455:main.c        ****                 while ((IOPIN & 0x00000100) != 0) {
 2403              		.loc 1 455 0
 2404 0e5c C046     		nop
 2405              	.L91:
 2406              		.loc 1 455 0 is_stmt 0 discriminator 1
 2407 0e5e 484B     		ldr	r3, .L107
 2408 0e60 1A68     		ldr	r2, [r3]
 2409 0e62 8023     		movs	r3, #128
 2410 0e64 5B00     		lsls	r3, r3, #1
 2411 0e66 1340     		ands	r3, r2
 2412 0e68 F9D1     		bne	.L91
 456:main.c        ****                 }  // Czekaj na zatwierdzenie nazwy
 457:main.c        **** 
 458:main.c        ****                 lcdClrscr();
 2413              		.loc 1 458 0 is_stmt 1
 2414 0e6a FFF7FEFF 		bl	lcdClrscr
 459:main.c        **** 
 460:main.c        ****                 tU8 testBuf[12];
 461:main.c        ****                 eepromPageRead(0x0000, testBuf, 12);
 2415              		.loc 1 461 0
 2416 0e6e 3B1D     		adds	r3, r7, #4
 2417 0e70 0C22     		movs	r2, #12
 2418 0e72 1900     		movs	r1, r3
 2419 0e74 0020     		movs	r0, #0
 2420 0e76 FFF7FEFF 		bl	eepromPageRead
 462:main.c        ****                 tU8 rounds = 0;
ARM GAS  C:\Users\embedded\AppData\Local\Temp\ccHk1fkP.s 			page 53


 2421              		.loc 1 462 0
 2422 0e7a E723     		movs	r3, #231
 2423 0e7c FB18     		adds	r3, r7, r3
 2424 0e7e 0022     		movs	r2, #0
 2425 0e80 1A70     		strb	r2, [r3]
 463:main.c        ****                 int checkSumCalculated = 0;  // liczona na pieszo
 2426              		.loc 1 463 0
 2427 0e82 0023     		movs	r3, #0
 2428 0e84 E022     		movs	r2, #224
 2429 0e86 BA18     		adds	r2, r7, r2
 2430 0e88 1360     		str	r3, [r2]
 2431              	.LBB13:
 464:main.c        ****                 for (int i = 0; i < 10; i++) {
 2432              		.loc 1 464 0
 2433 0e8a 0023     		movs	r3, #0
 2434 0e8c DC22     		movs	r2, #220
 2435 0e8e BA18     		adds	r2, r7, r2
 2436 0e90 1360     		str	r3, [r2]
 2437 0e92 15E0     		b	.L92
 2438              	.L93:
 465:main.c        ****                     checkSumCalculated += testBuf[i];
 2439              		.loc 1 465 0 discriminator 3
 2440 0e94 3F4B     		ldr	r3, .L107+20
 2441 0e96 9C22     		movs	r2, #156
 2442 0e98 5200     		lsls	r2, r2, #1
 2443 0e9a BA18     		adds	r2, r7, r2
 2444 0e9c D218     		adds	r2, r2, r3
 2445 0e9e DC21     		movs	r1, #220
 2446 0ea0 7B18     		adds	r3, r7, r1
 2447 0ea2 1B68     		ldr	r3, [r3]
 2448 0ea4 D318     		adds	r3, r2, r3
 2449 0ea6 1B78     		ldrb	r3, [r3]
 2450 0ea8 1A00     		movs	r2, r3
 2451 0eaa E020     		movs	r0, #224
 2452 0eac 3B18     		adds	r3, r7, r0
 2453 0eae 1B68     		ldr	r3, [r3]
 2454 0eb0 9B18     		adds	r3, r3, r2
 2455 0eb2 3A18     		adds	r2, r7, r0
 2456 0eb4 1360     		str	r3, [r2]
 464:main.c        ****                 for (int i = 0; i < 10; i++) {
 2457              		.loc 1 464 0 discriminator 3
 2458 0eb6 7B18     		adds	r3, r7, r1
 2459 0eb8 1B68     		ldr	r3, [r3]
 2460 0eba 0133     		adds	r3, r3, #1
 2461 0ebc 7A18     		adds	r2, r7, r1
 2462 0ebe 1360     		str	r3, [r2]
 2463              	.L92:
 464:main.c        ****                 for (int i = 0; i < 10; i++) {
 2464              		.loc 1 464 0 is_stmt 0 discriminator 1
 2465 0ec0 DC23     		movs	r3, #220
 2466 0ec2 FB18     		adds	r3, r7, r3
 2467 0ec4 1B68     		ldr	r3, [r3]
 2468 0ec6 092B     		cmp	r3, #9
 2469 0ec8 E4DD     		ble	.L93
 2470              	.LBE13:
 466:main.c        ****                 }
 467:main.c        ****                 checkSumCalculated %= 256;
ARM GAS  C:\Users\embedded\AppData\Local\Temp\ccHk1fkP.s 			page 54


 2471              		.loc 1 467 0 is_stmt 1
 2472 0eca E023     		movs	r3, #224
 2473 0ecc FB18     		adds	r3, r7, r3
 2474 0ece 1B68     		ldr	r3, [r3]
 2475 0ed0 2E4A     		ldr	r2, .L107+12
 2476 0ed2 1340     		ands	r3, r2
 2477 0ed4 03D5     		bpl	.L94
 2478 0ed6 013B     		subs	r3, r3, #1
 2479 0ed8 2D4A     		ldr	r2, .L107+16
 2480 0eda 1343     		orrs	r3, r2
 2481 0edc 0133     		adds	r3, r3, #1
 2482              	.L94:
 2483 0ede E021     		movs	r1, #224
 2484 0ee0 7A18     		adds	r2, r7, r1
 2485 0ee2 1360     		str	r3, [r2]
 468:main.c        ****                 checkSumCalculated ^= 1;
 2486              		.loc 1 468 0
 2487 0ee4 7B18     		adds	r3, r7, r1
 2488 0ee6 1B68     		ldr	r3, [r3]
 2489 0ee8 0122     		movs	r2, #1
 2490 0eea 5340     		eors	r3, r2
 2491 0eec 7A18     		adds	r2, r7, r1
 2492 0eee 1360     		str	r3, [r2]
 469:main.c        ****                 if (((testBuf[10] & testBuf[11]) == 0) &&
 2493              		.loc 1 469 0
 2494 0ef0 284B     		ldr	r3, .L107+20
 2495 0ef2 9C22     		movs	r2, #156
 2496 0ef4 5200     		lsls	r2, r2, #1
 2497 0ef6 9446     		mov	ip, r2
 2498 0ef8 BC44     		add	ip, ip, r7
 2499 0efa 6344     		add	r3, r3, ip
 2500 0efc 9B7A     		ldrb	r3, [r3, #10]
 2501 0efe 254A     		ldr	r2, .L107+20
 2502 0f00 9C21     		movs	r1, #156
 2503 0f02 4900     		lsls	r1, r1, #1
 2504 0f04 8C46     		mov	ip, r1
 2505 0f06 BC44     		add	ip, ip, r7
 2506 0f08 6244     		add	r2, r2, ip
 2507 0f0a D27A     		ldrb	r2, [r2, #11]
 2508 0f0c 1340     		ands	r3, r2
 2509 0f0e 1B06     		lsls	r3, r3, #24
 2510 0f10 1B0E     		lsrs	r3, r3, #24
 2511 0f12 16D1     		bne	.L95
 470:main.c        ****                     ((int)testBuf[10] == checkSumCalculated)) {
 2512              		.loc 1 470 0 discriminator 1
 2513 0f14 1F4B     		ldr	r3, .L107+20
 2514 0f16 9C22     		movs	r2, #156
 2515 0f18 5200     		lsls	r2, r2, #1
 2516 0f1a 9446     		mov	ip, r2
 2517 0f1c BC44     		add	ip, ip, r7
 2518 0f1e 6344     		add	r3, r3, ip
 2519 0f20 9B7A     		ldrb	r3, [r3, #10]
 2520 0f22 1A00     		movs	r2, r3
 469:main.c        ****                 if (((testBuf[10] & testBuf[11]) == 0) &&
 2521              		.loc 1 469 0 discriminator 1
 2522 0f24 E023     		movs	r3, #224
 2523 0f26 FB18     		adds	r3, r7, r3
ARM GAS  C:\Users\embedded\AppData\Local\Temp\ccHk1fkP.s 			page 55


 2524 0f28 1B68     		ldr	r3, [r3]
 2525 0f2a 9342     		cmp	r3, r2
 2526 0f2c 09D1     		bne	.L95
 471:main.c        ****                     rounds = testBuf[9];
 2527              		.loc 1 471 0
 2528 0f2e E723     		movs	r3, #231
 2529 0f30 FB18     		adds	r3, r7, r3
 2530 0f32 184A     		ldr	r2, .L107+20
 2531 0f34 9C21     		movs	r1, #156
 2532 0f36 4900     		lsls	r1, r1, #1
 2533 0f38 8C46     		mov	ip, r1
 2534 0f3a BC44     		add	ip, ip, r7
 2535 0f3c 6244     		add	r2, r2, ip
 2536 0f3e 527A     		ldrb	r2, [r2, #9]
 2537 0f40 1A70     		strb	r2, [r3]
 2538              	.L95:
 472:main.c        ****                 }
 473:main.c        **** 
 474:main.c        ****                 if (rounds <= howManyRounds) {  // jezeli stare jest mniejsze lub rowne
 2539              		.loc 1 474 0
 2540 0f42 E723     		movs	r3, #231
 2541 0f44 FB18     		adds	r3, r7, r3
 2542 0f46 1B78     		ldrb	r3, [r3]
 2543 0f48 8822     		movs	r2, #136
 2544 0f4a 5200     		lsls	r2, r2, #1
 2545 0f4c BA18     		adds	r2, r7, r2
 2546 0f4e 1268     		ldr	r2, [r2]
 2547 0f50 9A42     		cmp	r2, r3
 2548 0f52 29DB     		blt	.L96
 2549              	.LBB14:
 475:main.c        ****                     // to podmienia
 476:main.c        ****                     tS8 errorCode;
 477:main.c        ****                     errorCode = eepromWrite(0x0000, (tU8*)name, sizeof(name));
 2550              		.loc 1 477 0
 2551 0f54 D325     		movs	r5, #211
 2552 0f56 7C19     		adds	r4, r7, r5
 2553 0f58 1023     		movs	r3, #16
 2554 0f5a FB18     		adds	r3, r7, r3
 2555 0f5c 0C22     		movs	r2, #12
 2556 0f5e 1900     		movs	r1, r3
 2557 0f60 0020     		movs	r0, #0
 2558 0f62 FFF7FEFF 		bl	eepromWrite
 2559 0f66 0300     		movs	r3, r0
 2560 0f68 2370     		strb	r3, [r4]
 478:main.c        ****                     if (errorCode == I2C_CODE_OK) {
 2561              		.loc 1 478 0
 2562 0f6a 7B19     		adds	r3, r7, r5
 2563 0f6c 1B78     		ldrb	r3, [r3]
 2564 0f6e 1B06     		lsls	r3, r3, #24
 2565 0f70 1B16     		asrs	r3, r3, #24
 2566 0f72 012B     		cmp	r3, #1
 2567 0f74 12D1     		bne	.L97
 479:main.c        ****                         lcdPuts("OK");
 2568              		.loc 1 479 0
 2569 0f76 084B     		ldr	r3, .L107+24
 2570 0f78 1800     		movs	r0, r3
 2571 0f7a FFF7FEFF 		bl	lcdPuts
ARM GAS  C:\Users\embedded\AppData\Local\Temp\ccHk1fkP.s 			page 56


 2572 0f7e 11E0     		b	.L98
 2573              	.L108:
 2574              		.align	2
 2575              	.L107:
 2576 0f80 008002E0 		.word	-536707072
 2577 0f84 D8FEFFFF 		.word	-296
 2578 0f88 38010000 		.word	.LC48
 2579 0f8c FF000080 		.word	-2147483393
 2580 0f90 00FFFFFF 		.word	-256
 2581 0f94 CCFEFFFF 		.word	-308
 2582 0f98 48010000 		.word	.LC50
 2583              	.L97:
 480:main.c        ****                     } else {
 481:main.c        ****                         lcdPuts("Blad");
 2584              		.loc 1 481 0
 2585 0f9c 1F4B     		ldr	r3, .L109
 2586 0f9e 1800     		movs	r0, r3
 2587 0fa0 FFF7FEFF 		bl	lcdPuts
 2588              	.L98:
 482:main.c        ****                     }
 483:main.c        ****                     eepromPoll();
 2589              		.loc 1 483 0
 2590 0fa4 FFF7FEFF 		bl	eepromPoll
 2591              	.L96:
 2592              	.LBE14:
 484:main.c        ****                 }
 485:main.c        ****                 delayMs(100);
 2593              		.loc 1 485 0
 2594 0fa8 6420     		movs	r0, #100
 2595 0faa FFF7FEFF 		bl	delayMs
 486:main.c        ****                 lcdClrscr();
 2596              		.loc 1 486 0
 2597 0fae FFF7FEFF 		bl	lcdClrscr
 487:main.c        ****                 lcdGotoxy(10, 50);
 2598              		.loc 1 487 0
 2599 0fb2 3221     		movs	r1, #50
 2600 0fb4 0A20     		movs	r0, #10
 2601 0fb6 FFF7FEFF 		bl	lcdGotoxy
 488:main.c        ****                 lcdPuts("POWROT DO MENU");
 2602              		.loc 1 488 0
 2603 0fba 194B     		ldr	r3, .L109+4
 2604 0fbc 1800     		movs	r0, r3
 2605 0fbe FFF7FEFF 		bl	lcdPuts
 489:main.c        ****                 while ((IOPIN & 0x00000100) != 0) {
 2606              		.loc 1 489 0
 2607 0fc2 C046     		nop
 2608              	.L99:
 2609              		.loc 1 489 0 is_stmt 0 discriminator 1
 2610 0fc4 174B     		ldr	r3, .L109+8
 2611 0fc6 1A68     		ldr	r2, [r3]
 2612 0fc8 8023     		movs	r3, #128
 2613 0fca 5B00     		lsls	r3, r3, #1
 2614 0fcc 1340     		ands	r3, r2
 2615 0fce F9D1     		bne	.L99
 490:main.c        ****                 }
 491:main.c        ****                 exit = FALSE;
 2616              		.loc 1 491 0 is_stmt 1
ARM GAS  C:\Users\embedded\AppData\Local\Temp\ccHk1fkP.s 			page 57


 2617 0fd0 2823     		movs	r3, #40
 2618 0fd2 FF33     		adds	r3, r3, #255
 2619 0fd4 FB18     		adds	r3, r7, r3
 2620 0fd6 0022     		movs	r2, #0
 2621 0fd8 1A70     		strb	r2, [r3]
 492:main.c        ****                 delayMs(100);
 2622              		.loc 1 492 0
 2623 0fda 6420     		movs	r0, #100
 2624 0fdc FFF7FEFF 		bl	delayMs
 493:main.c        ****                 changeLEDs(8);
 2625              		.loc 1 493 0
 2626 0fe0 0820     		movs	r0, #8
 2627 0fe2 FFF7FEFF 		bl	changeLEDs
 2628              	.L58:
 2629              	.LBE8:
 290:main.c        ****                 int number;
 2630              		.loc 1 290 0
 2631 0fe6 0F4B     		ldr	r3, .L109+8
 2632 0fe8 1A68     		ldr	r2, [r3]
 2633 0fea 8023     		movs	r3, #128
 2634 0fec 5B00     		lsls	r3, r3, #1
 2635 0fee 1340     		ands	r3, r2
 2636 0ff0 07D0     		beq	.L100
 290:main.c        ****                 int number;
 2637              		.loc 1 290 0 is_stmt 0 discriminator 1
 2638 0ff2 2823     		movs	r3, #40
 2639 0ff4 FF33     		adds	r3, r3, #255
 2640 0ff6 FB18     		adds	r3, r7, r3
 2641 0ff8 1B78     		ldrb	r3, [r3]
 2642 0ffa 002B     		cmp	r3, #0
 2643 0ffc 01D0     		beq	.LCB2301
 2644 0ffe FFF7B0FB 		bl	.L101	@far jump
 2645              	.LCB2301:
 2646              	.L100:
 494:main.c        ****             }
 495:main.c        ****             choice = 0;
 2647              		.loc 1 495 0 is_stmt 1
 2648 1002 0023     		movs	r3, #0
 2649 1004 9A22     		movs	r2, #154
 2650 1006 5200     		lsls	r2, r2, #1
 2651 1008 BA18     		adds	r2, r7, r2
 2652 100a 1360     		str	r3, [r2]
 2653              	.L56:
 2654              	.LBE7:
 496:main.c        ****         }
 497:main.c        ****         delayMs(1000);
 2655              		.loc 1 497 0
 2656 100c FA23     		movs	r3, #250
 2657 100e 9B00     		lsls	r3, r3, #2
 2658 1010 1800     		movs	r0, r3
 2659 1012 FFF7FEFF 		bl	delayMs
 223:main.c        ****         while ((IOPIN & 0x00000100) != 0) {
 2660              		.loc 1 223 0
 2661 1016 FFF751FA 		bl	.L102	@ far jump
 2662              	.L110:
 2663 101a C046     		.align	2
 2664              	.L109:
ARM GAS  C:\Users\embedded\AppData\Local\Temp\ccHk1fkP.s 			page 58


 2665 101c 4C010000 		.word	.LC52
 2666 1020 54010000 		.word	.LC54
 2667 1024 008002E0 		.word	-536707072
 2668              		.cfi_endproc
 2669              	.LFE10:
 2670              		.size	main, .-main
 2671              	.Letext0:
 2672              		.file 2 "c:\\embedded\\tools\\arm-none-eabi\\include\\sys\\lock.h"
 2673              		.file 3 "c:\\embedded\\tools\\arm-none-eabi\\include\\sys\\_types.h"
 2674              		.file 4 "c:\\embedded\\tools\\lib\\gcc\\arm-none-eabi\\7.3.1\\include\\stddef.h"
 2675              		.file 5 "c:\\embedded\\tools\\arm-none-eabi\\include\\sys\\reent.h"
 2676              		.file 6 "general.h"
 2677              		.file 7 "irq/irq_handler.h"
 2678              		.section	.debug_info,"",%progbits
 2679              	.Ldebug_info0:
 2680 0000 200E0000 		.4byte	0xe20
 2681 0004 0200     		.2byte	0x2
 2682 0006 00000000 		.4byte	.Ldebug_abbrev0
 2683 000a 04       		.byte	0x4
 2684 000b 01       		.uleb128 0x1
 2685 000c 6C030000 		.4byte	.LASF161
 2686 0010 0C       		.byte	0xc
 2687 0011 AA020000 		.4byte	.LASF162
 2688 0015 43030000 		.4byte	.LASF163
 2689 0019 00000000 		.4byte	.Ltext0
 2690 001d 28100000 		.4byte	.Letext0
 2691 0021 00000000 		.4byte	.Ldebug_line0
 2692 0025 02       		.uleb128 0x2
 2693 0026 01       		.byte	0x1
 2694 0027 06       		.byte	0x6
 2695 0028 DA000000 		.4byte	.LASF0
 2696 002c 02       		.uleb128 0x2
 2697 002d 01       		.byte	0x1
 2698 002e 08       		.byte	0x8
 2699 002f 18040000 		.4byte	.LASF1
 2700 0033 02       		.uleb128 0x2
 2701 0034 02       		.byte	0x2
 2702 0035 05       		.byte	0x5
 2703 0036 34040000 		.4byte	.LASF2
 2704 003a 02       		.uleb128 0x2
 2705 003b 02       		.byte	0x2
 2706 003c 07       		.byte	0x7
 2707 003d 58020000 		.4byte	.LASF3
 2708 0041 02       		.uleb128 0x2
 2709 0042 04       		.byte	0x4
 2710 0043 05       		.byte	0x5
 2711 0044 3C010000 		.4byte	.LASF4
 2712 0048 02       		.uleb128 0x2
 2713 0049 04       		.byte	0x4
 2714 004a 07       		.byte	0x7
 2715 004b 2F020000 		.4byte	.LASF5
 2716 004f 02       		.uleb128 0x2
 2717 0050 08       		.byte	0x8
 2718 0051 05       		.byte	0x5
 2719 0052 CC000000 		.4byte	.LASF6
 2720 0056 02       		.uleb128 0x2
 2721 0057 08       		.byte	0x8
ARM GAS  C:\Users\embedded\AppData\Local\Temp\ccHk1fkP.s 			page 59


 2722 0058 07       		.byte	0x7
 2723 0059 6E000000 		.4byte	.LASF7
 2724 005d 03       		.uleb128 0x3
 2725 005e 04       		.byte	0x4
 2726 005f 05       		.byte	0x5
 2727 0060 696E7400 		.ascii	"int\000"
 2728 0064 02       		.uleb128 0x2
 2729 0065 04       		.byte	0x4
 2730 0066 07       		.byte	0x7
 2731 0067 02020000 		.4byte	.LASF8
 2732 006b 02       		.uleb128 0x2
 2733 006c 08       		.byte	0x8
 2734 006d 04       		.byte	0x4
 2735 006e F1020000 		.4byte	.LASF9
 2736 0072 04       		.uleb128 0x4
 2737 0073 04       		.byte	0x4
 2738 0074 05       		.uleb128 0x5
 2739 0075 A2020000 		.4byte	.LASF10
 2740 0079 02       		.byte	0x2
 2741 007a 22       		.byte	0x22
 2742 007b 7F000000 		.4byte	0x7f
 2743 007f 06       		.uleb128 0x6
 2744 0080 04       		.byte	0x4
 2745 0081 85000000 		.4byte	0x85
 2746 0085 07       		.uleb128 0x7
 2747 0086 EF040000 		.4byte	.LASF117
 2748 008a 01       		.byte	0x1
 2749 008b 05       		.uleb128 0x5
 2750 008c 3C030000 		.4byte	.LASF11
 2751 0090 03       		.byte	0x3
 2752 0091 2C       		.byte	0x2c
 2753 0092 41000000 		.4byte	0x41
 2754 0096 05       		.uleb128 0x5
 2755 0097 10050000 		.4byte	.LASF12
 2756 009b 03       		.byte	0x3
 2757 009c 72       		.byte	0x72
 2758 009d 41000000 		.4byte	0x41
 2759 00a1 08       		.uleb128 0x8
 2760 00a2 B1020000 		.4byte	.LASF13
 2761 00a6 04       		.byte	0x4
 2762 00a7 6501     		.2byte	0x165
 2763 00a9 64000000 		.4byte	0x64
 2764 00ad 09       		.uleb128 0x9
 2765 00ae 04       		.byte	0x4
 2766 00af 03       		.byte	0x3
 2767 00b0 A6       		.byte	0xa6
 2768 00b1 CC000000 		.4byte	0xcc
 2769 00b5 0A       		.uleb128 0xa
 2770 00b6 95020000 		.4byte	.LASF14
 2771 00ba 03       		.byte	0x3
 2772 00bb A8       		.byte	0xa8
 2773 00bc A1000000 		.4byte	0xa1
 2774 00c0 0A       		.uleb128 0xa
 2775 00c1 0F020000 		.4byte	.LASF15
 2776 00c5 03       		.byte	0x3
 2777 00c6 A9       		.byte	0xa9
 2778 00c7 CC000000 		.4byte	0xcc
ARM GAS  C:\Users\embedded\AppData\Local\Temp\ccHk1fkP.s 			page 60


 2779 00cb 00       		.byte	0
 2780 00cc 0B       		.uleb128 0xb
 2781 00cd 2C000000 		.4byte	0x2c
 2782 00d1 DC000000 		.4byte	0xdc
 2783 00d5 0C       		.uleb128 0xc
 2784 00d6 64000000 		.4byte	0x64
 2785 00da 03       		.byte	0x3
 2786 00db 00       		.byte	0
 2787 00dc 0D       		.uleb128 0xd
 2788 00dd 08       		.byte	0x8
 2789 00de 03       		.byte	0x3
 2790 00df A3       		.byte	0xa3
 2791 00e0 01010000 		.4byte	0x101
 2792 00e4 0E       		.uleb128 0xe
 2793 00e5 E7040000 		.4byte	.LASF16
 2794 00e9 03       		.byte	0x3
 2795 00ea A5       		.byte	0xa5
 2796 00eb 5D000000 		.4byte	0x5d
 2797 00ef 02       		.byte	0x2
 2798 00f0 23       		.byte	0x23
 2799 00f1 00       		.uleb128 0
 2800 00f2 0E       		.uleb128 0xe
 2801 00f3 F6040000 		.4byte	.LASF17
 2802 00f7 03       		.byte	0x3
 2803 00f8 AA       		.byte	0xaa
 2804 00f9 AD000000 		.4byte	0xad
 2805 00fd 02       		.byte	0x2
 2806 00fe 23       		.byte	0x23
 2807 00ff 04       		.uleb128 0x4
 2808 0100 00       		.byte	0
 2809 0101 05       		.uleb128 0x5
 2810 0102 60040000 		.4byte	.LASF18
 2811 0106 03       		.byte	0x3
 2812 0107 AB       		.byte	0xab
 2813 0108 DC000000 		.4byte	0xdc
 2814 010c 05       		.uleb128 0x5
 2815 010d C5010000 		.4byte	.LASF19
 2816 0111 03       		.byte	0x3
 2817 0112 AF       		.byte	0xaf
 2818 0113 74000000 		.4byte	0x74
 2819 0117 05       		.uleb128 0x5
 2820 0118 72050000 		.4byte	.LASF20
 2821 011c 05       		.byte	0x5
 2822 011d 16       		.byte	0x16
 2823 011e 48000000 		.4byte	0x48
 2824 0122 0F       		.uleb128 0xf
 2825 0123 D6010000 		.4byte	.LASF25
 2826 0127 18       		.byte	0x18
 2827 0128 05       		.byte	0x5
 2828 0129 2F       		.byte	0x2f
 2829 012a 81010000 		.4byte	0x181
 2830 012e 0E       		.uleb128 0xe
 2831 012f 48050000 		.4byte	.LASF21
 2832 0133 05       		.byte	0x5
 2833 0134 31       		.byte	0x31
 2834 0135 81010000 		.4byte	0x181
 2835 0139 02       		.byte	0x2
ARM GAS  C:\Users\embedded\AppData\Local\Temp\ccHk1fkP.s 			page 61


 2836 013a 23       		.byte	0x23
 2837 013b 00       		.uleb128 0
 2838 013c 10       		.uleb128 0x10
 2839 013d 5F6B00   		.ascii	"_k\000"
 2840 0140 05       		.byte	0x5
 2841 0141 32       		.byte	0x32
 2842 0142 5D000000 		.4byte	0x5d
 2843 0146 02       		.byte	0x2
 2844 0147 23       		.byte	0x23
 2845 0148 04       		.uleb128 0x4
 2846 0149 0E       		.uleb128 0xe
 2847 014a C7040000 		.4byte	.LASF22
 2848 014e 05       		.byte	0x5
 2849 014f 32       		.byte	0x32
 2850 0150 5D000000 		.4byte	0x5d
 2851 0154 02       		.byte	0x2
 2852 0155 23       		.byte	0x23
 2853 0156 08       		.uleb128 0x8
 2854 0157 0E       		.uleb128 0xe
 2855 0158 B5010000 		.4byte	.LASF23
 2856 015c 05       		.byte	0x5
 2857 015d 32       		.byte	0x32
 2858 015e 5D000000 		.4byte	0x5d
 2859 0162 02       		.byte	0x2
 2860 0163 23       		.byte	0x23
 2861 0164 0C       		.uleb128 0xc
 2862 0165 0E       		.uleb128 0xe
 2863 0166 B9050000 		.4byte	.LASF24
 2864 016a 05       		.byte	0x5
 2865 016b 32       		.byte	0x32
 2866 016c 5D000000 		.4byte	0x5d
 2867 0170 02       		.byte	0x2
 2868 0171 23       		.byte	0x23
 2869 0172 10       		.uleb128 0x10
 2870 0173 10       		.uleb128 0x10
 2871 0174 5F7800   		.ascii	"_x\000"
 2872 0177 05       		.byte	0x5
 2873 0178 33       		.byte	0x33
 2874 0179 87010000 		.4byte	0x187
 2875 017d 02       		.byte	0x2
 2876 017e 23       		.byte	0x23
 2877 017f 14       		.uleb128 0x14
 2878 0180 00       		.byte	0
 2879 0181 06       		.uleb128 0x6
 2880 0182 04       		.byte	0x4
 2881 0183 22010000 		.4byte	0x122
 2882 0187 0B       		.uleb128 0xb
 2883 0188 17010000 		.4byte	0x117
 2884 018c 97010000 		.4byte	0x197
 2885 0190 0C       		.uleb128 0xc
 2886 0191 64000000 		.4byte	0x64
 2887 0195 00       		.byte	0
 2888 0196 00       		.byte	0
 2889 0197 0F       		.uleb128 0xf
 2890 0198 FD010000 		.4byte	.LASF26
 2891 019c 24       		.byte	0x24
 2892 019d 05       		.byte	0x5
ARM GAS  C:\Users\embedded\AppData\Local\Temp\ccHk1fkP.s 			page 62


 2893 019e 37       		.byte	0x37
 2894 019f 22020000 		.4byte	0x222
 2895 01a3 0E       		.uleb128 0xe
 2896 01a4 C3000000 		.4byte	.LASF27
 2897 01a8 05       		.byte	0x5
 2898 01a9 39       		.byte	0x39
 2899 01aa 5D000000 		.4byte	0x5d
 2900 01ae 02       		.byte	0x2
 2901 01af 23       		.byte	0x23
 2902 01b0 00       		.uleb128 0
 2903 01b1 0E       		.uleb128 0xe
 2904 01b2 24050000 		.4byte	.LASF28
 2905 01b6 05       		.byte	0x5
 2906 01b7 3A       		.byte	0x3a
 2907 01b8 5D000000 		.4byte	0x5d
 2908 01bc 02       		.byte	0x2
 2909 01bd 23       		.byte	0x23
 2910 01be 04       		.uleb128 0x4
 2911 01bf 0E       		.uleb128 0xe
 2912 01c0 05010000 		.4byte	.LASF29
 2913 01c4 05       		.byte	0x5
 2914 01c5 3B       		.byte	0x3b
 2915 01c6 5D000000 		.4byte	0x5d
 2916 01ca 02       		.byte	0x2
 2917 01cb 23       		.byte	0x23
 2918 01cc 08       		.uleb128 0x8
 2919 01cd 0E       		.uleb128 0xe
 2920 01ce 62060000 		.4byte	.LASF30
 2921 01d2 05       		.byte	0x5
 2922 01d3 3C       		.byte	0x3c
 2923 01d4 5D000000 		.4byte	0x5d
 2924 01d8 02       		.byte	0x2
 2925 01d9 23       		.byte	0x23
 2926 01da 0C       		.uleb128 0xc
 2927 01db 0E       		.uleb128 0xe
 2928 01dc 0F030000 		.4byte	.LASF31
 2929 01e0 05       		.byte	0x5
 2930 01e1 3D       		.byte	0x3d
 2931 01e2 5D000000 		.4byte	0x5d
 2932 01e6 02       		.byte	0x2
 2933 01e7 23       		.byte	0x23
 2934 01e8 10       		.uleb128 0x10
 2935 01e9 0E       		.uleb128 0xe
 2936 01ea D7020000 		.4byte	.LASF32
 2937 01ee 05       		.byte	0x5
 2938 01ef 3E       		.byte	0x3e
 2939 01f0 5D000000 		.4byte	0x5d
 2940 01f4 02       		.byte	0x2
 2941 01f5 23       		.byte	0x23
 2942 01f6 14       		.uleb128 0x14
 2943 01f7 0E       		.uleb128 0xe
 2944 01f8 BE050000 		.4byte	.LASF33
 2945 01fc 05       		.byte	0x5
 2946 01fd 3F       		.byte	0x3f
 2947 01fe 5D000000 		.4byte	0x5d
 2948 0202 02       		.byte	0x2
 2949 0203 23       		.byte	0x23
ARM GAS  C:\Users\embedded\AppData\Local\Temp\ccHk1fkP.s 			page 63


 2950 0204 18       		.uleb128 0x18
 2951 0205 0E       		.uleb128 0xe
 2952 0206 3E040000 		.4byte	.LASF34
 2953 020a 05       		.byte	0x5
 2954 020b 40       		.byte	0x40
 2955 020c 5D000000 		.4byte	0x5d
 2956 0210 02       		.byte	0x2
 2957 0211 23       		.byte	0x23
 2958 0212 1C       		.uleb128 0x1c
 2959 0213 0E       		.uleb128 0xe
 2960 0214 1B060000 		.4byte	.LASF35
 2961 0218 05       		.byte	0x5
 2962 0219 41       		.byte	0x41
 2963 021a 5D000000 		.4byte	0x5d
 2964 021e 02       		.byte	0x2
 2965 021f 23       		.byte	0x23
 2966 0220 20       		.uleb128 0x20
 2967 0221 00       		.byte	0
 2968 0222 11       		.uleb128 0x11
 2969 0223 14010000 		.4byte	.LASF36
 2970 0227 0801     		.2byte	0x108
 2971 0229 05       		.byte	0x5
 2972 022a 4A       		.byte	0x4a
 2973 022b 6B020000 		.4byte	0x26b
 2974 022f 0E       		.uleb128 0xe
 2975 0230 A8010000 		.4byte	.LASF37
 2976 0234 05       		.byte	0x5
 2977 0235 4B       		.byte	0x4b
 2978 0236 6B020000 		.4byte	0x26b
 2979 023a 02       		.byte	0x2
 2980 023b 23       		.byte	0x23
 2981 023c 00       		.uleb128 0
 2982 023d 0E       		.uleb128 0xe
 2983 023e 00000000 		.4byte	.LASF38
 2984 0242 05       		.byte	0x5
 2985 0243 4C       		.byte	0x4c
 2986 0244 6B020000 		.4byte	0x26b
 2987 0248 03       		.byte	0x3
 2988 0249 23       		.byte	0x23
 2989 024a 8001     		.uleb128 0x80
 2990 024c 0E       		.uleb128 0xe
 2991 024d 5B050000 		.4byte	.LASF39
 2992 0251 05       		.byte	0x5
 2993 0252 4E       		.byte	0x4e
 2994 0253 17010000 		.4byte	0x117
 2995 0257 03       		.byte	0x3
 2996 0258 23       		.byte	0x23
 2997 0259 8002     		.uleb128 0x100
 2998 025b 0E       		.uleb128 0xe
 2999 025c 53010000 		.4byte	.LASF40
 3000 0260 05       		.byte	0x5
 3001 0261 51       		.byte	0x51
 3002 0262 17010000 		.4byte	0x117
 3003 0266 03       		.byte	0x3
 3004 0267 23       		.byte	0x23
 3005 0268 8402     		.uleb128 0x104
 3006 026a 00       		.byte	0
ARM GAS  C:\Users\embedded\AppData\Local\Temp\ccHk1fkP.s 			page 64


 3007 026b 0B       		.uleb128 0xb
 3008 026c 72000000 		.4byte	0x72
 3009 0270 7B020000 		.4byte	0x27b
 3010 0274 0C       		.uleb128 0xc
 3011 0275 64000000 		.4byte	0x64
 3012 0279 1F       		.byte	0x1f
 3013 027a 00       		.byte	0
 3014 027b 11       		.uleb128 0x11
 3015 027c 24030000 		.4byte	.LASF41
 3016 0280 9001     		.2byte	0x190
 3017 0282 05       		.byte	0x5
 3018 0283 5D       		.byte	0x5d
 3019 0284 C2020000 		.4byte	0x2c2
 3020 0288 0E       		.uleb128 0xe
 3021 0289 48050000 		.4byte	.LASF21
 3022 028d 05       		.byte	0x5
 3023 028e 5E       		.byte	0x5e
 3024 028f C2020000 		.4byte	0x2c2
 3025 0293 02       		.byte	0x2
 3026 0294 23       		.byte	0x23
 3027 0295 00       		.uleb128 0
 3028 0296 0E       		.uleb128 0xe
 3029 0297 92040000 		.4byte	.LASF42
 3030 029b 05       		.byte	0x5
 3031 029c 5F       		.byte	0x5f
 3032 029d 5D000000 		.4byte	0x5d
 3033 02a1 02       		.byte	0x2
 3034 02a2 23       		.byte	0x23
 3035 02a3 04       		.uleb128 0x4
 3036 02a4 0E       		.uleb128 0xe
 3037 02a5 B0010000 		.4byte	.LASF43
 3038 02a9 05       		.byte	0x5
 3039 02aa 61       		.byte	0x61
 3040 02ab C8020000 		.4byte	0x2c8
 3041 02af 02       		.byte	0x2
 3042 02b0 23       		.byte	0x23
 3043 02b1 08       		.uleb128 0x8
 3044 02b2 0E       		.uleb128 0xe
 3045 02b3 14010000 		.4byte	.LASF36
 3046 02b7 05       		.byte	0x5
 3047 02b8 62       		.byte	0x62
 3048 02b9 22020000 		.4byte	0x222
 3049 02bd 03       		.byte	0x3
 3050 02be 23       		.byte	0x23
 3051 02bf 8801     		.uleb128 0x88
 3052 02c1 00       		.byte	0
 3053 02c2 06       		.uleb128 0x6
 3054 02c3 04       		.byte	0x4
 3055 02c4 7B020000 		.4byte	0x27b
 3056 02c8 0B       		.uleb128 0xb
 3057 02c9 D8020000 		.4byte	0x2d8
 3058 02cd D8020000 		.4byte	0x2d8
 3059 02d1 0C       		.uleb128 0xc
 3060 02d2 64000000 		.4byte	0x64
 3061 02d6 1F       		.byte	0x1f
 3062 02d7 00       		.byte	0
 3063 02d8 06       		.uleb128 0x6
ARM GAS  C:\Users\embedded\AppData\Local\Temp\ccHk1fkP.s 			page 65


 3064 02d9 04       		.byte	0x4
 3065 02da DE020000 		.4byte	0x2de
 3066 02de 12       		.uleb128 0x12
 3067 02df 01       		.byte	0x1
 3068 02e0 0F       		.uleb128 0xf
 3069 02e1 48040000 		.4byte	.LASF44
 3070 02e5 08       		.byte	0x8
 3071 02e6 05       		.byte	0x5
 3072 02e7 75       		.byte	0x75
 3073 02e8 09030000 		.4byte	0x309
 3074 02ec 0E       		.uleb128 0xe
 3075 02ed F1000000 		.4byte	.LASF45
 3076 02f1 05       		.byte	0x5
 3077 02f2 76       		.byte	0x76
 3078 02f3 09030000 		.4byte	0x309
 3079 02f7 02       		.byte	0x2
 3080 02f8 23       		.byte	0x23
 3081 02f9 00       		.uleb128 0
 3082 02fa 0E       		.uleb128 0xe
 3083 02fb 0C000000 		.4byte	.LASF46
 3084 02ff 05       		.byte	0x5
 3085 0300 77       		.byte	0x77
 3086 0301 5D000000 		.4byte	0x5d
 3087 0305 02       		.byte	0x2
 3088 0306 23       		.byte	0x23
 3089 0307 04       		.uleb128 0x4
 3090 0308 00       		.byte	0
 3091 0309 06       		.uleb128 0x6
 3092 030a 04       		.byte	0x4
 3093 030b 2C000000 		.4byte	0x2c
 3094 030f 0F       		.uleb128 0xf
 3095 0310 6B040000 		.4byte	.LASF47
 3096 0314 68       		.byte	0x68
 3097 0315 05       		.byte	0x5
 3098 0316 B5       		.byte	0xb5
 3099 0317 69040000 		.4byte	0x469
 3100 031b 10       		.uleb128 0x10
 3101 031c 5F7000   		.ascii	"_p\000"
 3102 031f 05       		.byte	0x5
 3103 0320 B6       		.byte	0xb6
 3104 0321 09030000 		.4byte	0x309
 3105 0325 02       		.byte	0x2
 3106 0326 23       		.byte	0x23
 3107 0327 00       		.uleb128 0
 3108 0328 10       		.uleb128 0x10
 3109 0329 5F7200   		.ascii	"_r\000"
 3110 032c 05       		.byte	0x5
 3111 032d B7       		.byte	0xb7
 3112 032e 5D000000 		.4byte	0x5d
 3113 0332 02       		.byte	0x2
 3114 0333 23       		.byte	0x23
 3115 0334 04       		.uleb128 0x4
 3116 0335 10       		.uleb128 0x10
 3117 0336 5F7700   		.ascii	"_w\000"
 3118 0339 05       		.byte	0x5
 3119 033a B8       		.byte	0xb8
 3120 033b 5D000000 		.4byte	0x5d
ARM GAS  C:\Users\embedded\AppData\Local\Temp\ccHk1fkP.s 			page 66


 3121 033f 02       		.byte	0x2
 3122 0340 23       		.byte	0x23
 3123 0341 08       		.uleb128 0x8
 3124 0342 0E       		.uleb128 0xe
 3125 0343 4C010000 		.4byte	.LASF48
 3126 0347 05       		.byte	0x5
 3127 0348 B9       		.byte	0xb9
 3128 0349 33000000 		.4byte	0x33
 3129 034d 02       		.byte	0x2
 3130 034e 23       		.byte	0x23
 3131 034f 0C       		.uleb128 0xc
 3132 0350 0E       		.uleb128 0xe
 3133 0351 41020000 		.4byte	.LASF49
 3134 0355 05       		.byte	0x5
 3135 0356 BA       		.byte	0xba
 3136 0357 33000000 		.4byte	0x33
 3137 035b 02       		.byte	0x2
 3138 035c 23       		.byte	0x23
 3139 035d 0E       		.uleb128 0xe
 3140 035e 10       		.uleb128 0x10
 3141 035f 5F626600 		.ascii	"_bf\000"
 3142 0363 05       		.byte	0x5
 3143 0364 BB       		.byte	0xbb
 3144 0365 E0020000 		.4byte	0x2e0
 3145 0369 02       		.byte	0x2
 3146 036a 23       		.byte	0x23
 3147 036b 10       		.uleb128 0x10
 3148 036c 0E       		.uleb128 0xe
 3149 036d 98000000 		.4byte	.LASF50
 3150 0371 05       		.byte	0x5
 3151 0372 BC       		.byte	0xbc
 3152 0373 5D000000 		.4byte	0x5d
 3153 0377 02       		.byte	0x2
 3154 0378 23       		.byte	0x23
 3155 0379 18       		.uleb128 0x18
 3156 037a 0E       		.uleb128 0xe
 3157 037b 22010000 		.4byte	.LASF51
 3158 037f 05       		.byte	0x5
 3159 0380 C3       		.byte	0xc3
 3160 0381 72000000 		.4byte	0x72
 3161 0385 02       		.byte	0x2
 3162 0386 23       		.byte	0x23
 3163 0387 1C       		.uleb128 0x1c
 3164 0388 0E       		.uleb128 0xe
 3165 0389 ED010000 		.4byte	.LASF52
 3166 038d 05       		.byte	0x5
 3167 038e C5       		.byte	0xc5
 3168 038f 03060000 		.4byte	0x603
 3169 0393 02       		.byte	0x2
 3170 0394 23       		.byte	0x23
 3171 0395 20       		.uleb128 0x20
 3172 0396 0E       		.uleb128 0xe
 3173 0397 D0020000 		.4byte	.LASF53
 3174 039b 05       		.byte	0x5
 3175 039c C7       		.byte	0xc7
 3176 039d 2E060000 		.4byte	0x62e
 3177 03a1 02       		.byte	0x2
ARM GAS  C:\Users\embedded\AppData\Local\Temp\ccHk1fkP.s 			page 67


 3178 03a2 23       		.byte	0x23
 3179 03a3 24       		.uleb128 0x24
 3180 03a4 0E       		.uleb128 0xe
 3181 03a5 FE040000 		.4byte	.LASF54
 3182 03a9 05       		.byte	0x5
 3183 03aa CA       		.byte	0xca
 3184 03ab 53060000 		.4byte	0x653
 3185 03af 02       		.byte	0x2
 3186 03b0 23       		.byte	0x23
 3187 03b1 28       		.uleb128 0x28
 3188 03b2 0E       		.uleb128 0xe
 3189 03b3 35060000 		.4byte	.LASF55
 3190 03b7 05       		.byte	0x5
 3191 03b8 CB       		.byte	0xcb
 3192 03b9 6E060000 		.4byte	0x66e
 3193 03bd 02       		.byte	0x2
 3194 03be 23       		.byte	0x23
 3195 03bf 2C       		.uleb128 0x2c
 3196 03c0 10       		.uleb128 0x10
 3197 03c1 5F756200 		.ascii	"_ub\000"
 3198 03c5 05       		.byte	0x5
 3199 03c6 CE       		.byte	0xce
 3200 03c7 E0020000 		.4byte	0x2e0
 3201 03cb 02       		.byte	0x2
 3202 03cc 23       		.byte	0x23
 3203 03cd 30       		.uleb128 0x30
 3204 03ce 10       		.uleb128 0x10
 3205 03cf 5F757000 		.ascii	"_up\000"
 3206 03d3 05       		.byte	0x5
 3207 03d4 CF       		.byte	0xcf
 3208 03d5 09030000 		.4byte	0x309
 3209 03d9 02       		.byte	0x2
 3210 03da 23       		.byte	0x23
 3211 03db 38       		.uleb128 0x38
 3212 03dc 10       		.uleb128 0x10
 3213 03dd 5F757200 		.ascii	"_ur\000"
 3214 03e1 05       		.byte	0x5
 3215 03e2 D0       		.byte	0xd0
 3216 03e3 5D000000 		.4byte	0x5d
 3217 03e7 02       		.byte	0x2
 3218 03e8 23       		.byte	0x23
 3219 03e9 3C       		.uleb128 0x3c
 3220 03ea 0E       		.uleb128 0xe
 3221 03eb EB000000 		.4byte	.LASF56
 3222 03ef 05       		.byte	0x5
 3223 03f0 D3       		.byte	0xd3
 3224 03f1 74060000 		.4byte	0x674
 3225 03f5 02       		.byte	0x2
 3226 03f6 23       		.byte	0x23
 3227 03f7 40       		.uleb128 0x40
 3228 03f8 0E       		.uleb128 0xe
 3229 03f9 0D060000 		.4byte	.LASF57
 3230 03fd 05       		.byte	0x5
 3231 03fe D4       		.byte	0xd4
 3232 03ff 84060000 		.4byte	0x684
 3233 0403 02       		.byte	0x2
 3234 0404 23       		.byte	0x23
ARM GAS  C:\Users\embedded\AppData\Local\Temp\ccHk1fkP.s 			page 68


 3235 0405 43       		.uleb128 0x43
 3236 0406 10       		.uleb128 0x10
 3237 0407 5F6C6200 		.ascii	"_lb\000"
 3238 040b 05       		.byte	0x5
 3239 040c D7       		.byte	0xd7
 3240 040d E0020000 		.4byte	0x2e0
 3241 0411 02       		.byte	0x2
 3242 0412 23       		.byte	0x23
 3243 0413 44       		.uleb128 0x44
 3244 0414 0E       		.uleb128 0xe
 3245 0415 62010000 		.4byte	.LASF58
 3246 0419 05       		.byte	0x5
 3247 041a DA       		.byte	0xda
 3248 041b 5D000000 		.4byte	0x5d
 3249 041f 02       		.byte	0x2
 3250 0420 23       		.byte	0x23
 3251 0421 4C       		.uleb128 0x4c
 3252 0422 0E       		.uleb128 0xe
 3253 0423 81010000 		.4byte	.LASF59
 3254 0427 05       		.byte	0x5
 3255 0428 DB       		.byte	0xdb
 3256 0429 8B000000 		.4byte	0x8b
 3257 042d 02       		.byte	0x2
 3258 042e 23       		.byte	0x23
 3259 042f 50       		.uleb128 0x50
 3260 0430 0E       		.uleb128 0xe
 3261 0431 3D000000 		.4byte	.LASF60
 3262 0435 05       		.byte	0x5
 3263 0436 DE       		.byte	0xde
 3264 0437 88040000 		.4byte	0x488
 3265 043b 02       		.byte	0x2
 3266 043c 23       		.byte	0x23
 3267 043d 54       		.uleb128 0x54
 3268 043e 0E       		.uleb128 0xe
 3269 043f B8020000 		.4byte	.LASF61
 3270 0443 05       		.byte	0x5
 3271 0444 E2       		.byte	0xe2
 3272 0445 0C010000 		.4byte	0x10c
 3273 0449 02       		.byte	0x2
 3274 044a 23       		.byte	0x23
 3275 044b 58       		.uleb128 0x58
 3276 044c 0E       		.uleb128 0xe
 3277 044d 73040000 		.4byte	.LASF62
 3278 0451 05       		.byte	0x5
 3279 0452 E4       		.byte	0xe4
 3280 0453 01010000 		.4byte	0x101
 3281 0457 02       		.byte	0x2
 3282 0458 23       		.byte	0x23
 3283 0459 5C       		.uleb128 0x5c
 3284 045a 0E       		.uleb128 0xe
 3285 045b C8020000 		.4byte	.LASF63
 3286 045f 05       		.byte	0x5
 3287 0460 E5       		.byte	0xe5
 3288 0461 5D000000 		.4byte	0x5d
 3289 0465 02       		.byte	0x2
 3290 0466 23       		.byte	0x23
 3291 0467 64       		.uleb128 0x64
ARM GAS  C:\Users\embedded\AppData\Local\Temp\ccHk1fkP.s 			page 69


 3292 0468 00       		.byte	0
 3293 0469 13       		.uleb128 0x13
 3294 046a 01       		.byte	0x1
 3295 046b 5D000000 		.4byte	0x5d
 3296 046f 88040000 		.4byte	0x488
 3297 0473 14       		.uleb128 0x14
 3298 0474 88040000 		.4byte	0x488
 3299 0478 14       		.uleb128 0x14
 3300 0479 72000000 		.4byte	0x72
 3301 047d 14       		.uleb128 0x14
 3302 047e F1050000 		.4byte	0x5f1
 3303 0482 14       		.uleb128 0x14
 3304 0483 5D000000 		.4byte	0x5d
 3305 0487 00       		.byte	0
 3306 0488 06       		.uleb128 0x6
 3307 0489 04       		.byte	0x4
 3308 048a 93040000 		.4byte	0x493
 3309 048e 15       		.uleb128 0x15
 3310 048f 88040000 		.4byte	0x488
 3311 0493 16       		.uleb128 0x16
 3312 0494 CF040000 		.4byte	.LASF64
 3313 0498 2804     		.2byte	0x428
 3314 049a 05       		.byte	0x5
 3315 049b 6002     		.2byte	0x260
 3316 049d F1050000 		.4byte	0x5f1
 3317 04a1 17       		.uleb128 0x17
 3318 04a2 18050000 		.4byte	.LASF65
 3319 04a6 05       		.byte	0x5
 3320 04a7 6202     		.2byte	0x262
 3321 04a9 5D000000 		.4byte	0x5d
 3322 04ad 02       		.byte	0x2
 3323 04ae 23       		.byte	0x23
 3324 04af 00       		.uleb128 0
 3325 04b0 17       		.uleb128 0x17
 3326 04b1 5B010000 		.4byte	.LASF66
 3327 04b5 05       		.byte	0x5
 3328 04b6 6702     		.2byte	0x267
 3329 04b8 E1060000 		.4byte	0x6e1
 3330 04bc 02       		.byte	0x2
 3331 04bd 23       		.byte	0x23
 3332 04be 04       		.uleb128 0x4
 3333 04bf 17       		.uleb128 0x17
 3334 04c0 1F020000 		.4byte	.LASF67
 3335 04c4 05       		.byte	0x5
 3336 04c5 6702     		.2byte	0x267
 3337 04c7 E1060000 		.4byte	0x6e1
 3338 04cb 02       		.byte	0x2
 3339 04cc 23       		.byte	0x23
 3340 04cd 08       		.uleb128 0x8
 3341 04ce 17       		.uleb128 0x17
 3342 04cf CE010000 		.4byte	.LASF68
 3343 04d3 05       		.byte	0x5
 3344 04d4 6702     		.2byte	0x267
 3345 04d6 E1060000 		.4byte	0x6e1
 3346 04da 02       		.byte	0x2
 3347 04db 23       		.byte	0x23
 3348 04dc 0C       		.uleb128 0xc
ARM GAS  C:\Users\embedded\AppData\Local\Temp\ccHk1fkP.s 			page 70


 3349 04dd 17       		.uleb128 0x17
 3350 04de 8D040000 		.4byte	.LASF69
 3351 04e2 05       		.byte	0x5
 3352 04e3 6902     		.2byte	0x269
 3353 04e5 5D000000 		.4byte	0x5d
 3354 04e9 02       		.byte	0x2
 3355 04ea 23       		.byte	0x23
 3356 04eb 10       		.uleb128 0x10
 3357 04ec 17       		.uleb128 0x17
 3358 04ed 32000000 		.4byte	.LASF70
 3359 04f1 05       		.byte	0x5
 3360 04f2 6A02     		.2byte	0x26a
 3361 04f4 FC080000 		.4byte	0x8fc
 3362 04f8 02       		.byte	0x2
 3363 04f9 23       		.byte	0x23
 3364 04fa 14       		.uleb128 0x14
 3365 04fb 17       		.uleb128 0x17
 3366 04fc AE040000 		.4byte	.LASF71
 3367 0500 05       		.byte	0x5
 3368 0501 6D02     		.2byte	0x26d
 3369 0503 5D000000 		.4byte	0x5d
 3370 0507 02       		.byte	0x2
 3371 0508 23       		.byte	0x23
 3372 0509 30       		.uleb128 0x30
 3373 050a 17       		.uleb128 0x17
 3374 050b 9C040000 		.4byte	.LASF72
 3375 050f 05       		.byte	0x5
 3376 0510 6E02     		.2byte	0x26e
 3377 0512 12090000 		.4byte	0x912
 3378 0516 02       		.byte	0x2
 3379 0517 23       		.byte	0x23
 3380 0518 34       		.uleb128 0x34
 3381 0519 17       		.uleb128 0x17
 3382 051a 31030000 		.4byte	.LASF73
 3383 051e 05       		.byte	0x5
 3384 051f 7002     		.2byte	0x270
 3385 0521 5D000000 		.4byte	0x5d
 3386 0525 02       		.byte	0x2
 3387 0526 23       		.byte	0x23
 3388 0527 38       		.uleb128 0x38
 3389 0528 17       		.uleb128 0x17
 3390 0529 A4040000 		.4byte	.LASF74
 3391 052d 05       		.byte	0x5
 3392 052e 7202     		.2byte	0x272
 3393 0530 24090000 		.4byte	0x924
 3394 0534 02       		.byte	0x2
 3395 0535 23       		.byte	0x23
 3396 0536 3C       		.uleb128 0x3c
 3397 0537 17       		.uleb128 0x17
 3398 0538 8D020000 		.4byte	.LASF75
 3399 053c 05       		.byte	0x5
 3400 053d 7502     		.2byte	0x275
 3401 053f 81010000 		.4byte	0x181
 3402 0543 02       		.byte	0x2
 3403 0544 23       		.byte	0x23
 3404 0545 40       		.uleb128 0x40
 3405 0546 17       		.uleb128 0x17
ARM GAS  C:\Users\embedded\AppData\Local\Temp\ccHk1fkP.s 			page 71


 3406 0547 F3010000 		.4byte	.LASF76
 3407 054b 05       		.byte	0x5
 3408 054c 7602     		.2byte	0x276
 3409 054e 5D000000 		.4byte	0x5d
 3410 0552 02       		.byte	0x2
 3411 0553 23       		.byte	0x23
 3412 0554 44       		.uleb128 0x44
 3413 0555 17       		.uleb128 0x17
 3414 0556 4F060000 		.4byte	.LASF77
 3415 055a 05       		.byte	0x5
 3416 055b 7702     		.2byte	0x277
 3417 055d 81010000 		.4byte	0x181
 3418 0561 02       		.byte	0x2
 3419 0562 23       		.byte	0x23
 3420 0563 48       		.uleb128 0x48
 3421 0564 17       		.uleb128 0x17
 3422 0565 4F040000 		.4byte	.LASF78
 3423 0569 05       		.byte	0x5
 3424 056a 7802     		.2byte	0x278
 3425 056c 2A090000 		.4byte	0x92a
 3426 0570 02       		.byte	0x2
 3427 0571 23       		.byte	0x23
 3428 0572 4C       		.uleb128 0x4c
 3429 0573 17       		.uleb128 0x17
 3430 0574 27020000 		.4byte	.LASF79
 3431 0578 05       		.byte	0x5
 3432 0579 7B02     		.2byte	0x27b
 3433 057b 5D000000 		.4byte	0x5d
 3434 057f 02       		.byte	0x2
 3435 0580 23       		.byte	0x23
 3436 0581 50       		.uleb128 0x50
 3437 0582 17       		.uleb128 0x17
 3438 0583 79010000 		.4byte	.LASF80
 3439 0587 05       		.byte	0x5
 3440 0588 7C02     		.2byte	0x27c
 3441 058a F1050000 		.4byte	0x5f1
 3442 058e 02       		.byte	0x2
 3443 058f 23       		.byte	0x23
 3444 0590 54       		.uleb128 0x54
 3445 0591 17       		.uleb128 0x17
 3446 0592 26040000 		.4byte	.LASF81
 3447 0596 05       		.byte	0x5
 3448 0597 9F02     		.2byte	0x29f
 3449 0599 DA080000 		.4byte	0x8da
 3450 059d 02       		.byte	0x2
 3451 059e 23       		.byte	0x23
 3452 059f 58       		.uleb128 0x58
 3453 05a0 17       		.uleb128 0x17
 3454 05a1 24030000 		.4byte	.LASF41
 3455 05a5 05       		.byte	0x5
 3456 05a6 A302     		.2byte	0x2a3
 3457 05a8 C2020000 		.4byte	0x2c2
 3458 05ac 03       		.byte	0x3
 3459 05ad 23       		.byte	0x23
 3460 05ae C802     		.uleb128 0x148
 3461 05b0 17       		.uleb128 0x17
 3462 05b1 6B020000 		.4byte	.LASF82
ARM GAS  C:\Users\embedded\AppData\Local\Temp\ccHk1fkP.s 			page 72


 3463 05b5 05       		.byte	0x5
 3464 05b6 A402     		.2byte	0x2a4
 3465 05b8 7B020000 		.4byte	0x27b
 3466 05bc 03       		.byte	0x3
 3467 05bd 23       		.byte	0x23
 3468 05be CC02     		.uleb128 0x14c
 3469 05c0 17       		.uleb128 0x17
 3470 05c1 E7050000 		.4byte	.LASF83
 3471 05c5 05       		.byte	0x5
 3472 05c6 A802     		.2byte	0x2a8
 3473 05c8 3C090000 		.4byte	0x93c
 3474 05cc 03       		.byte	0x3
 3475 05cd 23       		.byte	0x23
 3476 05ce DC05     		.uleb128 0x2dc
 3477 05d0 17       		.uleb128 0x17
 3478 05d1 2F010000 		.4byte	.LASF84
 3479 05d5 05       		.byte	0x5
 3480 05d6 AD02     		.2byte	0x2ad
 3481 05d8 A0060000 		.4byte	0x6a0
 3482 05dc 03       		.byte	0x3
 3483 05dd 23       		.byte	0x23
 3484 05de E005     		.uleb128 0x2e0
 3485 05e0 17       		.uleb128 0x17
 3486 05e1 0F010000 		.4byte	.LASF85
 3487 05e5 05       		.byte	0x5
 3488 05e6 AF02     		.2byte	0x2af
 3489 05e8 48090000 		.4byte	0x948
 3490 05ec 03       		.byte	0x3
 3491 05ed 23       		.byte	0x23
 3492 05ee EC05     		.uleb128 0x2ec
 3493 05f0 00       		.byte	0
 3494 05f1 06       		.uleb128 0x6
 3495 05f2 04       		.byte	0x4
 3496 05f3 F7050000 		.4byte	0x5f7
 3497 05f7 02       		.uleb128 0x2
 3498 05f8 01       		.byte	0x1
 3499 05f9 08       		.byte	0x8
 3500 05fa 1F050000 		.4byte	.LASF86
 3501 05fe 15       		.uleb128 0x15
 3502 05ff F7050000 		.4byte	0x5f7
 3503 0603 06       		.uleb128 0x6
 3504 0604 04       		.byte	0x4
 3505 0605 69040000 		.4byte	0x469
 3506 0609 13       		.uleb128 0x13
 3507 060a 01       		.byte	0x1
 3508 060b 5D000000 		.4byte	0x5d
 3509 060f 28060000 		.4byte	0x628
 3510 0613 14       		.uleb128 0x14
 3511 0614 88040000 		.4byte	0x488
 3512 0618 14       		.uleb128 0x14
 3513 0619 72000000 		.4byte	0x72
 3514 061d 14       		.uleb128 0x14
 3515 061e 28060000 		.4byte	0x628
 3516 0622 14       		.uleb128 0x14
 3517 0623 5D000000 		.4byte	0x5d
 3518 0627 00       		.byte	0
 3519 0628 06       		.uleb128 0x6
ARM GAS  C:\Users\embedded\AppData\Local\Temp\ccHk1fkP.s 			page 73


 3520 0629 04       		.byte	0x4
 3521 062a FE050000 		.4byte	0x5fe
 3522 062e 06       		.uleb128 0x6
 3523 062f 04       		.byte	0x4
 3524 0630 09060000 		.4byte	0x609
 3525 0634 13       		.uleb128 0x13
 3526 0635 01       		.byte	0x1
 3527 0636 96000000 		.4byte	0x96
 3528 063a 53060000 		.4byte	0x653
 3529 063e 14       		.uleb128 0x14
 3530 063f 88040000 		.4byte	0x488
 3531 0643 14       		.uleb128 0x14
 3532 0644 72000000 		.4byte	0x72
 3533 0648 14       		.uleb128 0x14
 3534 0649 96000000 		.4byte	0x96
 3535 064d 14       		.uleb128 0x14
 3536 064e 5D000000 		.4byte	0x5d
 3537 0652 00       		.byte	0
 3538 0653 06       		.uleb128 0x6
 3539 0654 04       		.byte	0x4
 3540 0655 34060000 		.4byte	0x634
 3541 0659 13       		.uleb128 0x13
 3542 065a 01       		.byte	0x1
 3543 065b 5D000000 		.4byte	0x5d
 3544 065f 6E060000 		.4byte	0x66e
 3545 0663 14       		.uleb128 0x14
 3546 0664 88040000 		.4byte	0x488
 3547 0668 14       		.uleb128 0x14
 3548 0669 72000000 		.4byte	0x72
 3549 066d 00       		.byte	0
 3550 066e 06       		.uleb128 0x6
 3551 066f 04       		.byte	0x4
 3552 0670 59060000 		.4byte	0x659
 3553 0674 0B       		.uleb128 0xb
 3554 0675 2C000000 		.4byte	0x2c
 3555 0679 84060000 		.4byte	0x684
 3556 067d 0C       		.uleb128 0xc
 3557 067e 64000000 		.4byte	0x64
 3558 0682 02       		.byte	0x2
 3559 0683 00       		.byte	0
 3560 0684 0B       		.uleb128 0xb
 3561 0685 2C000000 		.4byte	0x2c
 3562 0689 94060000 		.4byte	0x694
 3563 068d 0C       		.uleb128 0xc
 3564 068e 64000000 		.4byte	0x64
 3565 0692 00       		.byte	0
 3566 0693 00       		.byte	0
 3567 0694 08       		.uleb128 0x8
 3568 0695 59040000 		.4byte	.LASF87
 3569 0699 05       		.byte	0x5
 3570 069a 1F01     		.2byte	0x11f
 3571 069c 0F030000 		.4byte	0x30f
 3572 06a0 18       		.uleb128 0x18
 3573 06a1 C8050000 		.4byte	.LASF88
 3574 06a5 0C       		.byte	0xc
 3575 06a6 05       		.byte	0x5
 3576 06a7 2301     		.2byte	0x123
ARM GAS  C:\Users\embedded\AppData\Local\Temp\ccHk1fkP.s 			page 74


 3577 06a9 DB060000 		.4byte	0x6db
 3578 06ad 17       		.uleb128 0x17
 3579 06ae 48050000 		.4byte	.LASF21
 3580 06b2 05       		.byte	0x5
 3581 06b3 2501     		.2byte	0x125
 3582 06b5 DB060000 		.4byte	0x6db
 3583 06b9 02       		.byte	0x2
 3584 06ba 23       		.byte	0x23
 3585 06bb 00       		.uleb128 0
 3586 06bc 17       		.uleb128 0x17
 3587 06bd 4C020000 		.4byte	.LASF89
 3588 06c1 05       		.byte	0x5
 3589 06c2 2601     		.2byte	0x126
 3590 06c4 5D000000 		.4byte	0x5d
 3591 06c8 02       		.byte	0x2
 3592 06c9 23       		.byte	0x23
 3593 06ca 04       		.uleb128 0x4
 3594 06cb 17       		.uleb128 0x17
 3595 06cc 87040000 		.4byte	.LASF90
 3596 06d0 05       		.byte	0x5
 3597 06d1 2701     		.2byte	0x127
 3598 06d3 E1060000 		.4byte	0x6e1
 3599 06d7 02       		.byte	0x2
 3600 06d8 23       		.byte	0x23
 3601 06d9 08       		.uleb128 0x8
 3602 06da 00       		.byte	0
 3603 06db 06       		.uleb128 0x6
 3604 06dc 04       		.byte	0x4
 3605 06dd A0060000 		.4byte	0x6a0
 3606 06e1 06       		.uleb128 0x6
 3607 06e2 04       		.byte	0x4
 3608 06e3 94060000 		.4byte	0x694
 3609 06e7 18       		.uleb128 0x18
 3610 06e8 20000000 		.4byte	.LASF91
 3611 06ec 0E       		.byte	0xe
 3612 06ed 05       		.byte	0x5
 3613 06ee 3F01     		.2byte	0x13f
 3614 06f0 22070000 		.4byte	0x722
 3615 06f4 17       		.uleb128 0x17
 3616 06f5 D6040000 		.4byte	.LASF92
 3617 06f9 05       		.byte	0x5
 3618 06fa 4001     		.2byte	0x140
 3619 06fc 22070000 		.4byte	0x722
 3620 0700 02       		.byte	0x2
 3621 0701 23       		.byte	0x23
 3622 0702 00       		.uleb128 0
 3623 0703 17       		.uleb128 0x17
 3624 0704 3B050000 		.4byte	.LASF93
 3625 0708 05       		.byte	0x5
 3626 0709 4101     		.2byte	0x141
 3627 070b 22070000 		.4byte	0x722
 3628 070f 02       		.byte	0x2
 3629 0710 23       		.byte	0x23
 3630 0711 06       		.uleb128 0x6
 3631 0712 17       		.uleb128 0x17
 3632 0713 6D050000 		.4byte	.LASF94
 3633 0717 05       		.byte	0x5
ARM GAS  C:\Users\embedded\AppData\Local\Temp\ccHk1fkP.s 			page 75


 3634 0718 4201     		.2byte	0x142
 3635 071a 3A000000 		.4byte	0x3a
 3636 071e 02       		.byte	0x2
 3637 071f 23       		.byte	0x23
 3638 0720 0C       		.uleb128 0xc
 3639 0721 00       		.byte	0
 3640 0722 0B       		.uleb128 0xb
 3641 0723 3A000000 		.4byte	0x3a
 3642 0727 32070000 		.4byte	0x732
 3643 072b 0C       		.uleb128 0xc
 3644 072c 64000000 		.4byte	0x64
 3645 0730 02       		.byte	0x2
 3646 0731 00       		.byte	0
 3647 0732 19       		.uleb128 0x19
 3648 0733 D0       		.byte	0xd0
 3649 0734 05       		.byte	0x5
 3650 0735 8002     		.2byte	0x280
 3651 0737 62080000 		.4byte	0x862
 3652 073b 17       		.uleb128 0x17
 3653 073c 9F050000 		.4byte	.LASF95
 3654 0740 05       		.byte	0x5
 3655 0741 8202     		.2byte	0x282
 3656 0743 64000000 		.4byte	0x64
 3657 0747 02       		.byte	0x2
 3658 0748 23       		.byte	0x23
 3659 0749 00       		.uleb128 0
 3660 074a 17       		.uleb128 0x17
 3661 074b 4E050000 		.4byte	.LASF96
 3662 074f 05       		.byte	0x5
 3663 0750 8302     		.2byte	0x283
 3664 0752 F1050000 		.4byte	0x5f1
 3665 0756 02       		.byte	0x2
 3666 0757 23       		.byte	0x23
 3667 0758 04       		.uleb128 0x4
 3668 0759 17       		.uleb128 0x17
 3669 075a 80020000 		.4byte	.LASF97
 3670 075e 05       		.byte	0x5
 3671 075f 8402     		.2byte	0x284
 3672 0761 62080000 		.4byte	0x862
 3673 0765 02       		.byte	0x2
 3674 0766 23       		.byte	0x23
 3675 0767 08       		.uleb128 0x8
 3676 0768 17       		.uleb128 0x17
 3677 0769 26060000 		.4byte	.LASF98
 3678 076d 05       		.byte	0x5
 3679 076e 8502     		.2byte	0x285
 3680 0770 97010000 		.4byte	0x197
 3681 0774 02       		.byte	0x2
 3682 0775 23       		.byte	0x23
 3683 0776 24       		.uleb128 0x24
 3684 0777 17       		.uleb128 0x17
 3685 0778 DE010000 		.4byte	.LASF99
 3686 077c 05       		.byte	0x5
 3687 077d 8602     		.2byte	0x286
 3688 077f 5D000000 		.4byte	0x5d
 3689 0783 02       		.byte	0x2
 3690 0784 23       		.byte	0x23
ARM GAS  C:\Users\embedded\AppData\Local\Temp\ccHk1fkP.s 			page 76


 3691 0785 48       		.uleb128 0x48
 3692 0786 17       		.uleb128 0x17
 3693 0787 7C040000 		.4byte	.LASF100
 3694 078b 05       		.byte	0x5
 3695 078c 8702     		.2byte	0x287
 3696 078e 56000000 		.4byte	0x56
 3697 0792 02       		.byte	0x2
 3698 0793 23       		.byte	0x23
 3699 0794 50       		.uleb128 0x50
 3700 0795 17       		.uleb128 0x17
 3701 0796 3C060000 		.4byte	.LASF101
 3702 079a 05       		.byte	0x5
 3703 079b 8802     		.2byte	0x288
 3704 079d E7060000 		.4byte	0x6e7
 3705 07a1 02       		.byte	0x2
 3706 07a2 23       		.byte	0x23
 3707 07a3 58       		.uleb128 0x58
 3708 07a4 17       		.uleb128 0x17
 3709 07a5 0B040000 		.4byte	.LASF102
 3710 07a9 05       		.byte	0x5
 3711 07aa 8902     		.2byte	0x289
 3712 07ac 01010000 		.4byte	0x101
 3713 07b0 02       		.byte	0x2
 3714 07b1 23       		.byte	0x23
 3715 07b2 68       		.uleb128 0x68
 3716 07b3 17       		.uleb128 0x17
 3717 07b4 41060000 		.4byte	.LASF103
 3718 07b8 05       		.byte	0x5
 3719 07b9 8A02     		.2byte	0x28a
 3720 07bb 01010000 		.4byte	0x101
 3721 07bf 02       		.byte	0x2
 3722 07c0 23       		.byte	0x23
 3723 07c1 70       		.uleb128 0x70
 3724 07c2 17       		.uleb128 0x17
 3725 07c3 F4030000 		.4byte	.LASF104
 3726 07c7 05       		.byte	0x5
 3727 07c8 8B02     		.2byte	0x28b
 3728 07ca 01010000 		.4byte	0x101
 3729 07ce 02       		.byte	0x2
 3730 07cf 23       		.byte	0x23
 3731 07d0 78       		.uleb128 0x78
 3732 07d1 17       		.uleb128 0x17
 3733 07d2 D7050000 		.4byte	.LASF105
 3734 07d6 05       		.byte	0x5
 3735 07d7 8C02     		.2byte	0x28c
 3736 07d9 72080000 		.4byte	0x872
 3737 07dd 03       		.byte	0x3
 3738 07de 23       		.byte	0x23
 3739 07df 8001     		.uleb128 0x80
 3740 07e1 17       		.uleb128 0x17
 3741 07e2 74020000 		.4byte	.LASF106
 3742 07e6 05       		.byte	0x5
 3743 07e7 8D02     		.2byte	0x28d
 3744 07e9 82080000 		.4byte	0x882
 3745 07ed 03       		.byte	0x3
 3746 07ee 23       		.byte	0x23
 3747 07ef 8801     		.uleb128 0x88
ARM GAS  C:\Users\embedded\AppData\Local\Temp\ccHk1fkP.s 			page 77


 3748 07f1 17       		.uleb128 0x17
 3749 07f2 7A050000 		.4byte	.LASF107
 3750 07f6 05       		.byte	0x5
 3751 07f7 8E02     		.2byte	0x28e
 3752 07f9 5D000000 		.4byte	0x5d
 3753 07fd 03       		.byte	0x3
 3754 07fe 23       		.byte	0x23
 3755 07ff A001     		.uleb128 0xa0
 3756 0801 17       		.uleb128 0x17
 3757 0802 9A010000 		.4byte	.LASF108
 3758 0806 05       		.byte	0x5
 3759 0807 8F02     		.2byte	0x28f
 3760 0809 01010000 		.4byte	0x101
 3761 080d 03       		.byte	0x3
 3762 080e 23       		.byte	0x23
 3763 080f A401     		.uleb128 0xa4
 3764 0811 17       		.uleb128 0x17
 3765 0812 AC000000 		.4byte	.LASF109
 3766 0816 05       		.byte	0x5
 3767 0817 9002     		.2byte	0x290
 3768 0819 01010000 		.4byte	0x101
 3769 081d 03       		.byte	0x3
 3770 081e 23       		.byte	0x23
 3771 081f AC01     		.uleb128 0xac
 3772 0821 17       		.uleb128 0x17
 3773 0822 89010000 		.4byte	.LASF110
 3774 0826 05       		.byte	0x5
 3775 0827 9102     		.2byte	0x291
 3776 0829 01010000 		.4byte	0x101
 3777 082d 03       		.byte	0x3
 3778 082e 23       		.byte	0x23
 3779 082f B401     		.uleb128 0xb4
 3780 0831 17       		.uleb128 0x17
 3781 0832 4E000000 		.4byte	.LASF111
 3782 0836 05       		.byte	0x5
 3783 0837 9202     		.2byte	0x292
 3784 0839 01010000 		.4byte	0x101
 3785 083d 03       		.byte	0x3
 3786 083e 23       		.byte	0x23
 3787 083f BC01     		.uleb128 0xbc
 3788 0841 17       		.uleb128 0x17
 3789 0842 5D000000 		.4byte	.LASF112
 3790 0846 05       		.byte	0x5
 3791 0847 9302     		.2byte	0x293
 3792 0849 01010000 		.4byte	0x101
 3793 084d 03       		.byte	0x3
 3794 084e 23       		.byte	0x23
 3795 084f C401     		.uleb128 0xc4
 3796 0851 17       		.uleb128 0x17
 3797 0852 2B040000 		.4byte	.LASF113
 3798 0856 05       		.byte	0x5
 3799 0857 9402     		.2byte	0x294
 3800 0859 5D000000 		.4byte	0x5d
 3801 085d 03       		.byte	0x3
 3802 085e 23       		.byte	0x23
 3803 085f CC01     		.uleb128 0xcc
 3804 0861 00       		.byte	0
ARM GAS  C:\Users\embedded\AppData\Local\Temp\ccHk1fkP.s 			page 78


 3805 0862 0B       		.uleb128 0xb
 3806 0863 F7050000 		.4byte	0x5f7
 3807 0867 72080000 		.4byte	0x872
 3808 086b 0C       		.uleb128 0xc
 3809 086c 64000000 		.4byte	0x64
 3810 0870 19       		.byte	0x19
 3811 0871 00       		.byte	0
 3812 0872 0B       		.uleb128 0xb
 3813 0873 F7050000 		.4byte	0x5f7
 3814 0877 82080000 		.4byte	0x882
 3815 087b 0C       		.uleb128 0xc
 3816 087c 64000000 		.4byte	0x64
 3817 0880 07       		.byte	0x7
 3818 0881 00       		.byte	0
 3819 0882 0B       		.uleb128 0xb
 3820 0883 F7050000 		.4byte	0x5f7
 3821 0887 92080000 		.4byte	0x892
 3822 088b 0C       		.uleb128 0xc
 3823 088c 64000000 		.4byte	0x64
 3824 0890 17       		.byte	0x17
 3825 0891 00       		.byte	0
 3826 0892 19       		.uleb128 0x19
 3827 0893 F0       		.byte	0xf0
 3828 0894 05       		.byte	0x5
 3829 0895 9902     		.2byte	0x299
 3830 0897 BA080000 		.4byte	0x8ba
 3831 089b 17       		.uleb128 0x17
 3832 089c 08030000 		.4byte	.LASF114
 3833 08a0 05       		.byte	0x5
 3834 08a1 9C02     		.2byte	0x29c
 3835 08a3 BA080000 		.4byte	0x8ba
 3836 08a7 02       		.byte	0x2
 3837 08a8 23       		.byte	0x23
 3838 08a9 00       		.uleb128 0
 3839 08aa 17       		.uleb128 0x17
 3840 08ab CE050000 		.4byte	.LASF115
 3841 08af 05       		.byte	0x5
 3842 08b0 9D02     		.2byte	0x29d
 3843 08b2 CA080000 		.4byte	0x8ca
 3844 08b6 02       		.byte	0x2
 3845 08b7 23       		.byte	0x23
 3846 08b8 78       		.uleb128 0x78
 3847 08b9 00       		.byte	0
 3848 08ba 0B       		.uleb128 0xb
 3849 08bb 09030000 		.4byte	0x309
 3850 08bf CA080000 		.4byte	0x8ca
 3851 08c3 0C       		.uleb128 0xc
 3852 08c4 64000000 		.4byte	0x64
 3853 08c8 1D       		.byte	0x1d
 3854 08c9 00       		.byte	0
 3855 08ca 0B       		.uleb128 0xb
 3856 08cb 64000000 		.4byte	0x64
 3857 08cf DA080000 		.4byte	0x8da
 3858 08d3 0C       		.uleb128 0xc
 3859 08d4 64000000 		.4byte	0x64
 3860 08d8 1D       		.byte	0x1d
 3861 08d9 00       		.byte	0
ARM GAS  C:\Users\embedded\AppData\Local\Temp\ccHk1fkP.s 			page 79


 3862 08da 1A       		.uleb128 0x1a
 3863 08db F0       		.byte	0xf0
 3864 08dc 05       		.byte	0x5
 3865 08dd 7E02     		.2byte	0x27e
 3866 08df FC080000 		.4byte	0x8fc
 3867 08e3 1B       		.uleb128 0x1b
 3868 08e4 CF040000 		.4byte	.LASF64
 3869 08e8 05       		.byte	0x5
 3870 08e9 9502     		.2byte	0x295
 3871 08eb 32070000 		.4byte	0x732
 3872 08ef 1B       		.uleb128 0x1b
 3873 08f0 13060000 		.4byte	.LASF116
 3874 08f4 05       		.byte	0x5
 3875 08f5 9E02     		.2byte	0x29e
 3876 08f7 92080000 		.4byte	0x892
 3877 08fb 00       		.byte	0
 3878 08fc 0B       		.uleb128 0xb
 3879 08fd F7050000 		.4byte	0x5f7
 3880 0901 0C090000 		.4byte	0x90c
 3881 0905 0C       		.uleb128 0xc
 3882 0906 64000000 		.4byte	0x64
 3883 090a 18       		.byte	0x18
 3884 090b 00       		.byte	0
 3885 090c 07       		.uleb128 0x7
 3886 090d A1000000 		.4byte	.LASF118
 3887 0911 01       		.byte	0x1
 3888 0912 06       		.uleb128 0x6
 3889 0913 04       		.byte	0x4
 3890 0914 0C090000 		.4byte	0x90c
 3891 0918 1C       		.uleb128 0x1c
 3892 0919 01       		.byte	0x1
 3893 091a 24090000 		.4byte	0x924
 3894 091e 14       		.uleb128 0x14
 3895 091f 88040000 		.4byte	0x488
 3896 0923 00       		.byte	0
 3897 0924 06       		.uleb128 0x6
 3898 0925 04       		.byte	0x4
 3899 0926 18090000 		.4byte	0x918
 3900 092a 06       		.uleb128 0x6
 3901 092b 04       		.byte	0x4
 3902 092c 81010000 		.4byte	0x181
 3903 0930 1C       		.uleb128 0x1c
 3904 0931 01       		.byte	0x1
 3905 0932 3C090000 		.4byte	0x93c
 3906 0936 14       		.uleb128 0x14
 3907 0937 5D000000 		.4byte	0x5d
 3908 093b 00       		.byte	0
 3909 093c 06       		.uleb128 0x6
 3910 093d 04       		.byte	0x4
 3911 093e 42090000 		.4byte	0x942
 3912 0942 06       		.uleb128 0x6
 3913 0943 04       		.byte	0x4
 3914 0944 30090000 		.4byte	0x930
 3915 0948 0B       		.uleb128 0xb
 3916 0949 94060000 		.4byte	0x694
 3917 094d 58090000 		.4byte	0x958
 3918 0951 0C       		.uleb128 0xc
ARM GAS  C:\Users\embedded\AppData\Local\Temp\ccHk1fkP.s 			page 80


 3919 0952 64000000 		.4byte	0x64
 3920 0956 02       		.byte	0x2
 3921 0957 00       		.byte	0
 3922 0958 1D       		.uleb128 0x1d
 3923 0959 04050000 		.4byte	.LASF119
 3924 095d 05       		.byte	0x5
 3925 095e 2E03     		.2byte	0x32e
 3926 0960 88040000 		.4byte	0x488
 3927 0964 01       		.byte	0x1
 3928 0965 01       		.byte	0x1
 3929 0966 1D       		.uleb128 0x1d
 3930 0967 8C050000 		.4byte	.LASF120
 3931 096b 05       		.byte	0x5
 3932 096c 2F03     		.2byte	0x32f
 3933 096e 8E040000 		.4byte	0x48e
 3934 0972 01       		.byte	0x1
 3935 0973 01       		.byte	0x1
 3936 0974 1E       		.uleb128 0x1e
 3937 0975 74553800 		.ascii	"tU8\000"
 3938 0979 06       		.byte	0x6
 3939 097a 16       		.byte	0x16
 3940 097b 2C000000 		.4byte	0x2c
 3941 097f 05       		.uleb128 0x5
 3942 0980 37010000 		.4byte	.LASF121
 3943 0984 06       		.byte	0x6
 3944 0985 17       		.byte	0x17
 3945 0986 3A000000 		.4byte	0x3a
 3946 098a 05       		.uleb128 0x5
 3947 098b B4050000 		.4byte	.LASF122
 3948 098f 06       		.byte	0x6
 3949 0990 18       		.byte	0x18
 3950 0991 64000000 		.4byte	0x64
 3951 0995 05       		.uleb128 0x5
 3952 0996 87050000 		.4byte	.LASF123
 3953 099a 06       		.byte	0x6
 3954 099b 19       		.byte	0x19
 3955 099c 56000000 		.4byte	0x56
 3956 09a0 1E       		.uleb128 0x1e
 3957 09a1 74533800 		.ascii	"tS8\000"
 3958 09a5 06       		.byte	0x6
 3959 09a6 1A       		.byte	0x1a
 3960 09a7 25000000 		.4byte	0x25
 3961 09ab 1F       		.uleb128 0x1f
 3962 09ac 07       		.byte	0x7
 3963 09ad 01       		.byte	0x1
 3964 09ae 2C000000 		.4byte	0x2c
 3965 09b2 06       		.byte	0x6
 3966 09b3 1E       		.byte	0x1e
 3967 09b4 C5090000 		.4byte	0x9c5
 3968 09b8 20       		.uleb128 0x20
 3969 09b9 66030000 		.4byte	.LASF124
 3970 09bd 00       		.byte	0
 3971 09be 20       		.uleb128 0x20
 3972 09bf 53020000 		.4byte	.LASF125
 3973 09c3 01       		.byte	0x1
 3974 09c4 00       		.byte	0
 3975 09c5 05       		.uleb128 0x5
ARM GAS  C:\Users\embedded\AppData\Local\Temp\ccHk1fkP.s 			page 81


 3976 09c6 6B010000 		.4byte	.LASF126
 3977 09ca 06       		.byte	0x6
 3978 09cb 1F       		.byte	0x1f
 3979 09cc AB090000 		.4byte	0x9ab
 3980 09d0 21       		.uleb128 0x21
 3981 09d1 E9020000 		.4byte	.LASF127
 3982 09d5 07       		.byte	0x7
 3983 09d6 19       		.byte	0x19
 3984 09d7 64000000 		.4byte	0x64
 3985 09db 01       		.byte	0x1
 3986 09dc 05       		.byte	0x5
 3987 09dd 03       		.byte	0x3
 3988 09de 00000000 		.4byte	timeTwo
 3989 09e2 22       		.uleb128 0x22
 3990 09e3 01       		.byte	0x1
 3991 09e4 54060000 		.4byte	.LASF164
 3992 09e8 01       		.byte	0x1
 3993 09e9 C0       		.byte	0xc0
 3994 09ea 01       		.byte	0x1
 3995 09eb 5D000000 		.4byte	0x5d
 3996 09ef 46040000 		.4byte	.LFB10
 3997 09f3 28100000 		.4byte	.LFE10
 3998 09f7 00000000 		.4byte	.LLST7
 3999 09fb 01       		.byte	0x1
 4000 09fc 750C0000 		.4byte	0xc75
 4001 0a00 23       		.uleb128 0x23
 4002 0a01 E1050000 		.4byte	.LASF128
 4003 0a05 01       		.byte	0x1
 4004 0a06 D5       		.byte	0xd5
 4005 0a07 750C0000 		.4byte	0xc75
 4006 0a0b 03       		.byte	0x3
 4007 0a0c 91       		.byte	0x91
 4008 0a0d B87E     		.sleb128 -200
 4009 0a0f 23       		.uleb128 0x23
 4010 0a10 F1050000 		.4byte	.LASF129
 4011 0a14 01       		.byte	0x1
 4012 0a15 D8       		.byte	0xd8
 4013 0a16 750C0000 		.4byte	0xc75
 4014 0a1a 03       		.byte	0x3
 4015 0a1b 91       		.byte	0x91
 4016 0a1c F07D     		.sleb128 -272
 4017 0a1e 23       		.uleb128 0x23
 4018 0a1f 06060000 		.4byte	.LASF130
 4019 0a23 01       		.byte	0x1
 4020 0a24 DD       		.byte	0xdd
 4021 0a25 5D000000 		.4byte	0x5d
 4022 0a29 02       		.byte	0x2
 4023 0a2a 91       		.byte	0x91
 4024 0a2b 64       		.sleb128 -28
 4025 0a2c 24       		.uleb128 0x24
 4026 0a2d 60050000 		.4byte	.LBB4
 4027 0a31 DA060000 		.4byte	.LBE4
 4028 0a35 A60A0000 		.4byte	0xaa6
 4029 0a39 23       		.uleb128 0x23
 4030 0a3a AC050000 		.4byte	.LASF131
 4031 0a3e 01       		.byte	0x1
 4032 0a3f F5       		.byte	0xf5
ARM GAS  C:\Users\embedded\AppData\Local\Temp\ccHk1fkP.s 			page 82


 4033 0a40 850C0000 		.4byte	0xc85
 4034 0a44 03       		.byte	0x3
 4035 0a45 91       		.byte	0x91
 4036 0a46 E47D     		.sleb128 -284
 4037 0a48 23       		.uleb128 0x23
 4038 0a49 61030000 		.4byte	.LASF132
 4039 0a4d 01       		.byte	0x1
 4040 0a4e F7       		.byte	0xf7
 4041 0a4f 950C0000 		.4byte	0xc95
 4042 0a53 03       		.byte	0x3
 4043 0a54 91       		.byte	0x91
 4044 0a55 D87D     		.sleb128 -296
 4045 0a57 23       		.uleb128 0x23
 4046 0a58 F7050000 		.4byte	.LASF133
 4047 0a5c 01       		.byte	0x1
 4048 0a5d F8       		.byte	0xf8
 4049 0a5e 74090000 		.4byte	0x974
 4050 0a62 03       		.byte	0x3
 4051 0a63 91       		.byte	0x91
 4052 0a64 8B7F     		.sleb128 -117
 4053 0a66 23       		.uleb128 0x23
 4054 0a67 85000000 		.4byte	.LASF134
 4055 0a6b 01       		.byte	0x1
 4056 0a6c F9       		.byte	0xf9
 4057 0a6d 5D000000 		.4byte	0x5d
 4058 0a71 02       		.byte	0x2
 4059 0a72 91       		.byte	0x91
 4060 0a73 60       		.sleb128 -32
 4061 0a74 24       		.uleb128 0x24
 4062 0a75 78050000 		.4byte	.LBB5
 4063 0a79 C0050000 		.4byte	.LBE5
 4064 0a7d 8E0A0000 		.4byte	0xa8e
 4065 0a81 25       		.uleb128 0x25
 4066 0a82 6900     		.ascii	"i\000"
 4067 0a84 01       		.byte	0x1
 4068 0a85 FA       		.byte	0xfa
 4069 0a86 5D000000 		.4byte	0x5d
 4070 0a8a 02       		.byte	0x2
 4071 0a8b 91       		.byte	0x91
 4072 0a8c 5C       		.sleb128 -36
 4073 0a8d 00       		.byte	0
 4074 0a8e 26       		.uleb128 0x26
 4075 0a8f 2A060000 		.4byte	.LBB6
 4076 0a93 72060000 		.4byte	.LBE6
 4077 0a97 27       		.uleb128 0x27
 4078 0a98 6900     		.ascii	"i\000"
 4079 0a9a 01       		.byte	0x1
 4080 0a9b 0101     		.2byte	0x101
 4081 0a9d 5D000000 		.4byte	0x5d
 4082 0aa1 02       		.byte	0x2
 4083 0aa2 91       		.byte	0x91
 4084 0aa3 58       		.sleb128 -40
 4085 0aa4 00       		.byte	0
 4086 0aa5 00       		.byte	0
 4087 0aa6 26       		.uleb128 0x26
 4088 0aa7 02070000 		.4byte	.LBB7
 4089 0aab 0C100000 		.4byte	.LBE7
ARM GAS  C:\Users\embedded\AppData\Local\Temp\ccHk1fkP.s 			page 83


 4090 0aaf 28       		.uleb128 0x28
 4091 0ab0 97040000 		.4byte	.LASF135
 4092 0ab4 01       		.byte	0x1
 4093 0ab5 2101     		.2byte	0x121
 4094 0ab7 C5090000 		.4byte	0x9c5
 4095 0abb 02       		.byte	0x2
 4096 0abc 91       		.byte	0x91
 4097 0abd 57       		.sleb128 -41
 4098 0abe 26       		.uleb128 0x26
 4099 0abf 62070000 		.4byte	.LBB8
 4100 0ac3 E60F0000 		.4byte	.LBE8
 4101 0ac7 28       		.uleb128 0x28
 4102 0ac8 9B020000 		.4byte	.LASF136
 4103 0acc 01       		.byte	0x1
 4104 0acd 2301     		.2byte	0x123
 4105 0acf 5D000000 		.4byte	0x5d
 4106 0ad3 02       		.byte	0x2
 4107 0ad4 91       		.byte	0x91
 4108 0ad5 50       		.sleb128 -48
 4109 0ad6 28       		.uleb128 0x28
 4110 0ad7 02040000 		.4byte	.LASF137
 4111 0adb 01       		.byte	0x1
 4112 0adc 2401     		.2byte	0x124
 4113 0ade 950C0000 		.4byte	0xc95
 4114 0ae2 03       		.byte	0x3
 4115 0ae3 91       		.byte	0x91
 4116 0ae4 CC7D     		.sleb128 -308
 4117 0ae6 28       		.uleb128 0x28
 4118 0ae7 43000000 		.4byte	.LASF138
 4119 0aeb 01       		.byte	0x1
 4120 0aec 2501     		.2byte	0x125
 4121 0aee 5D000000 		.4byte	0x5d
 4122 0af2 02       		.byte	0x2
 4123 0af3 91       		.byte	0x91
 4124 0af4 4C       		.sleb128 -52
 4125 0af5 28       		.uleb128 0x28
 4126 0af6 EC030000 		.4byte	.LASF139
 4127 0afa 01       		.byte	0x1
 4128 0afb 2601     		.2byte	0x126
 4129 0afd 5D000000 		.4byte	0x5d
 4130 0b01 02       		.byte	0x2
 4131 0b02 91       		.byte	0x91
 4132 0b03 48       		.sleb128 -56
 4133 0b04 28       		.uleb128 0x28
 4134 0b05 18030000 		.4byte	.LASF140
 4135 0b09 01       		.byte	0x1
 4136 0b0a 2701     		.2byte	0x127
 4137 0b0c 5D000000 		.4byte	0x5d
 4138 0b10 02       		.byte	0x2
 4139 0b11 91       		.byte	0x91
 4140 0b12 44       		.sleb128 -60
 4141 0b13 28       		.uleb128 0x28
 4142 0b14 F7000000 		.4byte	.LASF141
 4143 0b18 01       		.byte	0x1
 4144 0b19 2801     		.2byte	0x128
 4145 0b1b 5D000000 		.4byte	0x5d
 4146 0b1f 02       		.byte	0x2
ARM GAS  C:\Users\embedded\AppData\Local\Temp\ccHk1fkP.s 			page 84


 4147 0b20 91       		.byte	0x91
 4148 0b21 40       		.sleb128 -64
 4149 0b22 28       		.uleb128 0x28
 4150 0b23 BB000000 		.4byte	.LASF142
 4151 0b27 01       		.byte	0x1
 4152 0b28 2901     		.2byte	0x129
 4153 0b2a C5090000 		.4byte	0x9c5
 4154 0b2e 03       		.byte	0x3
 4155 0b2f 91       		.byte	0x91
 4156 0b30 BF7F     		.sleb128 -65
 4157 0b32 28       		.uleb128 0x28
 4158 0b33 47020000 		.4byte	.LASF143
 4159 0b37 01       		.byte	0x1
 4160 0b38 7601     		.2byte	0x176
 4161 0b3a A50C0000 		.4byte	0xca5
 4162 0b3e 03       		.byte	0x3
 4163 0b3f 91       		.byte	0x91
 4164 0b40 C07D     		.sleb128 -320
 4165 0b42 28       		.uleb128 0x28
 4166 0b43 2D050000 		.4byte	.LASF144
 4167 0b47 01       		.byte	0x1
 4168 0b48 7801     		.2byte	0x178
 4169 0b4a 5D000000 		.4byte	0x5d
 4170 0b4e 03       		.byte	0x3
 4171 0b4f 91       		.byte	0x91
 4172 0b50 A87F     		.sleb128 -88
 4173 0b52 28       		.uleb128 0x28
 4174 0b53 2A010000 		.4byte	.LASF145
 4175 0b57 01       		.byte	0x1
 4176 0b58 7901     		.2byte	0x179
 4177 0b5a F7050000 		.4byte	0x5f7
 4178 0b5e 03       		.byte	0x3
 4179 0b5f 91       		.byte	0x91
 4180 0b60 A77F     		.sleb128 -89
 4181 0b62 28       		.uleb128 0x28
 4182 0b63 16020000 		.4byte	.LASF146
 4183 0b67 01       		.byte	0x1
 4184 0b68 7A01     		.2byte	0x17a
 4185 0b6a 5D000000 		.4byte	0x5d
 4186 0b6e 03       		.byte	0x3
 4187 0b6f 91       		.byte	0x91
 4188 0b70 A07F     		.sleb128 -96
 4189 0b72 28       		.uleb128 0x28
 4190 0b73 64050000 		.4byte	.LASF147
 4191 0b77 01       		.byte	0x1
 4192 0b78 BC01     		.2byte	0x1bc
 4193 0b7a 5D000000 		.4byte	0x5d
 4194 0b7e 03       		.byte	0x3
 4195 0b7f 91       		.byte	0x91
 4196 0b80 9C7F     		.sleb128 -100
 4197 0b82 28       		.uleb128 0x28
 4198 0b83 AC050000 		.4byte	.LASF131
 4199 0b87 01       		.byte	0x1
 4200 0b88 CC01     		.2byte	0x1cc
 4201 0b8a 850C0000 		.4byte	0xc85
 4202 0b8e 03       		.byte	0x3
 4203 0b8f 91       		.byte	0x91
ARM GAS  C:\Users\embedded\AppData\Local\Temp\ccHk1fkP.s 			page 85


 4204 0b90 B47D     		.sleb128 -332
 4205 0b92 28       		.uleb128 0x28
 4206 0b93 F7050000 		.4byte	.LASF133
 4207 0b97 01       		.byte	0x1
 4208 0b98 CE01     		.2byte	0x1ce
 4209 0b9a 74090000 		.4byte	0x974
 4210 0b9e 03       		.byte	0x3
 4211 0b9f 91       		.byte	0x91
 4212 0ba0 977F     		.sleb128 -105
 4213 0ba2 28       		.uleb128 0x28
 4214 0ba3 85000000 		.4byte	.LASF134
 4215 0ba7 01       		.byte	0x1
 4216 0ba8 CF01     		.2byte	0x1cf
 4217 0baa 5D000000 		.4byte	0x5d
 4218 0bae 03       		.byte	0x3
 4219 0baf 91       		.byte	0x91
 4220 0bb0 907F     		.sleb128 -112
 4221 0bb2 24       		.uleb128 0x24
 4222 0bb3 94070000 		.4byte	.LBB9
 4223 0bb7 A80A0000 		.4byte	.LBE9
 4224 0bbb 200C0000 		.4byte	0xc20
 4225 0bbf 27       		.uleb128 0x27
 4226 0bc0 6900     		.ascii	"i\000"
 4227 0bc2 01       		.byte	0x1
 4228 0bc3 2A01     		.2byte	0x12a
 4229 0bc5 5D000000 		.4byte	0x5d
 4230 0bc9 03       		.byte	0x3
 4231 0bca 91       		.byte	0x91
 4232 0bcb B87F     		.sleb128 -72
 4233 0bcd 26       		.uleb128 0x26
 4234 0bce A0070000 		.4byte	.LBB10
 4235 0bd2 800A0000 		.4byte	.LBE10
 4236 0bd6 28       		.uleb128 0x28
 4237 0bd7 33050000 		.4byte	.LASF148
 4238 0bdb 01       		.byte	0x1
 4239 0bdc 2C01     		.2byte	0x12c
 4240 0bde 5D000000 		.4byte	0x5d
 4241 0be2 03       		.byte	0x3
 4242 0be3 91       		.byte	0x91
 4243 0be4 847F     		.sleb128 -124
 4244 0be6 28       		.uleb128 0x28
 4245 0be7 12000000 		.4byte	.LASF149
 4246 0beb 01       		.byte	0x1
 4247 0bec 2D01     		.2byte	0x12d
 4248 0bee 5D000000 		.4byte	0x5d
 4249 0bf2 03       		.byte	0x3
 4250 0bf3 91       		.byte	0x91
 4251 0bf4 B47F     		.sleb128 -76
 4252 0bf6 28       		.uleb128 0x28
 4253 0bf7 E6000000 		.4byte	.LASF150
 4254 0bfb 01       		.byte	0x1
 4255 0bfc 2E01     		.2byte	0x12e
 4256 0bfe 5D000000 		.4byte	0x5d
 4257 0c02 03       		.byte	0x3
 4258 0c03 91       		.byte	0x91
 4259 0c04 B07F     		.sleb128 -80
 4260 0c06 26       		.uleb128 0x26
ARM GAS  C:\Users\embedded\AppData\Local\Temp\ccHk1fkP.s 			page 86


 4261 0c07 140A0000 		.4byte	.LBB11
 4262 0c0b 720A0000 		.4byte	.LBE11
 4263 0c0f 27       		.uleb128 0x27
 4264 0c10 6900     		.ascii	"i\000"
 4265 0c12 01       		.byte	0x1
 4266 0c13 5B01     		.2byte	0x15b
 4267 0c15 5D000000 		.4byte	0x5d
 4268 0c19 03       		.byte	0x3
 4269 0c1a 91       		.byte	0x91
 4270 0c1b AC7F     		.sleb128 -84
 4271 0c1d 00       		.byte	0
 4272 0c1e 00       		.byte	0
 4273 0c1f 00       		.byte	0
 4274 0c20 24       		.uleb128 0x24
 4275 0c21 B40D0000 		.4byte	.LBB12
 4276 0c25 F40D0000 		.4byte	.LBE12
 4277 0c29 3C0C0000 		.4byte	0xc3c
 4278 0c2d 27       		.uleb128 0x27
 4279 0c2e 6900     		.ascii	"i\000"
 4280 0c30 01       		.byte	0x1
 4281 0c31 BD01     		.2byte	0x1bd
 4282 0c33 5D000000 		.4byte	0x5d
 4283 0c37 03       		.byte	0x3
 4284 0c38 91       		.byte	0x91
 4285 0c39 987F     		.sleb128 -104
 4286 0c3b 00       		.byte	0
 4287 0c3c 24       		.uleb128 0x24
 4288 0c3d 8A0E0000 		.4byte	.LBB13
 4289 0c41 CA0E0000 		.4byte	.LBE13
 4290 0c45 580C0000 		.4byte	0xc58
 4291 0c49 27       		.uleb128 0x27
 4292 0c4a 6900     		.ascii	"i\000"
 4293 0c4c 01       		.byte	0x1
 4294 0c4d D001     		.2byte	0x1d0
 4295 0c4f 5D000000 		.4byte	0x5d
 4296 0c53 03       		.byte	0x3
 4297 0c54 91       		.byte	0x91
 4298 0c55 8C7F     		.sleb128 -116
 4299 0c57 00       		.byte	0
 4300 0c58 26       		.uleb128 0x26
 4301 0c59 540F0000 		.4byte	.LBB14
 4302 0c5d A80F0000 		.4byte	.LBE14
 4303 0c61 28       		.uleb128 0x28
 4304 0c62 28000000 		.4byte	.LASF151
 4305 0c66 01       		.byte	0x1
 4306 0c67 DC01     		.2byte	0x1dc
 4307 0c69 A0090000 		.4byte	0x9a0
 4308 0c6d 03       		.byte	0x3
 4309 0c6e 91       		.byte	0x91
 4310 0c6f 837F     		.sleb128 -125
 4311 0c71 00       		.byte	0
 4312 0c72 00       		.byte	0
 4313 0c73 00       		.byte	0
 4314 0c74 00       		.byte	0
 4315 0c75 0B       		.uleb128 0xb
 4316 0c76 5D000000 		.4byte	0x5d
 4317 0c7a 850C0000 		.4byte	0xc85
ARM GAS  C:\Users\embedded\AppData\Local\Temp\ccHk1fkP.s 			page 87


 4318 0c7e 0C       		.uleb128 0xc
 4319 0c7f 64000000 		.4byte	0x64
 4320 0c83 11       		.byte	0x11
 4321 0c84 00       		.byte	0
 4322 0c85 0B       		.uleb128 0xb
 4323 0c86 74090000 		.4byte	0x974
 4324 0c8a 950C0000 		.4byte	0xc95
 4325 0c8e 0C       		.uleb128 0xc
 4326 0c8f 64000000 		.4byte	0x64
 4327 0c93 0B       		.byte	0xb
 4328 0c94 00       		.byte	0
 4329 0c95 0B       		.uleb128 0xb
 4330 0c96 F7050000 		.4byte	0x5f7
 4331 0c9a A50C0000 		.4byte	0xca5
 4332 0c9e 0C       		.uleb128 0xc
 4333 0c9f 64000000 		.4byte	0x64
 4334 0ca3 08       		.byte	0x8
 4335 0ca4 00       		.byte	0
 4336 0ca5 0B       		.uleb128 0xb
 4337 0ca6 F7050000 		.4byte	0x5f7
 4338 0caa B50C0000 		.4byte	0xcb5
 4339 0cae 0C       		.uleb128 0xc
 4340 0caf 64000000 		.4byte	0x64
 4341 0cb3 0B       		.byte	0xb
 4342 0cb4 00       		.byte	0
 4343 0cb5 29       		.uleb128 0x29
 4344 0cb6 01       		.byte	0x1
 4345 0cb7 DC040000 		.4byte	.LASF152
 4346 0cbb 01       		.byte	0x1
 4347 0cbc B9       		.byte	0xb9
 4348 0cbd 01       		.byte	0x1
 4349 0cbe F4030000 		.4byte	.LFB9
 4350 0cc2 46040000 		.4byte	.LFE9
 4351 0cc6 3A000000 		.4byte	.LLST6
 4352 0cca 01       		.byte	0x1
 4353 0ccb F40C0000 		.4byte	0xcf4
 4354 0ccf 2A       		.uleb128 0x2a
 4355 0cd0 726F7700 		.ascii	"row\000"
 4356 0cd4 01       		.byte	0x1
 4357 0cd5 B9       		.byte	0xb9
 4358 0cd6 5D000000 		.4byte	0x5d
 4359 0cda 02       		.byte	0x2
 4360 0cdb 91       		.byte	0x91
 4361 0cdc 6C       		.sleb128 -20
 4362 0cdd 26       		.uleb128 0x26
 4363 0cde FC030000 		.4byte	.LBB3
 4364 0ce2 3A040000 		.4byte	.LBE3
 4365 0ce6 25       		.uleb128 0x25
 4366 0ce7 6900     		.ascii	"i\000"
 4367 0ce9 01       		.byte	0x1
 4368 0cea BA       		.byte	0xba
 4369 0ceb 5D000000 		.4byte	0x5d
 4370 0cef 02       		.byte	0x2
 4371 0cf0 91       		.byte	0x91
 4372 0cf1 74       		.sleb128 -12
 4373 0cf2 00       		.byte	0
 4374 0cf3 00       		.byte	0
ARM GAS  C:\Users\embedded\AppData\Local\Temp\ccHk1fkP.s 			page 88


 4375 0cf4 29       		.uleb128 0x29
 4376 0cf5 01       		.byte	0x1
 4377 0cf6 BE020000 		.4byte	.LASF153
 4378 0cfa 01       		.byte	0x1
 4379 0cfb 9D       		.byte	0x9d
 4380 0cfc 01       		.byte	0x1
 4381 0cfd C4020000 		.4byte	.LFB8
 4382 0d01 F4030000 		.4byte	.LFE8
 4383 0d05 72000000 		.4byte	.LLST5
 4384 0d09 01       		.byte	0x1
 4385 0d0a 4D0D0000 		.4byte	0xd4d
 4386 0d0e 2B       		.uleb128 0x2b
 4387 0d0f E6000000 		.4byte	.LASF150
 4388 0d13 01       		.byte	0x1
 4389 0d14 9D       		.byte	0x9d
 4390 0d15 5D000000 		.4byte	0x5d
 4391 0d19 02       		.byte	0x2
 4392 0d1a 91       		.byte	0x91
 4393 0d1b 6C       		.sleb128 -20
 4394 0d1c 2B       		.uleb128 0x2b
 4395 0d1d 2C030000 		.4byte	.LASF154
 4396 0d21 01       		.byte	0x1
 4397 0d22 9D       		.byte	0x9d
 4398 0d23 5D000000 		.4byte	0x5d
 4399 0d27 02       		.byte	0x2
 4400 0d28 91       		.byte	0x91
 4401 0d29 68       		.sleb128 -24
 4402 0d2a 25       		.uleb128 0x25
 4403 0d2b 7300     		.ascii	"s\000"
 4404 0d2d 01       		.byte	0x1
 4405 0d2e 9E       		.byte	0x9e
 4406 0d2f 7F090000 		.4byte	0x97f
 4407 0d33 02       		.byte	0x2
 4408 0d34 91       		.byte	0x91
 4409 0d35 76       		.sleb128 -10
 4410 0d36 26       		.uleb128 0x26
 4411 0d37 D6020000 		.4byte	.LBB2
 4412 0d3b D4030000 		.4byte	.LBE2
 4413 0d3f 25       		.uleb128 0x25
 4414 0d40 6900     		.ascii	"i\000"
 4415 0d42 01       		.byte	0x1
 4416 0d43 9F       		.byte	0x9f
 4417 0d44 5D000000 		.4byte	0x5d
 4418 0d48 02       		.byte	0x2
 4419 0d49 91       		.byte	0x91
 4420 0d4a 70       		.sleb128 -16
 4421 0d4b 00       		.byte	0
 4422 0d4c 00       		.byte	0
 4423 0d4d 2C       		.uleb128 0x2c
 4424 0d4e 59060000 		.4byte	.LASF165
 4425 0d52 01       		.byte	0x1
 4426 0d53 80       		.byte	0x80
 4427 0d54 01       		.byte	0x1
 4428 0d55 94010000 		.4byte	.LFB7
 4429 0d59 C4020000 		.4byte	.LFE7
 4430 0d5d AA000000 		.4byte	.LLST4
 4431 0d61 01       		.byte	0x1
ARM GAS  C:\Users\embedded\AppData\Local\Temp\ccHk1fkP.s 			page 89


 4432 0d62 830D0000 		.4byte	0xd83
 4433 0d66 2B       		.uleb128 0x2b
 4434 0d67 41050000 		.4byte	.LASF155
 4435 0d6b 01       		.byte	0x1
 4436 0d6c 80       		.byte	0x80
 4437 0d6d 8A090000 		.4byte	0x98a
 4438 0d71 02       		.byte	0x2
 4439 0d72 91       		.byte	0x91
 4440 0d73 64       		.sleb128 -28
 4441 0d74 2B       		.uleb128 0x2b
 4442 0d75 FD020000 		.4byte	.LASF156
 4443 0d79 01       		.byte	0x1
 4444 0d7a 80       		.byte	0x80
 4445 0d7b 74090000 		.4byte	0x974
 4446 0d7f 02       		.byte	0x2
 4447 0d80 91       		.byte	0x91
 4448 0d81 63       		.sleb128 -29
 4449 0d82 00       		.byte	0
 4450 0d83 2D       		.uleb128 0x2d
 4451 0d84 01       		.byte	0x1
 4452 0d85 FE050000 		.4byte	.LASF157
 4453 0d89 01       		.byte	0x1
 4454 0d8a 6A       		.byte	0x6a
 4455 0d8b 01       		.byte	0x1
 4456 0d8c 34010000 		.4byte	.LFB6
 4457 0d90 94010000 		.4byte	.LFE6
 4458 0d94 E4000000 		.4byte	.LLST3
 4459 0d98 01       		.byte	0x1
 4460 0d99 AC0D0000 		.4byte	0xdac
 4461 0d9d 2B       		.uleb128 0x2b
 4462 0d9e BB010000 		.4byte	.LASF158
 4463 0da2 01       		.byte	0x1
 4464 0da3 6A       		.byte	0x6a
 4465 0da4 7F090000 		.4byte	0x97f
 4466 0da8 02       		.byte	0x2
 4467 0da9 91       		.byte	0x91
 4468 0daa 76       		.sleb128 -10
 4469 0dab 00       		.byte	0
 4470 0dac 2D       		.uleb128 0x2d
 4471 0dad 01       		.byte	0x1
 4472 0dae 71010000 		.4byte	.LASF159
 4473 0db2 01       		.byte	0x1
 4474 0db3 56       		.byte	0x56
 4475 0db4 01       		.byte	0x1
 4476 0db5 CC000000 		.4byte	.LFB5
 4477 0db9 34010000 		.4byte	.LFE5
 4478 0dbd 1C010000 		.4byte	.LLST2
 4479 0dc1 01       		.byte	0x1
 4480 0dc2 D50D0000 		.4byte	0xdd5
 4481 0dc6 2B       		.uleb128 0x2b
 4482 0dc7 BB010000 		.4byte	.LASF158
 4483 0dcb 01       		.byte	0x1
 4484 0dcc 56       		.byte	0x56
 4485 0dcd 7F090000 		.4byte	0x97f
 4486 0dd1 02       		.byte	0x2
 4487 0dd2 91       		.byte	0x91
 4488 0dd3 76       		.sleb128 -10
ARM GAS  C:\Users\embedded\AppData\Local\Temp\ccHk1fkP.s 			page 90


 4489 0dd4 00       		.byte	0
 4490 0dd5 2D       		.uleb128 0x2d
 4491 0dd6 01       		.byte	0x1
 4492 0dd7 E1020000 		.4byte	.LASF160
 4493 0ddb 01       		.byte	0x1
 4494 0ddc 42       		.byte	0x42
 4495 0ddd 01       		.byte	0x1
 4496 0dde 60000000 		.4byte	.LFB4
 4497 0de2 CC000000 		.4byte	.LFE4
 4498 0de6 54010000 		.4byte	.LLST1
 4499 0dea 01       		.byte	0x1
 4500 0deb FE0D0000 		.4byte	0xdfe
 4501 0def 2B       		.uleb128 0x2b
 4502 0df0 BB010000 		.4byte	.LASF158
 4503 0df4 01       		.byte	0x1
 4504 0df5 42       		.byte	0x42
 4505 0df6 7F090000 		.4byte	0x97f
 4506 0dfa 02       		.byte	0x2
 4507 0dfb 91       		.byte	0x91
 4508 0dfc 76       		.sleb128 -10
 4509 0dfd 00       		.byte	0
 4510 0dfe 2E       		.uleb128 0x2e
 4511 0dff 01       		.byte	0x1
 4512 0e00 45010000 		.4byte	.LASF166
 4513 0e04 01       		.byte	0x1
 4514 0e05 2B       		.byte	0x2b
 4515 0e06 01       		.byte	0x1
 4516 0e07 00000000 		.4byte	.LFB3
 4517 0e0b 60000000 		.4byte	.LFE3
 4518 0e0f 8C010000 		.4byte	.LLST0
 4519 0e13 01       		.byte	0x1
 4520 0e14 2B       		.uleb128 0x2b
 4521 0e15 EC030000 		.4byte	.LASF139
 4522 0e19 01       		.byte	0x1
 4523 0e1a 2B       		.byte	0x2b
 4524 0e1b 8A090000 		.4byte	0x98a
 4525 0e1f 02       		.byte	0x2
 4526 0e20 91       		.byte	0x91
 4527 0e21 74       		.sleb128 -12
 4528 0e22 00       		.byte	0
 4529 0e23 00       		.byte	0
 4530              		.section	.debug_abbrev,"",%progbits
 4531              	.Ldebug_abbrev0:
 4532 0000 01       		.uleb128 0x1
 4533 0001 11       		.uleb128 0x11
 4534 0002 01       		.byte	0x1
 4535 0003 25       		.uleb128 0x25
 4536 0004 0E       		.uleb128 0xe
 4537 0005 13       		.uleb128 0x13
 4538 0006 0B       		.uleb128 0xb
 4539 0007 03       		.uleb128 0x3
 4540 0008 0E       		.uleb128 0xe
 4541 0009 1B       		.uleb128 0x1b
 4542 000a 0E       		.uleb128 0xe
 4543 000b 11       		.uleb128 0x11
 4544 000c 01       		.uleb128 0x1
 4545 000d 12       		.uleb128 0x12
ARM GAS  C:\Users\embedded\AppData\Local\Temp\ccHk1fkP.s 			page 91


 4546 000e 01       		.uleb128 0x1
 4547 000f 10       		.uleb128 0x10
 4548 0010 06       		.uleb128 0x6
 4549 0011 00       		.byte	0
 4550 0012 00       		.byte	0
 4551 0013 02       		.uleb128 0x2
 4552 0014 24       		.uleb128 0x24
 4553 0015 00       		.byte	0
 4554 0016 0B       		.uleb128 0xb
 4555 0017 0B       		.uleb128 0xb
 4556 0018 3E       		.uleb128 0x3e
 4557 0019 0B       		.uleb128 0xb
 4558 001a 03       		.uleb128 0x3
 4559 001b 0E       		.uleb128 0xe
 4560 001c 00       		.byte	0
 4561 001d 00       		.byte	0
 4562 001e 03       		.uleb128 0x3
 4563 001f 24       		.uleb128 0x24
 4564 0020 00       		.byte	0
 4565 0021 0B       		.uleb128 0xb
 4566 0022 0B       		.uleb128 0xb
 4567 0023 3E       		.uleb128 0x3e
 4568 0024 0B       		.uleb128 0xb
 4569 0025 03       		.uleb128 0x3
 4570 0026 08       		.uleb128 0x8
 4571 0027 00       		.byte	0
 4572 0028 00       		.byte	0
 4573 0029 04       		.uleb128 0x4
 4574 002a 0F       		.uleb128 0xf
 4575 002b 00       		.byte	0
 4576 002c 0B       		.uleb128 0xb
 4577 002d 0B       		.uleb128 0xb
 4578 002e 00       		.byte	0
 4579 002f 00       		.byte	0
 4580 0030 05       		.uleb128 0x5
 4581 0031 16       		.uleb128 0x16
 4582 0032 00       		.byte	0
 4583 0033 03       		.uleb128 0x3
 4584 0034 0E       		.uleb128 0xe
 4585 0035 3A       		.uleb128 0x3a
 4586 0036 0B       		.uleb128 0xb
 4587 0037 3B       		.uleb128 0x3b
 4588 0038 0B       		.uleb128 0xb
 4589 0039 49       		.uleb128 0x49
 4590 003a 13       		.uleb128 0x13
 4591 003b 00       		.byte	0
 4592 003c 00       		.byte	0
 4593 003d 06       		.uleb128 0x6
 4594 003e 0F       		.uleb128 0xf
 4595 003f 00       		.byte	0
 4596 0040 0B       		.uleb128 0xb
 4597 0041 0B       		.uleb128 0xb
 4598 0042 49       		.uleb128 0x49
 4599 0043 13       		.uleb128 0x13
 4600 0044 00       		.byte	0
 4601 0045 00       		.byte	0
 4602 0046 07       		.uleb128 0x7
ARM GAS  C:\Users\embedded\AppData\Local\Temp\ccHk1fkP.s 			page 92


 4603 0047 13       		.uleb128 0x13
 4604 0048 00       		.byte	0
 4605 0049 03       		.uleb128 0x3
 4606 004a 0E       		.uleb128 0xe
 4607 004b 3C       		.uleb128 0x3c
 4608 004c 0C       		.uleb128 0xc
 4609 004d 00       		.byte	0
 4610 004e 00       		.byte	0
 4611 004f 08       		.uleb128 0x8
 4612 0050 16       		.uleb128 0x16
 4613 0051 00       		.byte	0
 4614 0052 03       		.uleb128 0x3
 4615 0053 0E       		.uleb128 0xe
 4616 0054 3A       		.uleb128 0x3a
 4617 0055 0B       		.uleb128 0xb
 4618 0056 3B       		.uleb128 0x3b
 4619 0057 05       		.uleb128 0x5
 4620 0058 49       		.uleb128 0x49
 4621 0059 13       		.uleb128 0x13
 4622 005a 00       		.byte	0
 4623 005b 00       		.byte	0
 4624 005c 09       		.uleb128 0x9
 4625 005d 17       		.uleb128 0x17
 4626 005e 01       		.byte	0x1
 4627 005f 0B       		.uleb128 0xb
 4628 0060 0B       		.uleb128 0xb
 4629 0061 3A       		.uleb128 0x3a
 4630 0062 0B       		.uleb128 0xb
 4631 0063 3B       		.uleb128 0x3b
 4632 0064 0B       		.uleb128 0xb
 4633 0065 01       		.uleb128 0x1
 4634 0066 13       		.uleb128 0x13
 4635 0067 00       		.byte	0
 4636 0068 00       		.byte	0
 4637 0069 0A       		.uleb128 0xa
 4638 006a 0D       		.uleb128 0xd
 4639 006b 00       		.byte	0
 4640 006c 03       		.uleb128 0x3
 4641 006d 0E       		.uleb128 0xe
 4642 006e 3A       		.uleb128 0x3a
 4643 006f 0B       		.uleb128 0xb
 4644 0070 3B       		.uleb128 0x3b
 4645 0071 0B       		.uleb128 0xb
 4646 0072 49       		.uleb128 0x49
 4647 0073 13       		.uleb128 0x13
 4648 0074 00       		.byte	0
 4649 0075 00       		.byte	0
 4650 0076 0B       		.uleb128 0xb
 4651 0077 01       		.uleb128 0x1
 4652 0078 01       		.byte	0x1
 4653 0079 49       		.uleb128 0x49
 4654 007a 13       		.uleb128 0x13
 4655 007b 01       		.uleb128 0x1
 4656 007c 13       		.uleb128 0x13
 4657 007d 00       		.byte	0
 4658 007e 00       		.byte	0
 4659 007f 0C       		.uleb128 0xc
ARM GAS  C:\Users\embedded\AppData\Local\Temp\ccHk1fkP.s 			page 93


 4660 0080 21       		.uleb128 0x21
 4661 0081 00       		.byte	0
 4662 0082 49       		.uleb128 0x49
 4663 0083 13       		.uleb128 0x13
 4664 0084 2F       		.uleb128 0x2f
 4665 0085 0B       		.uleb128 0xb
 4666 0086 00       		.byte	0
 4667 0087 00       		.byte	0
 4668 0088 0D       		.uleb128 0xd
 4669 0089 13       		.uleb128 0x13
 4670 008a 01       		.byte	0x1
 4671 008b 0B       		.uleb128 0xb
 4672 008c 0B       		.uleb128 0xb
 4673 008d 3A       		.uleb128 0x3a
 4674 008e 0B       		.uleb128 0xb
 4675 008f 3B       		.uleb128 0x3b
 4676 0090 0B       		.uleb128 0xb
 4677 0091 01       		.uleb128 0x1
 4678 0092 13       		.uleb128 0x13
 4679 0093 00       		.byte	0
 4680 0094 00       		.byte	0
 4681 0095 0E       		.uleb128 0xe
 4682 0096 0D       		.uleb128 0xd
 4683 0097 00       		.byte	0
 4684 0098 03       		.uleb128 0x3
 4685 0099 0E       		.uleb128 0xe
 4686 009a 3A       		.uleb128 0x3a
 4687 009b 0B       		.uleb128 0xb
 4688 009c 3B       		.uleb128 0x3b
 4689 009d 0B       		.uleb128 0xb
 4690 009e 49       		.uleb128 0x49
 4691 009f 13       		.uleb128 0x13
 4692 00a0 38       		.uleb128 0x38
 4693 00a1 0A       		.uleb128 0xa
 4694 00a2 00       		.byte	0
 4695 00a3 00       		.byte	0
 4696 00a4 0F       		.uleb128 0xf
 4697 00a5 13       		.uleb128 0x13
 4698 00a6 01       		.byte	0x1
 4699 00a7 03       		.uleb128 0x3
 4700 00a8 0E       		.uleb128 0xe
 4701 00a9 0B       		.uleb128 0xb
 4702 00aa 0B       		.uleb128 0xb
 4703 00ab 3A       		.uleb128 0x3a
 4704 00ac 0B       		.uleb128 0xb
 4705 00ad 3B       		.uleb128 0x3b
 4706 00ae 0B       		.uleb128 0xb
 4707 00af 01       		.uleb128 0x1
 4708 00b0 13       		.uleb128 0x13
 4709 00b1 00       		.byte	0
 4710 00b2 00       		.byte	0
 4711 00b3 10       		.uleb128 0x10
 4712 00b4 0D       		.uleb128 0xd
 4713 00b5 00       		.byte	0
 4714 00b6 03       		.uleb128 0x3
 4715 00b7 08       		.uleb128 0x8
 4716 00b8 3A       		.uleb128 0x3a
ARM GAS  C:\Users\embedded\AppData\Local\Temp\ccHk1fkP.s 			page 94


 4717 00b9 0B       		.uleb128 0xb
 4718 00ba 3B       		.uleb128 0x3b
 4719 00bb 0B       		.uleb128 0xb
 4720 00bc 49       		.uleb128 0x49
 4721 00bd 13       		.uleb128 0x13
 4722 00be 38       		.uleb128 0x38
 4723 00bf 0A       		.uleb128 0xa
 4724 00c0 00       		.byte	0
 4725 00c1 00       		.byte	0
 4726 00c2 11       		.uleb128 0x11
 4727 00c3 13       		.uleb128 0x13
 4728 00c4 01       		.byte	0x1
 4729 00c5 03       		.uleb128 0x3
 4730 00c6 0E       		.uleb128 0xe
 4731 00c7 0B       		.uleb128 0xb
 4732 00c8 05       		.uleb128 0x5
 4733 00c9 3A       		.uleb128 0x3a
 4734 00ca 0B       		.uleb128 0xb
 4735 00cb 3B       		.uleb128 0x3b
 4736 00cc 0B       		.uleb128 0xb
 4737 00cd 01       		.uleb128 0x1
 4738 00ce 13       		.uleb128 0x13
 4739 00cf 00       		.byte	0
 4740 00d0 00       		.byte	0
 4741 00d1 12       		.uleb128 0x12
 4742 00d2 15       		.uleb128 0x15
 4743 00d3 00       		.byte	0
 4744 00d4 27       		.uleb128 0x27
 4745 00d5 0C       		.uleb128 0xc
 4746 00d6 00       		.byte	0
 4747 00d7 00       		.byte	0
 4748 00d8 13       		.uleb128 0x13
 4749 00d9 15       		.uleb128 0x15
 4750 00da 01       		.byte	0x1
 4751 00db 27       		.uleb128 0x27
 4752 00dc 0C       		.uleb128 0xc
 4753 00dd 49       		.uleb128 0x49
 4754 00de 13       		.uleb128 0x13
 4755 00df 01       		.uleb128 0x1
 4756 00e0 13       		.uleb128 0x13
 4757 00e1 00       		.byte	0
 4758 00e2 00       		.byte	0
 4759 00e3 14       		.uleb128 0x14
 4760 00e4 05       		.uleb128 0x5
 4761 00e5 00       		.byte	0
 4762 00e6 49       		.uleb128 0x49
 4763 00e7 13       		.uleb128 0x13
 4764 00e8 00       		.byte	0
 4765 00e9 00       		.byte	0
 4766 00ea 15       		.uleb128 0x15
 4767 00eb 26       		.uleb128 0x26
 4768 00ec 00       		.byte	0
 4769 00ed 49       		.uleb128 0x49
 4770 00ee 13       		.uleb128 0x13
 4771 00ef 00       		.byte	0
 4772 00f0 00       		.byte	0
 4773 00f1 16       		.uleb128 0x16
ARM GAS  C:\Users\embedded\AppData\Local\Temp\ccHk1fkP.s 			page 95


 4774 00f2 13       		.uleb128 0x13
 4775 00f3 01       		.byte	0x1
 4776 00f4 03       		.uleb128 0x3
 4777 00f5 0E       		.uleb128 0xe
 4778 00f6 0B       		.uleb128 0xb
 4779 00f7 05       		.uleb128 0x5
 4780 00f8 3A       		.uleb128 0x3a
 4781 00f9 0B       		.uleb128 0xb
 4782 00fa 3B       		.uleb128 0x3b
 4783 00fb 05       		.uleb128 0x5
 4784 00fc 01       		.uleb128 0x1
 4785 00fd 13       		.uleb128 0x13
 4786 00fe 00       		.byte	0
 4787 00ff 00       		.byte	0
 4788 0100 17       		.uleb128 0x17
 4789 0101 0D       		.uleb128 0xd
 4790 0102 00       		.byte	0
 4791 0103 03       		.uleb128 0x3
 4792 0104 0E       		.uleb128 0xe
 4793 0105 3A       		.uleb128 0x3a
 4794 0106 0B       		.uleb128 0xb
 4795 0107 3B       		.uleb128 0x3b
 4796 0108 05       		.uleb128 0x5
 4797 0109 49       		.uleb128 0x49
 4798 010a 13       		.uleb128 0x13
 4799 010b 38       		.uleb128 0x38
 4800 010c 0A       		.uleb128 0xa
 4801 010d 00       		.byte	0
 4802 010e 00       		.byte	0
 4803 010f 18       		.uleb128 0x18
 4804 0110 13       		.uleb128 0x13
 4805 0111 01       		.byte	0x1
 4806 0112 03       		.uleb128 0x3
 4807 0113 0E       		.uleb128 0xe
 4808 0114 0B       		.uleb128 0xb
 4809 0115 0B       		.uleb128 0xb
 4810 0116 3A       		.uleb128 0x3a
 4811 0117 0B       		.uleb128 0xb
 4812 0118 3B       		.uleb128 0x3b
 4813 0119 05       		.uleb128 0x5
 4814 011a 01       		.uleb128 0x1
 4815 011b 13       		.uleb128 0x13
 4816 011c 00       		.byte	0
 4817 011d 00       		.byte	0
 4818 011e 19       		.uleb128 0x19
 4819 011f 13       		.uleb128 0x13
 4820 0120 01       		.byte	0x1
 4821 0121 0B       		.uleb128 0xb
 4822 0122 0B       		.uleb128 0xb
 4823 0123 3A       		.uleb128 0x3a
 4824 0124 0B       		.uleb128 0xb
 4825 0125 3B       		.uleb128 0x3b
 4826 0126 05       		.uleb128 0x5
 4827 0127 01       		.uleb128 0x1
 4828 0128 13       		.uleb128 0x13
 4829 0129 00       		.byte	0
 4830 012a 00       		.byte	0
ARM GAS  C:\Users\embedded\AppData\Local\Temp\ccHk1fkP.s 			page 96


 4831 012b 1A       		.uleb128 0x1a
 4832 012c 17       		.uleb128 0x17
 4833 012d 01       		.byte	0x1
 4834 012e 0B       		.uleb128 0xb
 4835 012f 0B       		.uleb128 0xb
 4836 0130 3A       		.uleb128 0x3a
 4837 0131 0B       		.uleb128 0xb
 4838 0132 3B       		.uleb128 0x3b
 4839 0133 05       		.uleb128 0x5
 4840 0134 01       		.uleb128 0x1
 4841 0135 13       		.uleb128 0x13
 4842 0136 00       		.byte	0
 4843 0137 00       		.byte	0
 4844 0138 1B       		.uleb128 0x1b
 4845 0139 0D       		.uleb128 0xd
 4846 013a 00       		.byte	0
 4847 013b 03       		.uleb128 0x3
 4848 013c 0E       		.uleb128 0xe
 4849 013d 3A       		.uleb128 0x3a
 4850 013e 0B       		.uleb128 0xb
 4851 013f 3B       		.uleb128 0x3b
 4852 0140 05       		.uleb128 0x5
 4853 0141 49       		.uleb128 0x49
 4854 0142 13       		.uleb128 0x13
 4855 0143 00       		.byte	0
 4856 0144 00       		.byte	0
 4857 0145 1C       		.uleb128 0x1c
 4858 0146 15       		.uleb128 0x15
 4859 0147 01       		.byte	0x1
 4860 0148 27       		.uleb128 0x27
 4861 0149 0C       		.uleb128 0xc
 4862 014a 01       		.uleb128 0x1
 4863 014b 13       		.uleb128 0x13
 4864 014c 00       		.byte	0
 4865 014d 00       		.byte	0
 4866 014e 1D       		.uleb128 0x1d
 4867 014f 34       		.uleb128 0x34
 4868 0150 00       		.byte	0
 4869 0151 03       		.uleb128 0x3
 4870 0152 0E       		.uleb128 0xe
 4871 0153 3A       		.uleb128 0x3a
 4872 0154 0B       		.uleb128 0xb
 4873 0155 3B       		.uleb128 0x3b
 4874 0156 05       		.uleb128 0x5
 4875 0157 49       		.uleb128 0x49
 4876 0158 13       		.uleb128 0x13
 4877 0159 3F       		.uleb128 0x3f
 4878 015a 0C       		.uleb128 0xc
 4879 015b 3C       		.uleb128 0x3c
 4880 015c 0C       		.uleb128 0xc
 4881 015d 00       		.byte	0
 4882 015e 00       		.byte	0
 4883 015f 1E       		.uleb128 0x1e
 4884 0160 16       		.uleb128 0x16
 4885 0161 00       		.byte	0
 4886 0162 03       		.uleb128 0x3
 4887 0163 08       		.uleb128 0x8
ARM GAS  C:\Users\embedded\AppData\Local\Temp\ccHk1fkP.s 			page 97


 4888 0164 3A       		.uleb128 0x3a
 4889 0165 0B       		.uleb128 0xb
 4890 0166 3B       		.uleb128 0x3b
 4891 0167 0B       		.uleb128 0xb
 4892 0168 49       		.uleb128 0x49
 4893 0169 13       		.uleb128 0x13
 4894 016a 00       		.byte	0
 4895 016b 00       		.byte	0
 4896 016c 1F       		.uleb128 0x1f
 4897 016d 04       		.uleb128 0x4
 4898 016e 01       		.byte	0x1
 4899 016f 3E       		.uleb128 0x3e
 4900 0170 0B       		.uleb128 0xb
 4901 0171 0B       		.uleb128 0xb
 4902 0172 0B       		.uleb128 0xb
 4903 0173 49       		.uleb128 0x49
 4904 0174 13       		.uleb128 0x13
 4905 0175 3A       		.uleb128 0x3a
 4906 0176 0B       		.uleb128 0xb
 4907 0177 3B       		.uleb128 0x3b
 4908 0178 0B       		.uleb128 0xb
 4909 0179 01       		.uleb128 0x1
 4910 017a 13       		.uleb128 0x13
 4911 017b 00       		.byte	0
 4912 017c 00       		.byte	0
 4913 017d 20       		.uleb128 0x20
 4914 017e 28       		.uleb128 0x28
 4915 017f 00       		.byte	0
 4916 0180 03       		.uleb128 0x3
 4917 0181 0E       		.uleb128 0xe
 4918 0182 1C       		.uleb128 0x1c
 4919 0183 0B       		.uleb128 0xb
 4920 0184 00       		.byte	0
 4921 0185 00       		.byte	0
 4922 0186 21       		.uleb128 0x21
 4923 0187 34       		.uleb128 0x34
 4924 0188 00       		.byte	0
 4925 0189 03       		.uleb128 0x3
 4926 018a 0E       		.uleb128 0xe
 4927 018b 3A       		.uleb128 0x3a
 4928 018c 0B       		.uleb128 0xb
 4929 018d 3B       		.uleb128 0x3b
 4930 018e 0B       		.uleb128 0xb
 4931 018f 49       		.uleb128 0x49
 4932 0190 13       		.uleb128 0x13
 4933 0191 3F       		.uleb128 0x3f
 4934 0192 0C       		.uleb128 0xc
 4935 0193 02       		.uleb128 0x2
 4936 0194 0A       		.uleb128 0xa
 4937 0195 00       		.byte	0
 4938 0196 00       		.byte	0
 4939 0197 22       		.uleb128 0x22
 4940 0198 2E       		.uleb128 0x2e
 4941 0199 01       		.byte	0x1
 4942 019a 3F       		.uleb128 0x3f
 4943 019b 0C       		.uleb128 0xc
 4944 019c 03       		.uleb128 0x3
ARM GAS  C:\Users\embedded\AppData\Local\Temp\ccHk1fkP.s 			page 98


 4945 019d 0E       		.uleb128 0xe
 4946 019e 3A       		.uleb128 0x3a
 4947 019f 0B       		.uleb128 0xb
 4948 01a0 3B       		.uleb128 0x3b
 4949 01a1 0B       		.uleb128 0xb
 4950 01a2 27       		.uleb128 0x27
 4951 01a3 0C       		.uleb128 0xc
 4952 01a4 49       		.uleb128 0x49
 4953 01a5 13       		.uleb128 0x13
 4954 01a6 11       		.uleb128 0x11
 4955 01a7 01       		.uleb128 0x1
 4956 01a8 12       		.uleb128 0x12
 4957 01a9 01       		.uleb128 0x1
 4958 01aa 40       		.uleb128 0x40
 4959 01ab 06       		.uleb128 0x6
 4960 01ac 9642     		.uleb128 0x2116
 4961 01ae 0C       		.uleb128 0xc
 4962 01af 01       		.uleb128 0x1
 4963 01b0 13       		.uleb128 0x13
 4964 01b1 00       		.byte	0
 4965 01b2 00       		.byte	0
 4966 01b3 23       		.uleb128 0x23
 4967 01b4 34       		.uleb128 0x34
 4968 01b5 00       		.byte	0
 4969 01b6 03       		.uleb128 0x3
 4970 01b7 0E       		.uleb128 0xe
 4971 01b8 3A       		.uleb128 0x3a
 4972 01b9 0B       		.uleb128 0xb
 4973 01ba 3B       		.uleb128 0x3b
 4974 01bb 0B       		.uleb128 0xb
 4975 01bc 49       		.uleb128 0x49
 4976 01bd 13       		.uleb128 0x13
 4977 01be 02       		.uleb128 0x2
 4978 01bf 0A       		.uleb128 0xa
 4979 01c0 00       		.byte	0
 4980 01c1 00       		.byte	0
 4981 01c2 24       		.uleb128 0x24
 4982 01c3 0B       		.uleb128 0xb
 4983 01c4 01       		.byte	0x1
 4984 01c5 11       		.uleb128 0x11
 4985 01c6 01       		.uleb128 0x1
 4986 01c7 12       		.uleb128 0x12
 4987 01c8 01       		.uleb128 0x1
 4988 01c9 01       		.uleb128 0x1
 4989 01ca 13       		.uleb128 0x13
 4990 01cb 00       		.byte	0
 4991 01cc 00       		.byte	0
 4992 01cd 25       		.uleb128 0x25
 4993 01ce 34       		.uleb128 0x34
 4994 01cf 00       		.byte	0
 4995 01d0 03       		.uleb128 0x3
 4996 01d1 08       		.uleb128 0x8
 4997 01d2 3A       		.uleb128 0x3a
 4998 01d3 0B       		.uleb128 0xb
 4999 01d4 3B       		.uleb128 0x3b
 5000 01d5 0B       		.uleb128 0xb
 5001 01d6 49       		.uleb128 0x49
ARM GAS  C:\Users\embedded\AppData\Local\Temp\ccHk1fkP.s 			page 99


 5002 01d7 13       		.uleb128 0x13
 5003 01d8 02       		.uleb128 0x2
 5004 01d9 0A       		.uleb128 0xa
 5005 01da 00       		.byte	0
 5006 01db 00       		.byte	0
 5007 01dc 26       		.uleb128 0x26
 5008 01dd 0B       		.uleb128 0xb
 5009 01de 01       		.byte	0x1
 5010 01df 11       		.uleb128 0x11
 5011 01e0 01       		.uleb128 0x1
 5012 01e1 12       		.uleb128 0x12
 5013 01e2 01       		.uleb128 0x1
 5014 01e3 00       		.byte	0
 5015 01e4 00       		.byte	0
 5016 01e5 27       		.uleb128 0x27
 5017 01e6 34       		.uleb128 0x34
 5018 01e7 00       		.byte	0
 5019 01e8 03       		.uleb128 0x3
 5020 01e9 08       		.uleb128 0x8
 5021 01ea 3A       		.uleb128 0x3a
 5022 01eb 0B       		.uleb128 0xb
 5023 01ec 3B       		.uleb128 0x3b
 5024 01ed 05       		.uleb128 0x5
 5025 01ee 49       		.uleb128 0x49
 5026 01ef 13       		.uleb128 0x13
 5027 01f0 02       		.uleb128 0x2
 5028 01f1 0A       		.uleb128 0xa
 5029 01f2 00       		.byte	0
 5030 01f3 00       		.byte	0
 5031 01f4 28       		.uleb128 0x28
 5032 01f5 34       		.uleb128 0x34
 5033 01f6 00       		.byte	0
 5034 01f7 03       		.uleb128 0x3
 5035 01f8 0E       		.uleb128 0xe
 5036 01f9 3A       		.uleb128 0x3a
 5037 01fa 0B       		.uleb128 0xb
 5038 01fb 3B       		.uleb128 0x3b
 5039 01fc 05       		.uleb128 0x5
 5040 01fd 49       		.uleb128 0x49
 5041 01fe 13       		.uleb128 0x13
 5042 01ff 02       		.uleb128 0x2
 5043 0200 0A       		.uleb128 0xa
 5044 0201 00       		.byte	0
 5045 0202 00       		.byte	0
 5046 0203 29       		.uleb128 0x29
 5047 0204 2E       		.uleb128 0x2e
 5048 0205 01       		.byte	0x1
 5049 0206 3F       		.uleb128 0x3f
 5050 0207 0C       		.uleb128 0xc
 5051 0208 03       		.uleb128 0x3
 5052 0209 0E       		.uleb128 0xe
 5053 020a 3A       		.uleb128 0x3a
 5054 020b 0B       		.uleb128 0xb
 5055 020c 3B       		.uleb128 0x3b
 5056 020d 0B       		.uleb128 0xb
 5057 020e 27       		.uleb128 0x27
 5058 020f 0C       		.uleb128 0xc
ARM GAS  C:\Users\embedded\AppData\Local\Temp\ccHk1fkP.s 			page 100


 5059 0210 11       		.uleb128 0x11
 5060 0211 01       		.uleb128 0x1
 5061 0212 12       		.uleb128 0x12
 5062 0213 01       		.uleb128 0x1
 5063 0214 40       		.uleb128 0x40
 5064 0215 06       		.uleb128 0x6
 5065 0216 9642     		.uleb128 0x2116
 5066 0218 0C       		.uleb128 0xc
 5067 0219 01       		.uleb128 0x1
 5068 021a 13       		.uleb128 0x13
 5069 021b 00       		.byte	0
 5070 021c 00       		.byte	0
 5071 021d 2A       		.uleb128 0x2a
 5072 021e 05       		.uleb128 0x5
 5073 021f 00       		.byte	0
 5074 0220 03       		.uleb128 0x3
 5075 0221 08       		.uleb128 0x8
 5076 0222 3A       		.uleb128 0x3a
 5077 0223 0B       		.uleb128 0xb
 5078 0224 3B       		.uleb128 0x3b
 5079 0225 0B       		.uleb128 0xb
 5080 0226 49       		.uleb128 0x49
 5081 0227 13       		.uleb128 0x13
 5082 0228 02       		.uleb128 0x2
 5083 0229 0A       		.uleb128 0xa
 5084 022a 00       		.byte	0
 5085 022b 00       		.byte	0
 5086 022c 2B       		.uleb128 0x2b
 5087 022d 05       		.uleb128 0x5
 5088 022e 00       		.byte	0
 5089 022f 03       		.uleb128 0x3
 5090 0230 0E       		.uleb128 0xe
 5091 0231 3A       		.uleb128 0x3a
 5092 0232 0B       		.uleb128 0xb
 5093 0233 3B       		.uleb128 0x3b
 5094 0234 0B       		.uleb128 0xb
 5095 0235 49       		.uleb128 0x49
 5096 0236 13       		.uleb128 0x13
 5097 0237 02       		.uleb128 0x2
 5098 0238 0A       		.uleb128 0xa
 5099 0239 00       		.byte	0
 5100 023a 00       		.byte	0
 5101 023b 2C       		.uleb128 0x2c
 5102 023c 2E       		.uleb128 0x2e
 5103 023d 01       		.byte	0x1
 5104 023e 03       		.uleb128 0x3
 5105 023f 0E       		.uleb128 0xe
 5106 0240 3A       		.uleb128 0x3a
 5107 0241 0B       		.uleb128 0xb
 5108 0242 3B       		.uleb128 0x3b
 5109 0243 0B       		.uleb128 0xb
 5110 0244 27       		.uleb128 0x27
 5111 0245 0C       		.uleb128 0xc
 5112 0246 11       		.uleb128 0x11
 5113 0247 01       		.uleb128 0x1
 5114 0248 12       		.uleb128 0x12
 5115 0249 01       		.uleb128 0x1
ARM GAS  C:\Users\embedded\AppData\Local\Temp\ccHk1fkP.s 			page 101


 5116 024a 40       		.uleb128 0x40
 5117 024b 06       		.uleb128 0x6
 5118 024c 9642     		.uleb128 0x2116
 5119 024e 0C       		.uleb128 0xc
 5120 024f 01       		.uleb128 0x1
 5121 0250 13       		.uleb128 0x13
 5122 0251 00       		.byte	0
 5123 0252 00       		.byte	0
 5124 0253 2D       		.uleb128 0x2d
 5125 0254 2E       		.uleb128 0x2e
 5126 0255 01       		.byte	0x1
 5127 0256 3F       		.uleb128 0x3f
 5128 0257 0C       		.uleb128 0xc
 5129 0258 03       		.uleb128 0x3
 5130 0259 0E       		.uleb128 0xe
 5131 025a 3A       		.uleb128 0x3a
 5132 025b 0B       		.uleb128 0xb
 5133 025c 3B       		.uleb128 0x3b
 5134 025d 0B       		.uleb128 0xb
 5135 025e 27       		.uleb128 0x27
 5136 025f 0C       		.uleb128 0xc
 5137 0260 11       		.uleb128 0x11
 5138 0261 01       		.uleb128 0x1
 5139 0262 12       		.uleb128 0x12
 5140 0263 01       		.uleb128 0x1
 5141 0264 40       		.uleb128 0x40
 5142 0265 06       		.uleb128 0x6
 5143 0266 9742     		.uleb128 0x2117
 5144 0268 0C       		.uleb128 0xc
 5145 0269 01       		.uleb128 0x1
 5146 026a 13       		.uleb128 0x13
 5147 026b 00       		.byte	0
 5148 026c 00       		.byte	0
 5149 026d 2E       		.uleb128 0x2e
 5150 026e 2E       		.uleb128 0x2e
 5151 026f 01       		.byte	0x1
 5152 0270 3F       		.uleb128 0x3f
 5153 0271 0C       		.uleb128 0xc
 5154 0272 03       		.uleb128 0x3
 5155 0273 0E       		.uleb128 0xe
 5156 0274 3A       		.uleb128 0x3a
 5157 0275 0B       		.uleb128 0xb
 5158 0276 3B       		.uleb128 0x3b
 5159 0277 0B       		.uleb128 0xb
 5160 0278 27       		.uleb128 0x27
 5161 0279 0C       		.uleb128 0xc
 5162 027a 11       		.uleb128 0x11
 5163 027b 01       		.uleb128 0x1
 5164 027c 12       		.uleb128 0x12
 5165 027d 01       		.uleb128 0x1
 5166 027e 40       		.uleb128 0x40
 5167 027f 06       		.uleb128 0x6
 5168 0280 9742     		.uleb128 0x2117
 5169 0282 0C       		.uleb128 0xc
 5170 0283 00       		.byte	0
 5171 0284 00       		.byte	0
 5172 0285 00       		.byte	0
ARM GAS  C:\Users\embedded\AppData\Local\Temp\ccHk1fkP.s 			page 102


 5173              		.section	.debug_loc,"",%progbits
 5174              	.Ldebug_loc0:
 5175              	.LLST7:
 5176 0000 46040000 		.4byte	.LFB10-.Ltext0
 5177 0004 48040000 		.4byte	.LCFI21-.Ltext0
 5178 0008 0200     		.2byte	0x2
 5179 000a 7D       		.byte	0x7d
 5180 000b 00       		.sleb128 0
 5181 000c 48040000 		.4byte	.LCFI21-.Ltext0
 5182 0010 4A040000 		.4byte	.LCFI22-.Ltext0
 5183 0014 0200     		.2byte	0x2
 5184 0016 7D       		.byte	0x7d
 5185 0017 14       		.sleb128 20
 5186 0018 4A040000 		.4byte	.LCFI22-.Ltext0
 5187 001c 4C040000 		.4byte	.LCFI23-.Ltext0
 5188 0020 0300     		.2byte	0x3
 5189 0022 7D       		.byte	0x7d
 5190 0023 D802     		.sleb128 344
 5191 0025 4C040000 		.4byte	.LCFI23-.Ltext0
 5192 0029 28100000 		.4byte	.LFE10-.Ltext0
 5193 002d 0300     		.2byte	0x3
 5194 002f 77       		.byte	0x77
 5195 0030 D002     		.sleb128 336
 5196 0032 00000000 		.4byte	0
 5197 0036 00000000 		.4byte	0
 5198              	.LLST6:
 5199 003a F4030000 		.4byte	.LFB9-.Ltext0
 5200 003e F6030000 		.4byte	.LCFI18-.Ltext0
 5201 0042 0200     		.2byte	0x2
 5202 0044 7D       		.byte	0x7d
 5203 0045 00       		.sleb128 0
 5204 0046 F6030000 		.4byte	.LCFI18-.Ltext0
 5205 004a F8030000 		.4byte	.LCFI19-.Ltext0
 5206 004e 0200     		.2byte	0x2
 5207 0050 7D       		.byte	0x7d
 5208 0051 08       		.sleb128 8
 5209 0052 F8030000 		.4byte	.LCFI19-.Ltext0
 5210 0056 FA030000 		.4byte	.LCFI20-.Ltext0
 5211 005a 0200     		.2byte	0x2
 5212 005c 7D       		.byte	0x7d
 5213 005d 18       		.sleb128 24
 5214 005e FA030000 		.4byte	.LCFI20-.Ltext0
 5215 0062 46040000 		.4byte	.LFE9-.Ltext0
 5216 0066 0200     		.2byte	0x2
 5217 0068 77       		.byte	0x77
 5218 0069 18       		.sleb128 24
 5219 006a 00000000 		.4byte	0
 5220 006e 00000000 		.4byte	0
 5221              	.LLST5:
 5222 0072 C4020000 		.4byte	.LFB8-.Ltext0
 5223 0076 C6020000 		.4byte	.LCFI15-.Ltext0
 5224 007a 0200     		.2byte	0x2
 5225 007c 7D       		.byte	0x7d
 5226 007d 00       		.sleb128 0
 5227 007e C6020000 		.4byte	.LCFI15-.Ltext0
 5228 0082 C8020000 		.4byte	.LCFI16-.Ltext0
 5229 0086 0200     		.2byte	0x2
ARM GAS  C:\Users\embedded\AppData\Local\Temp\ccHk1fkP.s 			page 103


 5230 0088 7D       		.byte	0x7d
 5231 0089 08       		.sleb128 8
 5232 008a C8020000 		.4byte	.LCFI16-.Ltext0
 5233 008e CA020000 		.4byte	.LCFI17-.Ltext0
 5234 0092 0200     		.2byte	0x2
 5235 0094 7D       		.byte	0x7d
 5236 0095 18       		.sleb128 24
 5237 0096 CA020000 		.4byte	.LCFI17-.Ltext0
 5238 009a F4030000 		.4byte	.LFE8-.Ltext0
 5239 009e 0200     		.2byte	0x2
 5240 00a0 77       		.byte	0x77
 5241 00a1 18       		.sleb128 24
 5242 00a2 00000000 		.4byte	0
 5243 00a6 00000000 		.4byte	0
 5244              	.LLST4:
 5245 00aa 94010000 		.4byte	.LFB7-.Ltext0
 5246 00ae 96010000 		.4byte	.LCFI12-.Ltext0
 5247 00b2 0200     		.2byte	0x2
 5248 00b4 7D       		.byte	0x7d
 5249 00b5 00       		.sleb128 0
 5250 00b6 96010000 		.4byte	.LCFI12-.Ltext0
 5251 00ba 98010000 		.4byte	.LCFI13-.Ltext0
 5252 00be 0200     		.2byte	0x2
 5253 00c0 7D       		.byte	0x7d
 5254 00c1 14       		.sleb128 20
 5255 00c2 98010000 		.4byte	.LCFI13-.Ltext0
 5256 00c6 9A010000 		.4byte	.LCFI14-.Ltext0
 5257 00ca 0300     		.2byte	0x3
 5258 00cc 7D       		.byte	0x7d
 5259 00cd C800     		.sleb128 72
 5260 00cf 9A010000 		.4byte	.LCFI14-.Ltext0
 5261 00d3 C4020000 		.4byte	.LFE7-.Ltext0
 5262 00d7 0300     		.2byte	0x3
 5263 00d9 77       		.byte	0x77
 5264 00da C800     		.sleb128 72
 5265 00dc 00000000 		.4byte	0
 5266 00e0 00000000 		.4byte	0
 5267              	.LLST3:
 5268 00e4 34010000 		.4byte	.LFB6-.Ltext0
 5269 00e8 36010000 		.4byte	.LCFI9-.Ltext0
 5270 00ec 0200     		.2byte	0x2
 5271 00ee 7D       		.byte	0x7d
 5272 00ef 00       		.sleb128 0
 5273 00f0 36010000 		.4byte	.LCFI9-.Ltext0
 5274 00f4 38010000 		.4byte	.LCFI10-.Ltext0
 5275 00f8 0200     		.2byte	0x2
 5276 00fa 7D       		.byte	0x7d
 5277 00fb 08       		.sleb128 8
 5278 00fc 38010000 		.4byte	.LCFI10-.Ltext0
 5279 0100 3A010000 		.4byte	.LCFI11-.Ltext0
 5280 0104 0200     		.2byte	0x2
 5281 0106 7D       		.byte	0x7d
 5282 0107 10       		.sleb128 16
 5283 0108 3A010000 		.4byte	.LCFI11-.Ltext0
 5284 010c 94010000 		.4byte	.LFE6-.Ltext0
 5285 0110 0200     		.2byte	0x2
 5286 0112 77       		.byte	0x77
ARM GAS  C:\Users\embedded\AppData\Local\Temp\ccHk1fkP.s 			page 104


 5287 0113 10       		.sleb128 16
 5288 0114 00000000 		.4byte	0
 5289 0118 00000000 		.4byte	0
 5290              	.LLST2:
 5291 011c CC000000 		.4byte	.LFB5-.Ltext0
 5292 0120 CE000000 		.4byte	.LCFI6-.Ltext0
 5293 0124 0200     		.2byte	0x2
 5294 0126 7D       		.byte	0x7d
 5295 0127 00       		.sleb128 0
 5296 0128 CE000000 		.4byte	.LCFI6-.Ltext0
 5297 012c D0000000 		.4byte	.LCFI7-.Ltext0
 5298 0130 0200     		.2byte	0x2
 5299 0132 7D       		.byte	0x7d
 5300 0133 08       		.sleb128 8
 5301 0134 D0000000 		.4byte	.LCFI7-.Ltext0
 5302 0138 D2000000 		.4byte	.LCFI8-.Ltext0
 5303 013c 0200     		.2byte	0x2
 5304 013e 7D       		.byte	0x7d
 5305 013f 10       		.sleb128 16
 5306 0140 D2000000 		.4byte	.LCFI8-.Ltext0
 5307 0144 34010000 		.4byte	.LFE5-.Ltext0
 5308 0148 0200     		.2byte	0x2
 5309 014a 77       		.byte	0x77
 5310 014b 10       		.sleb128 16
 5311 014c 00000000 		.4byte	0
 5312 0150 00000000 		.4byte	0
 5313              	.LLST1:
 5314 0154 60000000 		.4byte	.LFB4-.Ltext0
 5315 0158 62000000 		.4byte	.LCFI3-.Ltext0
 5316 015c 0200     		.2byte	0x2
 5317 015e 7D       		.byte	0x7d
 5318 015f 00       		.sleb128 0
 5319 0160 62000000 		.4byte	.LCFI3-.Ltext0
 5320 0164 64000000 		.4byte	.LCFI4-.Ltext0
 5321 0168 0200     		.2byte	0x2
 5322 016a 7D       		.byte	0x7d
 5323 016b 08       		.sleb128 8
 5324 016c 64000000 		.4byte	.LCFI4-.Ltext0
 5325 0170 66000000 		.4byte	.LCFI5-.Ltext0
 5326 0174 0200     		.2byte	0x2
 5327 0176 7D       		.byte	0x7d
 5328 0177 10       		.sleb128 16
 5329 0178 66000000 		.4byte	.LCFI5-.Ltext0
 5330 017c CC000000 		.4byte	.LFE4-.Ltext0
 5331 0180 0200     		.2byte	0x2
 5332 0182 77       		.byte	0x77
 5333 0183 10       		.sleb128 16
 5334 0184 00000000 		.4byte	0
 5335 0188 00000000 		.4byte	0
 5336              	.LLST0:
 5337 018c 00000000 		.4byte	.LFB3-.Ltext0
 5338 0190 02000000 		.4byte	.LCFI0-.Ltext0
 5339 0194 0200     		.2byte	0x2
 5340 0196 7D       		.byte	0x7d
 5341 0197 00       		.sleb128 0
 5342 0198 02000000 		.4byte	.LCFI0-.Ltext0
 5343 019c 04000000 		.4byte	.LCFI1-.Ltext0
ARM GAS  C:\Users\embedded\AppData\Local\Temp\ccHk1fkP.s 			page 105


 5344 01a0 0200     		.2byte	0x2
 5345 01a2 7D       		.byte	0x7d
 5346 01a3 08       		.sleb128 8
 5347 01a4 04000000 		.4byte	.LCFI1-.Ltext0
 5348 01a8 06000000 		.4byte	.LCFI2-.Ltext0
 5349 01ac 0200     		.2byte	0x2
 5350 01ae 7D       		.byte	0x7d
 5351 01af 10       		.sleb128 16
 5352 01b0 06000000 		.4byte	.LCFI2-.Ltext0
 5353 01b4 60000000 		.4byte	.LFE3-.Ltext0
 5354 01b8 0200     		.2byte	0x2
 5355 01ba 77       		.byte	0x77
 5356 01bb 10       		.sleb128 16
 5357 01bc 00000000 		.4byte	0
 5358 01c0 00000000 		.4byte	0
 5359              		.section	.debug_aranges,"",%progbits
 5360 0000 1C000000 		.4byte	0x1c
 5361 0004 0200     		.2byte	0x2
 5362 0006 00000000 		.4byte	.Ldebug_info0
 5363 000a 04       		.byte	0x4
 5364 000b 00       		.byte	0
 5365 000c 0000     		.2byte	0
 5366 000e 0000     		.2byte	0
 5367 0010 00000000 		.4byte	.Ltext0
 5368 0014 28100000 		.4byte	.Letext0-.Ltext0
 5369 0018 00000000 		.4byte	0
 5370 001c 00000000 		.4byte	0
 5371              		.section	.debug_line,"",%progbits
 5372              	.Ldebug_line0:
 5373 0000 31030000 		.section	.debug_str,"MS",%progbits,1
 5373      0200CE00 
 5373      00000201 
 5373      FB0E0D00 
 5373      01010101 
 5374              	.LASF38:
 5375 0000 5F64736F 		.ascii	"_dso_handle\000"
 5375      5F68616E 
 5375      646C6500 
 5376              	.LASF46:
 5377 000c 5F73697A 		.ascii	"_size\000"
 5377      6500
 5378              	.LASF149:
 5379 0012 64697265 		.ascii	"directionAddr\000"
 5379      6374696F 
 5379      6E416464 
 5379      7200
 5380              	.LASF91:
 5381 0020 5F72616E 		.ascii	"_rand48\000"
 5381      64343800 
 5382              	.LASF151:
 5383 0028 6572726F 		.ascii	"errorCode\000"
 5383      72436F64 
 5383      6500
 5384              	.LASF70:
 5385 0032 5F656D65 		.ascii	"_emergency\000"
 5385      7267656E 
 5385      637900
ARM GAS  C:\Users\embedded\AppData\Local\Temp\ccHk1fkP.s 			page 106


 5386              	.LASF60:
 5387 003d 5F646174 		.ascii	"_data\000"
 5387      6100
 5388              	.LASF138:
 5389 0043 77616974 		.ascii	"waitingfor\000"
 5389      696E6766 
 5389      6F7200
 5390              	.LASF111:
 5391 004e 5F776372 		.ascii	"_wcrtomb_state\000"
 5391      746F6D62 
 5391      5F737461 
 5391      746500
 5392              	.LASF112:
 5393 005d 5F776373 		.ascii	"_wcsrtombs_state\000"
 5393      72746F6D 
 5393      62735F73 
 5393      74617465 
 5393      00
 5394              	.LASF7:
 5395 006e 6C6F6E67 		.ascii	"long long unsigned int\000"
 5395      206C6F6E 
 5395      6720756E 
 5395      7369676E 
 5395      65642069 
 5396              	.LASF134:
 5397 0085 63686563 		.ascii	"checkSumCalculated\000"
 5397      6B53756D 
 5397      43616C63 
 5397      756C6174 
 5397      656400
 5398              	.LASF50:
 5399 0098 5F6C6266 		.ascii	"_lbfsize\000"
 5399      73697A65 
 5399      00
 5400              	.LASF118:
 5401 00a1 5F5F6C6F 		.ascii	"__locale_t\000"
 5401      63616C65 
 5401      5F7400
 5402              	.LASF109:
 5403 00ac 5F6D6272 		.ascii	"_mbrtowc_state\000"
 5403      746F7763 
 5403      5F737461 
 5403      746500
 5404              	.LASF142:
 5405 00bb 65786974 		.ascii	"exitFor\000"
 5405      466F7200 
 5406              	.LASF27:
 5407 00c3 5F5F746D 		.ascii	"__tm_sec\000"
 5407      5F736563 
 5407      00
 5408              	.LASF6:
 5409 00cc 6C6F6E67 		.ascii	"long long int\000"
 5409      206C6F6E 
 5409      6720696E 
 5409      7400
 5410              	.LASF0:
 5411 00da 7369676E 		.ascii	"signed char\000"
ARM GAS  C:\Users\embedded\AppData\Local\Temp\ccHk1fkP.s 			page 107


 5411      65642063 
 5411      68617200 
 5412              	.LASF150:
 5413 00e6 66726571 		.ascii	"freq\000"
 5413      00
 5414              	.LASF56:
 5415 00eb 5F756275 		.ascii	"_ubuf\000"
 5415      6600
 5416              	.LASF45:
 5417 00f1 5F626173 		.ascii	"_base\000"
 5417      6500
 5418              	.LASF141:
 5419 00f7 686F774D 		.ascii	"howManyRounds\000"
 5419      616E7952 
 5419      6F756E64 
 5419      7300
 5420              	.LASF29:
 5421 0105 5F5F746D 		.ascii	"__tm_hour\000"
 5421      5F686F75 
 5421      7200
 5422              	.LASF85:
 5423 010f 5F5F7366 		.ascii	"__sf\000"
 5423      00
 5424              	.LASF36:
 5425 0114 5F6F6E5F 		.ascii	"_on_exit_args\000"
 5425      65786974 
 5425      5F617267 
 5425      7300
 5426              	.LASF51:
 5427 0122 5F636F6F 		.ascii	"_cookie\000"
 5427      6B696500 
 5428              	.LASF145:
 5429 012a 7369676E 		.ascii	"sign\000"
 5429      00
 5430              	.LASF84:
 5431 012f 5F5F7367 		.ascii	"__sglue\000"
 5431      6C756500 
 5432              	.LASF121:
 5433 0137 74553136 		.ascii	"tU16\000"
 5433      00
 5434              	.LASF4:
 5435 013c 6C6F6E67 		.ascii	"long int\000"
 5435      20696E74 
 5435      00
 5436              	.LASF166:
 5437 0145 7364656C 		.ascii	"sdelay\000"
 5437      617900
 5438              	.LASF48:
 5439 014c 5F666C61 		.ascii	"_flags\000"
 5439      677300
 5440              	.LASF40:
 5441 0153 5F69735F 		.ascii	"_is_cxa\000"
 5441      63786100 
 5442              	.LASF66:
 5443 015b 5F737464 		.ascii	"_stdin\000"
 5443      696E00
 5444              	.LASF58:
ARM GAS  C:\Users\embedded\AppData\Local\Temp\ccHk1fkP.s 			page 108


 5445 0162 5F626C6B 		.ascii	"_blksize\000"
 5445      73697A65 
 5445      00
 5446              	.LASF126:
 5447 016b 74426F6F 		.ascii	"tBool\000"
 5447      6C00
 5448              	.LASF159:
 5449 0171 64656C61 		.ascii	"delayUs\000"
 5449      79557300 
 5450              	.LASF80:
 5451 0179 5F637674 		.ascii	"_cvtbuf\000"
 5451      62756600 
 5452              	.LASF59:
 5453 0181 5F6F6666 		.ascii	"_offset\000"
 5453      73657400 
 5454              	.LASF110:
 5455 0189 5F6D6273 		.ascii	"_mbsrtowcs_state\000"
 5455      72746F77 
 5455      63735F73 
 5455      74617465 
 5455      00
 5456              	.LASF108:
 5457 019a 5F6D6272 		.ascii	"_mbrlen_state\000"
 5457      6C656E5F 
 5457      73746174 
 5457      6500
 5458              	.LASF37:
 5459 01a8 5F666E61 		.ascii	"_fnargs\000"
 5459      72677300 
 5460              	.LASF43:
 5461 01b0 5F666E73 		.ascii	"_fns\000"
 5461      00
 5462              	.LASF23:
 5463 01b5 5F736967 		.ascii	"_sign\000"
 5463      6E00
 5464              	.LASF158:
 5465 01bb 64656C61 		.ascii	"delayInMs\000"
 5465      79496E4D 
 5465      7300
 5466              	.LASF19:
 5467 01c5 5F666C6F 		.ascii	"_flock_t\000"
 5467      636B5F74 
 5467      00
 5468              	.LASF68:
 5469 01ce 5F737464 		.ascii	"_stderr\000"
 5469      65727200 
 5470              	.LASF25:
 5471 01d6 5F426967 		.ascii	"_Bigint\000"
 5471      696E7400 
 5472              	.LASF99:
 5473 01de 5F67616D 		.ascii	"_gamma_signgam\000"
 5473      6D615F73 
 5473      69676E67 
 5473      616D00
 5474              	.LASF52:
 5475 01ed 5F726561 		.ascii	"_read\000"
 5475      6400
ARM GAS  C:\Users\embedded\AppData\Local\Temp\ccHk1fkP.s 			page 109


 5476              	.LASF76:
 5477 01f3 5F726573 		.ascii	"_result_k\000"
 5477      756C745F 
 5477      6B00
 5478              	.LASF26:
 5479 01fd 5F5F746D 		.ascii	"__tm\000"
 5479      00
 5480              	.LASF8:
 5481 0202 756E7369 		.ascii	"unsigned int\000"
 5481      676E6564 
 5481      20696E74 
 5481      00
 5482              	.LASF15:
 5483 020f 5F5F7763 		.ascii	"__wchb\000"
 5483      686200
 5484              	.LASF146:
 5485 0216 706F7369 		.ascii	"position\000"
 5485      74696F6E 
 5485      00
 5486              	.LASF67:
 5487 021f 5F737464 		.ascii	"_stdout\000"
 5487      6F757400 
 5488              	.LASF79:
 5489 0227 5F637674 		.ascii	"_cvtlen\000"
 5489      6C656E00 
 5490              	.LASF5:
 5491 022f 6C6F6E67 		.ascii	"long unsigned int\000"
 5491      20756E73 
 5491      69676E65 
 5491      6420696E 
 5491      7400
 5492              	.LASF49:
 5493 0241 5F66696C 		.ascii	"_file\000"
 5493      6500
 5494              	.LASF143:
 5495 0247 6E616D65 		.ascii	"name\000"
 5495      00
 5496              	.LASF89:
 5497 024c 5F6E696F 		.ascii	"_niobs\000"
 5497      627300
 5498              	.LASF125:
 5499 0253 54525545 		.ascii	"TRUE\000"
 5499      00
 5500              	.LASF3:
 5501 0258 73686F72 		.ascii	"short unsigned int\000"
 5501      7420756E 
 5501      7369676E 
 5501      65642069 
 5501      6E7400
 5502              	.LASF82:
 5503 026b 5F617465 		.ascii	"_atexit0\000"
 5503      78697430 
 5503      00
 5504              	.LASF106:
 5505 0274 5F736967 		.ascii	"_signal_buf\000"
 5505      6E616C5F 
 5505      62756600 
ARM GAS  C:\Users\embedded\AppData\Local\Temp\ccHk1fkP.s 			page 110


 5506              	.LASF97:
 5507 0280 5F617363 		.ascii	"_asctime_buf\000"
 5507      74696D65 
 5507      5F627566 
 5507      00
 5508              	.LASF75:
 5509 028d 5F726573 		.ascii	"_result\000"
 5509      756C7400 
 5510              	.LASF14:
 5511 0295 5F5F7763 		.ascii	"__wch\000"
 5511      6800
 5512              	.LASF136:
 5513 029b 6E756D62 		.ascii	"number\000"
 5513      657200
 5514              	.LASF10:
 5515 02a2 5F4C4F43 		.ascii	"_LOCK_T\000"
 5515      4B5F5400 
 5516              	.LASF162:
 5517 02aa 6D61696E 		.ascii	"main.c\000"
 5517      2E6300
 5518              	.LASF13:
 5519 02b1 77696E74 		.ascii	"wint_t\000"
 5519      5F7400
 5520              	.LASF61:
 5521 02b8 5F6C6F63 		.ascii	"_lock\000"
 5521      6B00
 5522              	.LASF153:
 5523 02be 706C6179 		.ascii	"playSound\000"
 5523      536F756E 
 5523      6400
 5524              	.LASF63:
 5525 02c8 5F666C61 		.ascii	"_flags2\000"
 5525      67733200 
 5526              	.LASF53:
 5527 02d0 5F777269 		.ascii	"_write\000"
 5527      746500
 5528              	.LASF32:
 5529 02d7 5F5F746D 		.ascii	"__tm_year\000"
 5529      5F796561 
 5529      7200
 5530              	.LASF160:
 5531 02e1 64656C61 		.ascii	"delayMs\000"
 5531      794D7300 
 5532              	.LASF127:
 5533 02e9 74696D65 		.ascii	"timeTwo\000"
 5533      54776F00 
 5534              	.LASF9:
 5535 02f1 6C6F6E67 		.ascii	"long double\000"
 5535      20646F75 
 5535      626C6500 
 5536              	.LASF156:
 5537 02fd 64757479 		.ascii	"duty_cycle\000"
 5537      5F637963 
 5537      6C6500
 5538              	.LASF114:
 5539 0308 5F6E6578 		.ascii	"_nextf\000"
 5539      746600
ARM GAS  C:\Users\embedded\AppData\Local\Temp\ccHk1fkP.s 			page 111


 5540              	.LASF31:
 5541 030f 5F5F746D 		.ascii	"__tm_mon\000"
 5541      5F6D6F6E 
 5541      00
 5542              	.LASF140:
 5543 0318 6D696C69 		.ascii	"miliseconds\000"
 5543      7365636F 
 5543      6E647300 
 5544              	.LASF41:
 5545 0324 5F617465 		.ascii	"_atexit\000"
 5545      78697400 
 5546              	.LASF154:
 5547 032c 74696D65 		.ascii	"time\000"
 5547      00
 5548              	.LASF73:
 5549 0331 5F5F7364 		.ascii	"__sdidinit\000"
 5549      6964696E 
 5549      697400
 5550              	.LASF11:
 5551 033c 5F6F6666 		.ascii	"_off_t\000"
 5551      5F7400
 5552              	.LASF163:
 5553 0343 433A5C45 		.ascii	"C:\\Embedded\\eclipse\\Demo\\2138\000"
 5553      6D626564 
 5553      6465645C 
 5553      65636C69 
 5553      7073655C 
 5554              	.LASF132:
 5555 0361 72656164 		.ascii	"read\000"
 5555      00
 5556              	.LASF124:
 5557 0366 46414C53 		.ascii	"FALSE\000"
 5557      4500
 5558              	.LASF161:
 5559 036c 474E5520 		.ascii	"GNU C11 7.3.1 20180622 (release) [ARM/embedded-7-br"
 5559      43313120 
 5559      372E332E 
 5559      31203230 
 5559      31383036 
 5560 039f 616E6368 		.ascii	"anch revision 261907] -mcpu=arm7tdmi -mthumb -mthum"
 5560      20726576 
 5560      6973696F 
 5560      6E203236 
 5560      31393037 
 5561 03d2 622D696E 		.ascii	"b-interwork -gdwarf-2 -O0\000"
 5561      74657277 
 5561      6F726B20 
 5561      2D676477 
 5561      6172662D 
 5562              	.LASF139:
 5563 03ec 7365636F 		.ascii	"seconds\000"
 5563      6E647300 
 5564              	.LASF104:
 5565 03f4 5F776374 		.ascii	"_wctomb_state\000"
 5565      6F6D625F 
 5565      73746174 
 5565      6500
ARM GAS  C:\Users\embedded\AppData\Local\Temp\ccHk1fkP.s 			page 112


 5566              	.LASF137:
 5567 0402 6E756D5F 		.ascii	"num_char\000"
 5567      63686172 
 5567      00
 5568              	.LASF102:
 5569 040b 5F6D626C 		.ascii	"_mblen_state\000"
 5569      656E5F73 
 5569      74617465 
 5569      00
 5570              	.LASF1:
 5571 0418 756E7369 		.ascii	"unsigned char\000"
 5571      676E6564 
 5571      20636861 
 5571      7200
 5572              	.LASF81:
 5573 0426 5F6E6577 		.ascii	"_new\000"
 5573      00
 5574              	.LASF113:
 5575 042b 5F685F65 		.ascii	"_h_errno\000"
 5575      72726E6F 
 5575      00
 5576              	.LASF2:
 5577 0434 73686F72 		.ascii	"short int\000"
 5577      7420696E 
 5577      7400
 5578              	.LASF34:
 5579 043e 5F5F746D 		.ascii	"__tm_yday\000"
 5579      5F796461 
 5579      7900
 5580              	.LASF44:
 5581 0448 5F5F7362 		.ascii	"__sbuf\000"
 5581      756600
 5582              	.LASF78:
 5583 044f 5F667265 		.ascii	"_freelist\000"
 5583      656C6973 
 5583      7400
 5584              	.LASF87:
 5585 0459 5F5F4649 		.ascii	"__FILE\000"
 5585      4C4500
 5586              	.LASF18:
 5587 0460 5F6D6273 		.ascii	"_mbstate_t\000"
 5587      74617465 
 5587      5F7400
 5588              	.LASF47:
 5589 046b 5F5F7346 		.ascii	"__sFILE\000"
 5589      494C4500 
 5590              	.LASF62:
 5591 0473 5F6D6273 		.ascii	"_mbstate\000"
 5591      74617465 
 5591      00
 5592              	.LASF100:
 5593 047c 5F72616E 		.ascii	"_rand_next\000"
 5593      645F6E65 
 5593      787400
 5594              	.LASF90:
 5595 0487 5F696F62 		.ascii	"_iobs\000"
 5595      7300
ARM GAS  C:\Users\embedded\AppData\Local\Temp\ccHk1fkP.s 			page 113


 5596              	.LASF69:
 5597 048d 5F696E63 		.ascii	"_inc\000"
 5597      00
 5598              	.LASF42:
 5599 0492 5F696E64 		.ascii	"_ind\000"
 5599      00
 5600              	.LASF135:
 5601 0497 65786974 		.ascii	"exit\000"
 5601      00
 5602              	.LASF72:
 5603 049c 5F6C6F63 		.ascii	"_locale\000"
 5603      616C6500 
 5604              	.LASF74:
 5605 04a4 5F5F636C 		.ascii	"__cleanup\000"
 5605      65616E75 
 5605      7000
 5606              	.LASF71:
 5607 04ae 5F756E73 		.ascii	"_unspecified_locale_info\000"
 5607      70656369 
 5607      66696564 
 5607      5F6C6F63 
 5607      616C655F 
 5608              	.LASF22:
 5609 04c7 5F6D6178 		.ascii	"_maxwds\000"
 5609      77647300 
 5610              	.LASF64:
 5611 04cf 5F726565 		.ascii	"_reent\000"
 5611      6E7400
 5612              	.LASF92:
 5613 04d6 5F736565 		.ascii	"_seed\000"
 5613      6400
 5614              	.LASF152:
 5615 04dc 6368616E 		.ascii	"changeLEDs\000"
 5615      67654C45 
 5615      447300
 5616              	.LASF16:
 5617 04e7 5F5F636F 		.ascii	"__count\000"
 5617      756E7400 
 5618              	.LASF117:
 5619 04ef 5F5F6C6F 		.ascii	"__lock\000"
 5619      636B00
 5620              	.LASF17:
 5621 04f6 5F5F7661 		.ascii	"__value\000"
 5621      6C756500 
 5622              	.LASF54:
 5623 04fe 5F736565 		.ascii	"_seek\000"
 5623      6B00
 5624              	.LASF119:
 5625 0504 5F696D70 		.ascii	"_impure_ptr\000"
 5625      7572655F 
 5625      70747200 
 5626              	.LASF12:
 5627 0510 5F66706F 		.ascii	"_fpos_t\000"
 5627      735F7400 
 5628              	.LASF65:
 5629 0518 5F657272 		.ascii	"_errno\000"
 5629      6E6F00
ARM GAS  C:\Users\embedded\AppData\Local\Temp\ccHk1fkP.s 			page 114


 5630              	.LASF86:
 5631 051f 63686172 		.ascii	"char\000"
 5631      00
 5632              	.LASF28:
 5633 0524 5F5F746D 		.ascii	"__tm_min\000"
 5633      5F6D696E 
 5633      00
 5634              	.LASF144:
 5635 052d 696E6465 		.ascii	"index\000"
 5635      7800
 5636              	.LASF148:
 5637 0533 636F7272 		.ascii	"correct\000"
 5637      65637400 
 5638              	.LASF93:
 5639 053b 5F6D756C 		.ascii	"_mult\000"
 5639      7400
 5640              	.LASF155:
 5641 0541 70657269 		.ascii	"period\000"
 5641      6F6400
 5642              	.LASF21:
 5643 0548 5F6E6578 		.ascii	"_next\000"
 5643      7400
 5644              	.LASF96:
 5645 054e 5F737472 		.ascii	"_strtok_last\000"
 5645      746F6B5F 
 5645      6C617374 
 5645      00
 5646              	.LASF39:
 5647 055b 5F666E74 		.ascii	"_fntypes\000"
 5647      79706573 
 5647      00
 5648              	.LASF147:
 5649 0564 63686563 		.ascii	"checkSum\000"
 5649      6B53756D 
 5649      00
 5650              	.LASF94:
 5651 056d 5F616464 		.ascii	"_add\000"
 5651      00
 5652              	.LASF20:
 5653 0572 5F5F554C 		.ascii	"__ULong\000"
 5653      6F6E6700 
 5654              	.LASF107:
 5655 057a 5F676574 		.ascii	"_getdate_err\000"
 5655      64617465 
 5655      5F657272 
 5655      00
 5656              	.LASF123:
 5657 0587 74553634 		.ascii	"tU64\000"
 5657      00
 5658              	.LASF120:
 5659 058c 5F676C6F 		.ascii	"_global_impure_ptr\000"
 5659      62616C5F 
 5659      696D7075 
 5659      72655F70 
 5659      747200
 5660              	.LASF95:
 5661 059f 5F756E75 		.ascii	"_unused_rand\000"
ARM GAS  C:\Users\embedded\AppData\Local\Temp\ccHk1fkP.s 			page 115


 5661      7365645F 
 5661      72616E64 
 5661      00
 5662              	.LASF131:
 5663 05ac 74657374 		.ascii	"testBuf\000"
 5663      42756600 
 5664              	.LASF122:
 5665 05b4 74553332 		.ascii	"tU32\000"
 5665      00
 5666              	.LASF24:
 5667 05b9 5F776473 		.ascii	"_wds\000"
 5667      00
 5668              	.LASF33:
 5669 05be 5F5F746D 		.ascii	"__tm_wday\000"
 5669      5F776461 
 5669      7900
 5670              	.LASF88:
 5671 05c8 5F676C75 		.ascii	"_glue\000"
 5671      6500
 5672              	.LASF115:
 5673 05ce 5F6E6D61 		.ascii	"_nmalloc\000"
 5673      6C6C6F63 
 5673      00
 5674              	.LASF105:
 5675 05d7 5F6C3634 		.ascii	"_l64a_buf\000"
 5675      615F6275 
 5675      6600
 5676              	.LASF128:
 5677 05e1 66726571 		.ascii	"freqs\000"
 5677      7300
 5678              	.LASF83:
 5679 05e7 5F736967 		.ascii	"_sig_func\000"
 5679      5F66756E 
 5679      6300
 5680              	.LASF129:
 5681 05f1 74696D65 		.ascii	"times\000"
 5681      7300
 5682              	.LASF133:
 5683 05f7 726F756E 		.ascii	"rounds\000"
 5683      647300
 5684              	.LASF157:
 5685 05fe 64656C61 		.ascii	"delayPs\000"
 5685      79507300 
 5686              	.LASF130:
 5687 0606 63686F69 		.ascii	"choice\000"
 5687      636500
 5688              	.LASF57:
 5689 060d 5F6E6275 		.ascii	"_nbuf\000"
 5689      6600
 5690              	.LASF116:
 5691 0613 5F756E75 		.ascii	"_unused\000"
 5691      73656400 
 5692              	.LASF35:
 5693 061b 5F5F746D 		.ascii	"__tm_isdst\000"
 5693      5F697364 
 5693      737400
 5694              	.LASF98:
ARM GAS  C:\Users\embedded\AppData\Local\Temp\ccHk1fkP.s 			page 116


 5695 0626 5F6C6F63 		.ascii	"_localtime_buf\000"
 5695      616C7469 
 5695      6D655F62 
 5695      756600
 5696              	.LASF55:
 5697 0635 5F636C6F 		.ascii	"_close\000"
 5697      736500
 5698              	.LASF101:
 5699 063c 5F723438 		.ascii	"_r48\000"
 5699      00
 5700              	.LASF103:
 5701 0641 5F6D6274 		.ascii	"_mbtowc_state\000"
 5701      6F77635F 
 5701      73746174 
 5701      6500
 5702              	.LASF77:
 5703 064f 5F703573 		.ascii	"_p5s\000"
 5703      00
 5704              	.LASF164:
 5705 0654 6D61696E 		.ascii	"main\000"
 5705      00
 5706              	.LASF165:
 5707 0659 696E6974 		.ascii	"init_irq\000"
 5707      5F697271 
 5707      00
 5708              	.LASF30:
 5709 0662 5F5F746D 		.ascii	"__tm_mday\000"
 5709      5F6D6461 
 5709      7900
 5710              		.ident	"GCC: (GNU Tools for Arm Embedded Processors 7-2018-q2-update) 7.3.1 20180622 (release) [AR
ARM GAS  C:\Users\embedded\AppData\Local\Temp\ccHk1fkP.s 			page 117


DEFINED SYMBOLS
                            *ABS*:00000000 main.c
                            *COM*:00000004 timeTwo
C:\Users\embedded\AppData\Local\Temp\ccHk1fkP.s:23     .text:00000000 sdelay
C:\Users\embedded\AppData\Local\Temp\ccHk1fkP.s:31     .text:00000000 $t
C:\Users\embedded\AppData\Local\Temp\ccHk1fkP.s:88     .text:00000048 $d
C:\Users\embedded\AppData\Local\Temp\ccHk1fkP.s:97     .text:00000060 $t
C:\Users\embedded\AppData\Local\Temp\ccHk1fkP.s:104    .text:00000060 delayMs
C:\Users\embedded\AppData\Local\Temp\ccHk1fkP.s:174    .text:000000b4 $d
C:\Users\embedded\AppData\Local\Temp\ccHk1fkP.s:183    .text:000000cc $t
C:\Users\embedded\AppData\Local\Temp\ccHk1fkP.s:190    .text:000000cc delayUs
C:\Users\embedded\AppData\Local\Temp\ccHk1fkP.s:260    .text:00000120 $d
C:\Users\embedded\AppData\Local\Temp\ccHk1fkP.s:268    .text:00000134 $t
C:\Users\embedded\AppData\Local\Temp\ccHk1fkP.s:275    .text:00000134 delayPs
C:\Users\embedded\AppData\Local\Temp\ccHk1fkP.s:341    .text:00000180 $d
C:\Users\embedded\AppData\Local\Temp\ccHk1fkP.s:351    .text:00000194 $t
C:\Users\embedded\AppData\Local\Temp\ccHk1fkP.s:357    .text:00000194 init_irq
C:\Users\embedded\AppData\Local\Temp\ccHk1fkP.s:520    .text:00000298 $d
C:\Users\embedded\AppData\Local\Temp\ccHk1fkP.s:535    .text:000002c4 $t
C:\Users\embedded\AppData\Local\Temp\ccHk1fkP.s:542    .text:000002c4 playSound
C:\Users\embedded\AppData\Local\Temp\ccHk1fkP.s:740    .text:000003e0 $d
C:\Users\embedded\AppData\Local\Temp\ccHk1fkP.s:748    .text:000003f4 $t
C:\Users\embedded\AppData\Local\Temp\ccHk1fkP.s:755    .text:000003f4 changeLEDs
C:\Users\embedded\AppData\Local\Temp\ccHk1fkP.s:824    .rodata:00000000 $d
C:\Users\embedded\AppData\Local\Temp\ccHk1fkP.s:947    .text:00000446 main
C:\Users\embedded\AppData\Local\Temp\ccHk1fkP.s:1492   .text:000007d0 $d
C:\Users\embedded\AppData\Local\Temp\ccHk1fkP.s:1517   .text:0000082c $t
C:\Users\embedded\AppData\Local\Temp\ccHk1fkP.s:2067   .text:00000bf8 $d
C:\Users\embedded\AppData\Local\Temp\ccHk1fkP.s:2080   .text:00000c24 $t
C:\Users\embedded\AppData\Local\Temp\ccHk1fkP.s:2576   .text:00000f80 $d
C:\Users\embedded\AppData\Local\Temp\ccHk1fkP.s:2585   .text:00000f9c $t
C:\Users\embedded\AppData\Local\Temp\ccHk1fkP.s:2665   .text:0000101c $d

UNDEFINED SYMBOLS
__aeabi_uldivmod
__aeabi_lmul
IRQ_Test
__aeabi_idiv
setPca9532Pin
i2cInit
pca9532Init
lcdInit
lcdColor
memcpy
lcdClrscr
lcdGotoxy
lcdPuts
eepromPageRead
lcdPutchar
snprintf
eepromWrite
eepromPoll
