ARM GAS  C:\Users\embedded\AppData\Local\Temp\cceTAOpi.s 			page 1


   1              		.cpu arm7tdmi
   2              		.eabi_attribute 20, 1
   3              		.eabi_attribute 21, 1
   4              		.eabi_attribute 23, 3
   5              		.eabi_attribute 24, 1
   6              		.eabi_attribute 25, 1
   7              		.eabi_attribute 26, 1
   8              		.eabi_attribute 30, 6
   9              		.eabi_attribute 34, 0
  10              		.eabi_attribute 18, 4
  11              		.file	"lcd.c"
  12              		.text
  13              	.Ltext0:
  14              		.cfi_sections	.debug_frame
  15              		.global	charMap
  16              		.section	.rodata
  17              		.align	2
  18              		.type	charMap, %object
  19              		.size	charMap, 1372
  20              	charMap:
  21 0000 00       		.byte	0
  22 0001 00       		.byte	0
  23 0002 00       		.byte	0
  24 0003 80       		.byte	-128
  25 0004 C0       		.byte	-64
  26 0005 E0       		.byte	-32
  27 0006 F8       		.byte	-8
  28 0007 FE       		.byte	-2
  29 0008 F8       		.byte	-8
  30 0009 E0       		.byte	-32
  31 000a C0       		.byte	-64
  32 000b 80       		.byte	-128
  33 000c 00       		.byte	0
  34 000d 00       		.byte	0
  35 000e 00       		.byte	0
  36 000f 00       		.byte	0
  37 0010 00       		.byte	0
  38 0011 02       		.byte	2
  39 0012 06       		.byte	6
  40 0013 0E       		.byte	14
  41 0014 3E       		.byte	62
  42 0015 FE       		.byte	-2
  43 0016 3E       		.byte	62
  44 0017 0E       		.byte	14
  45 0018 06       		.byte	6
  46 0019 02       		.byte	2
  47 001a 00       		.byte	0
  48 001b 00       		.byte	0
  49 001c 00       		.byte	0
  50 001d 00       		.byte	0
  51 001e 00       		.byte	0
  52 001f 00       		.byte	0
  53 0020 00       		.byte	0
  54 0021 00       		.byte	0
  55 0022 00       		.byte	0
  56 0023 00       		.byte	0
  57 0024 00       		.byte	0
ARM GAS  C:\Users\embedded\AppData\Local\Temp\cceTAOpi.s 			page 2


  58 0025 00       		.byte	0
  59 0026 00       		.byte	0
  60 0027 00       		.byte	0
  61 0028 00       		.byte	0
  62 0029 00       		.byte	0
  63 002a 00       		.byte	0
  64 002b 00       		.byte	0
  65 002c 00       		.byte	0
  66 002d 18       		.byte	24
  67 002e 3C       		.byte	60
  68 002f 3C       		.byte	60
  69 0030 3C       		.byte	60
  70 0031 18       		.byte	24
  71 0032 18       		.byte	24
  72 0033 00       		.byte	0
  73 0034 18       		.byte	24
  74 0035 18       		.byte	24
  75 0036 00       		.byte	0
  76 0037 00       		.byte	0
  77 0038 00       		.byte	0
  78 0039 66       		.byte	102
  79 003a 66       		.byte	102
  80 003b 66       		.byte	102
  81 003c 24       		.byte	36
  82 003d 00       		.byte	0
  83 003e 00       		.byte	0
  84 003f 00       		.byte	0
  85 0040 00       		.byte	0
  86 0041 00       		.byte	0
  87 0042 00       		.byte	0
  88 0043 00       		.byte	0
  89 0044 00       		.byte	0
  90 0045 00       		.byte	0
  91 0046 00       		.byte	0
  92 0047 00       		.byte	0
  93 0048 00       		.byte	0
  94 0049 6C       		.byte	108
  95 004a 6C       		.byte	108
  96 004b FE       		.byte	-2
  97 004c 6C       		.byte	108
  98 004d 6C       		.byte	108
  99 004e 6C       		.byte	108
 100 004f FE       		.byte	-2
 101 0050 6C       		.byte	108
 102 0051 6C       		.byte	108
 103 0052 00       		.byte	0
 104 0053 00       		.byte	0
 105 0054 00       		.byte	0
 106 0055 18       		.byte	24
 107 0056 18       		.byte	24
 108 0057 7C       		.byte	124
 109 0058 C6       		.byte	-58
 110 0059 C2       		.byte	-62
 111 005a C0       		.byte	-64
 112 005b 7C       		.byte	124
 113 005c 06       		.byte	6
 114 005d 86       		.byte	-122
ARM GAS  C:\Users\embedded\AppData\Local\Temp\cceTAOpi.s 			page 3


 115 005e C6       		.byte	-58
 116 005f 7C       		.byte	124
 117 0060 18       		.byte	24
 118 0061 18       		.byte	24
 119 0062 00       		.byte	0
 120 0063 00       		.byte	0
 121 0064 00       		.byte	0
 122 0065 00       		.byte	0
 123 0066 00       		.byte	0
 124 0067 C2       		.byte	-62
 125 0068 C6       		.byte	-58
 126 0069 0C       		.byte	12
 127 006a 18       		.byte	24
 128 006b 30       		.byte	48
 129 006c 66       		.byte	102
 130 006d C6       		.byte	-58
 131 006e 00       		.byte	0
 132 006f 00       		.byte	0
 133 0070 00       		.byte	0
 134 0071 00       		.byte	0
 135 0072 00       		.byte	0
 136 0073 38       		.byte	56
 137 0074 6C       		.byte	108
 138 0075 6C       		.byte	108
 139 0076 38       		.byte	56
 140 0077 76       		.byte	118
 141 0078 DC       		.byte	-36
 142 0079 CC       		.byte	-52
 143 007a CC       		.byte	-52
 144 007b 76       		.byte	118
 145 007c 00       		.byte	0
 146 007d 00       		.byte	0
 147 007e 00       		.byte	0
 148 007f 18       		.byte	24
 149 0080 18       		.byte	24
 150 0081 18       		.byte	24
 151 0082 30       		.byte	48
 152 0083 00       		.byte	0
 153 0084 00       		.byte	0
 154 0085 00       		.byte	0
 155 0086 00       		.byte	0
 156 0087 00       		.byte	0
 157 0088 00       		.byte	0
 158 0089 00       		.byte	0
 159 008a 00       		.byte	0
 160 008b 00       		.byte	0
 161 008c 00       		.byte	0
 162 008d 00       		.byte	0
 163 008e 00       		.byte	0
 164 008f 0C       		.byte	12
 165 0090 18       		.byte	24
 166 0091 30       		.byte	48
 167 0092 30       		.byte	48
 168 0093 30       		.byte	48
 169 0094 30       		.byte	48
 170 0095 30       		.byte	48
 171 0096 18       		.byte	24
ARM GAS  C:\Users\embedded\AppData\Local\Temp\cceTAOpi.s 			page 4


 172 0097 0C       		.byte	12
 173 0098 00       		.byte	0
 174 0099 00       		.byte	0
 175 009a 00       		.byte	0
 176 009b 00       		.byte	0
 177 009c 00       		.byte	0
 178 009d 30       		.byte	48
 179 009e 18       		.byte	24
 180 009f 0C       		.byte	12
 181 00a0 0C       		.byte	12
 182 00a1 0C       		.byte	12
 183 00a2 0C       		.byte	12
 184 00a3 0C       		.byte	12
 185 00a4 18       		.byte	24
 186 00a5 30       		.byte	48
 187 00a6 00       		.byte	0
 188 00a7 00       		.byte	0
 189 00a8 00       		.byte	0
 190 00a9 00       		.byte	0
 191 00aa 00       		.byte	0
 192 00ab 00       		.byte	0
 193 00ac 00       		.byte	0
 194 00ad 66       		.byte	102
 195 00ae 3C       		.byte	60
 196 00af FF       		.byte	-1
 197 00b0 3C       		.byte	60
 198 00b1 66       		.byte	102
 199 00b2 00       		.byte	0
 200 00b3 00       		.byte	0
 201 00b4 00       		.byte	0
 202 00b5 00       		.byte	0
 203 00b6 00       		.byte	0
 204 00b7 00       		.byte	0
 205 00b8 00       		.byte	0
 206 00b9 00       		.byte	0
 207 00ba 00       		.byte	0
 208 00bb 18       		.byte	24
 209 00bc 18       		.byte	24
 210 00bd 7E       		.byte	126
 211 00be 18       		.byte	24
 212 00bf 18       		.byte	24
 213 00c0 00       		.byte	0
 214 00c1 00       		.byte	0
 215 00c2 00       		.byte	0
 216 00c3 00       		.byte	0
 217 00c4 00       		.byte	0
 218 00c5 00       		.byte	0
 219 00c6 00       		.byte	0
 220 00c7 00       		.byte	0
 221 00c8 00       		.byte	0
 222 00c9 00       		.byte	0
 223 00ca 00       		.byte	0
 224 00cb 00       		.byte	0
 225 00cc 00       		.byte	0
 226 00cd 18       		.byte	24
 227 00ce 18       		.byte	24
 228 00cf 18       		.byte	24
ARM GAS  C:\Users\embedded\AppData\Local\Temp\cceTAOpi.s 			page 5


 229 00d0 30       		.byte	48
 230 00d1 00       		.byte	0
 231 00d2 00       		.byte	0
 232 00d3 00       		.byte	0
 233 00d4 00       		.byte	0
 234 00d5 00       		.byte	0
 235 00d6 00       		.byte	0
 236 00d7 00       		.byte	0
 237 00d8 00       		.byte	0
 238 00d9 FE       		.byte	-2
 239 00da 00       		.byte	0
 240 00db 00       		.byte	0
 241 00dc 00       		.byte	0
 242 00dd 00       		.byte	0
 243 00de 00       		.byte	0
 244 00df 00       		.byte	0
 245 00e0 00       		.byte	0
 246 00e1 00       		.byte	0
 247 00e2 00       		.byte	0
 248 00e3 00       		.byte	0
 249 00e4 00       		.byte	0
 250 00e5 00       		.byte	0
 251 00e6 00       		.byte	0
 252 00e7 00       		.byte	0
 253 00e8 00       		.byte	0
 254 00e9 00       		.byte	0
 255 00ea 18       		.byte	24
 256 00eb 18       		.byte	24
 257 00ec 00       		.byte	0
 258 00ed 00       		.byte	0
 259 00ee 00       		.byte	0
 260 00ef 00       		.byte	0
 261 00f0 00       		.byte	0
 262 00f1 02       		.byte	2
 263 00f2 06       		.byte	6
 264 00f3 0C       		.byte	12
 265 00f4 18       		.byte	24
 266 00f5 30       		.byte	48
 267 00f6 60       		.byte	96
 268 00f7 C0       		.byte	-64
 269 00f8 80       		.byte	-128
 270 00f9 00       		.byte	0
 271 00fa 00       		.byte	0
 272 00fb 00       		.byte	0
 273 00fc 00       		.byte	0
 274 00fd 00       		.byte	0
 275 00fe 00       		.byte	0
 276 00ff 38       		.byte	56
 277 0100 6C       		.byte	108
 278 0101 C6       		.byte	-58
 279 0102 C6       		.byte	-58
 280 0103 D6       		.byte	-42
 281 0104 C6       		.byte	-58
 282 0105 C6       		.byte	-58
 283 0106 6C       		.byte	108
 284 0107 38       		.byte	56
 285 0108 00       		.byte	0
ARM GAS  C:\Users\embedded\AppData\Local\Temp\cceTAOpi.s 			page 6


 286 0109 00       		.byte	0
 287 010a 00       		.byte	0
 288 010b 00       		.byte	0
 289 010c 00       		.byte	0
 290 010d 18       		.byte	24
 291 010e 38       		.byte	56
 292 010f 78       		.byte	120
 293 0110 18       		.byte	24
 294 0111 18       		.byte	24
 295 0112 18       		.byte	24
 296 0113 18       		.byte	24
 297 0114 18       		.byte	24
 298 0115 7E       		.byte	126
 299 0116 00       		.byte	0
 300 0117 00       		.byte	0
 301 0118 00       		.byte	0
 302 0119 00       		.byte	0
 303 011a 00       		.byte	0
 304 011b 7C       		.byte	124
 305 011c C6       		.byte	-58
 306 011d 06       		.byte	6
 307 011e 0C       		.byte	12
 308 011f 18       		.byte	24
 309 0120 30       		.byte	48
 310 0121 60       		.byte	96
 311 0122 C6       		.byte	-58
 312 0123 FE       		.byte	-2
 313 0124 00       		.byte	0
 314 0125 00       		.byte	0
 315 0126 00       		.byte	0
 316 0127 00       		.byte	0
 317 0128 00       		.byte	0
 318 0129 7C       		.byte	124
 319 012a C6       		.byte	-58
 320 012b 06       		.byte	6
 321 012c 06       		.byte	6
 322 012d 3C       		.byte	60
 323 012e 06       		.byte	6
 324 012f 06       		.byte	6
 325 0130 C6       		.byte	-58
 326 0131 7C       		.byte	124
 327 0132 00       		.byte	0
 328 0133 00       		.byte	0
 329 0134 00       		.byte	0
 330 0135 00       		.byte	0
 331 0136 00       		.byte	0
 332 0137 0C       		.byte	12
 333 0138 1C       		.byte	28
 334 0139 3C       		.byte	60
 335 013a 6C       		.byte	108
 336 013b CC       		.byte	-52
 337 013c FE       		.byte	-2
 338 013d 0C       		.byte	12
 339 013e 0C       		.byte	12
 340 013f 1E       		.byte	30
 341 0140 00       		.byte	0
 342 0141 00       		.byte	0
ARM GAS  C:\Users\embedded\AppData\Local\Temp\cceTAOpi.s 			page 7


 343 0142 00       		.byte	0
 344 0143 00       		.byte	0
 345 0144 00       		.byte	0
 346 0145 FE       		.byte	-2
 347 0146 C0       		.byte	-64
 348 0147 C0       		.byte	-64
 349 0148 C0       		.byte	-64
 350 0149 FC       		.byte	-4
 351 014a 06       		.byte	6
 352 014b 06       		.byte	6
 353 014c C6       		.byte	-58
 354 014d 7C       		.byte	124
 355 014e 00       		.byte	0
 356 014f 00       		.byte	0
 357 0150 00       		.byte	0
 358 0151 00       		.byte	0
 359 0152 00       		.byte	0
 360 0153 38       		.byte	56
 361 0154 60       		.byte	96
 362 0155 C0       		.byte	-64
 363 0156 C0       		.byte	-64
 364 0157 FC       		.byte	-4
 365 0158 C6       		.byte	-58
 366 0159 C6       		.byte	-58
 367 015a C6       		.byte	-58
 368 015b 7C       		.byte	124
 369 015c 00       		.byte	0
 370 015d 00       		.byte	0
 371 015e 00       		.byte	0
 372 015f 00       		.byte	0
 373 0160 00       		.byte	0
 374 0161 FE       		.byte	-2
 375 0162 C6       		.byte	-58
 376 0163 06       		.byte	6
 377 0164 0C       		.byte	12
 378 0165 18       		.byte	24
 379 0166 30       		.byte	48
 380 0167 30       		.byte	48
 381 0168 30       		.byte	48
 382 0169 30       		.byte	48
 383 016a 00       		.byte	0
 384 016b 00       		.byte	0
 385 016c 00       		.byte	0
 386 016d 00       		.byte	0
 387 016e 00       		.byte	0
 388 016f 7C       		.byte	124
 389 0170 C6       		.byte	-58
 390 0171 C6       		.byte	-58
 391 0172 C6       		.byte	-58
 392 0173 7C       		.byte	124
 393 0174 C6       		.byte	-58
 394 0175 C6       		.byte	-58
 395 0176 C6       		.byte	-58
 396 0177 7C       		.byte	124
 397 0178 00       		.byte	0
 398 0179 00       		.byte	0
 399 017a 00       		.byte	0
ARM GAS  C:\Users\embedded\AppData\Local\Temp\cceTAOpi.s 			page 8


 400 017b 00       		.byte	0
 401 017c 00       		.byte	0
 402 017d 7C       		.byte	124
 403 017e C6       		.byte	-58
 404 017f C6       		.byte	-58
 405 0180 C6       		.byte	-58
 406 0181 7E       		.byte	126
 407 0182 06       		.byte	6
 408 0183 06       		.byte	6
 409 0184 0C       		.byte	12
 410 0185 78       		.byte	120
 411 0186 00       		.byte	0
 412 0187 00       		.byte	0
 413 0188 00       		.byte	0
 414 0189 00       		.byte	0
 415 018a 00       		.byte	0
 416 018b 00       		.byte	0
 417 018c 18       		.byte	24
 418 018d 18       		.byte	24
 419 018e 00       		.byte	0
 420 018f 00       		.byte	0
 421 0190 00       		.byte	0
 422 0191 18       		.byte	24
 423 0192 18       		.byte	24
 424 0193 00       		.byte	0
 425 0194 00       		.byte	0
 426 0195 00       		.byte	0
 427 0196 00       		.byte	0
 428 0197 00       		.byte	0
 429 0198 00       		.byte	0
 430 0199 00       		.byte	0
 431 019a 18       		.byte	24
 432 019b 18       		.byte	24
 433 019c 00       		.byte	0
 434 019d 00       		.byte	0
 435 019e 00       		.byte	0
 436 019f 18       		.byte	24
 437 01a0 18       		.byte	24
 438 01a1 30       		.byte	48
 439 01a2 00       		.byte	0
 440 01a3 00       		.byte	0
 441 01a4 00       		.byte	0
 442 01a5 00       		.byte	0
 443 01a6 00       		.byte	0
 444 01a7 0C       		.byte	12
 445 01a8 18       		.byte	24
 446 01a9 30       		.byte	48
 447 01aa 60       		.byte	96
 448 01ab C0       		.byte	-64
 449 01ac 60       		.byte	96
 450 01ad 30       		.byte	48
 451 01ae 18       		.byte	24
 452 01af 0C       		.byte	12
 453 01b0 00       		.byte	0
 454 01b1 00       		.byte	0
 455 01b2 00       		.byte	0
 456 01b3 00       		.byte	0
ARM GAS  C:\Users\embedded\AppData\Local\Temp\cceTAOpi.s 			page 9


 457 01b4 00       		.byte	0
 458 01b5 00       		.byte	0
 459 01b6 00       		.byte	0
 460 01b7 00       		.byte	0
 461 01b8 7E       		.byte	126
 462 01b9 00       		.byte	0
 463 01ba 00       		.byte	0
 464 01bb 7E       		.byte	126
 465 01bc 00       		.byte	0
 466 01bd 00       		.byte	0
 467 01be 00       		.byte	0
 468 01bf 00       		.byte	0
 469 01c0 00       		.byte	0
 470 01c1 00       		.byte	0
 471 01c2 00       		.byte	0
 472 01c3 60       		.byte	96
 473 01c4 30       		.byte	48
 474 01c5 18       		.byte	24
 475 01c6 0C       		.byte	12
 476 01c7 06       		.byte	6
 477 01c8 0C       		.byte	12
 478 01c9 18       		.byte	24
 479 01ca 30       		.byte	48
 480 01cb 60       		.byte	96
 481 01cc 00       		.byte	0
 482 01cd 00       		.byte	0
 483 01ce 00       		.byte	0
 484 01cf 00       		.byte	0
 485 01d0 00       		.byte	0
 486 01d1 7C       		.byte	124
 487 01d2 C6       		.byte	-58
 488 01d3 C6       		.byte	-58
 489 01d4 0C       		.byte	12
 490 01d5 18       		.byte	24
 491 01d6 18       		.byte	24
 492 01d7 00       		.byte	0
 493 01d8 18       		.byte	24
 494 01d9 18       		.byte	24
 495 01da 00       		.byte	0
 496 01db 00       		.byte	0
 497 01dc 00       		.byte	0
 498 01dd 00       		.byte	0
 499 01de 00       		.byte	0
 500 01df 7C       		.byte	124
 501 01e0 C6       		.byte	-58
 502 01e1 C6       		.byte	-58
 503 01e2 DE       		.byte	-34
 504 01e3 DE       		.byte	-34
 505 01e4 DE       		.byte	-34
 506 01e5 DC       		.byte	-36
 507 01e6 C0       		.byte	-64
 508 01e7 7C       		.byte	124
 509 01e8 00       		.byte	0
 510 01e9 00       		.byte	0
 511 01ea 00       		.byte	0
 512 01eb 00       		.byte	0
 513 01ec 00       		.byte	0
ARM GAS  C:\Users\embedded\AppData\Local\Temp\cceTAOpi.s 			page 10


 514 01ed 10       		.byte	16
 515 01ee 38       		.byte	56
 516 01ef 6C       		.byte	108
 517 01f0 C6       		.byte	-58
 518 01f1 C6       		.byte	-58
 519 01f2 FE       		.byte	-2
 520 01f3 C6       		.byte	-58
 521 01f4 C6       		.byte	-58
 522 01f5 C6       		.byte	-58
 523 01f6 00       		.byte	0
 524 01f7 00       		.byte	0
 525 01f8 00       		.byte	0
 526 01f9 00       		.byte	0
 527 01fa 00       		.byte	0
 528 01fb FC       		.byte	-4
 529 01fc 66       		.byte	102
 530 01fd 66       		.byte	102
 531 01fe 66       		.byte	102
 532 01ff 7C       		.byte	124
 533 0200 66       		.byte	102
 534 0201 66       		.byte	102
 535 0202 66       		.byte	102
 536 0203 FC       		.byte	-4
 537 0204 00       		.byte	0
 538 0205 00       		.byte	0
 539 0206 00       		.byte	0
 540 0207 00       		.byte	0
 541 0208 00       		.byte	0
 542 0209 3C       		.byte	60
 543 020a 66       		.byte	102
 544 020b C2       		.byte	-62
 545 020c C0       		.byte	-64
 546 020d C0       		.byte	-64
 547 020e C0       		.byte	-64
 548 020f C2       		.byte	-62
 549 0210 66       		.byte	102
 550 0211 3C       		.byte	60
 551 0212 00       		.byte	0
 552 0213 00       		.byte	0
 553 0214 00       		.byte	0
 554 0215 00       		.byte	0
 555 0216 00       		.byte	0
 556 0217 F8       		.byte	-8
 557 0218 6C       		.byte	108
 558 0219 66       		.byte	102
 559 021a 66       		.byte	102
 560 021b 66       		.byte	102
 561 021c 66       		.byte	102
 562 021d 66       		.byte	102
 563 021e 6C       		.byte	108
 564 021f F8       		.byte	-8
 565 0220 00       		.byte	0
 566 0221 00       		.byte	0
 567 0222 00       		.byte	0
 568 0223 00       		.byte	0
 569 0224 00       		.byte	0
 570 0225 FE       		.byte	-2
ARM GAS  C:\Users\embedded\AppData\Local\Temp\cceTAOpi.s 			page 11


 571 0226 66       		.byte	102
 572 0227 62       		.byte	98
 573 0228 68       		.byte	104
 574 0229 78       		.byte	120
 575 022a 68       		.byte	104
 576 022b 62       		.byte	98
 577 022c 66       		.byte	102
 578 022d FE       		.byte	-2
 579 022e 00       		.byte	0
 580 022f 00       		.byte	0
 581 0230 00       		.byte	0
 582 0231 00       		.byte	0
 583 0232 00       		.byte	0
 584 0233 FE       		.byte	-2
 585 0234 66       		.byte	102
 586 0235 62       		.byte	98
 587 0236 68       		.byte	104
 588 0237 78       		.byte	120
 589 0238 68       		.byte	104
 590 0239 60       		.byte	96
 591 023a 60       		.byte	96
 592 023b F0       		.byte	-16
 593 023c 00       		.byte	0
 594 023d 00       		.byte	0
 595 023e 00       		.byte	0
 596 023f 00       		.byte	0
 597 0240 00       		.byte	0
 598 0241 3C       		.byte	60
 599 0242 66       		.byte	102
 600 0243 C2       		.byte	-62
 601 0244 C0       		.byte	-64
 602 0245 C0       		.byte	-64
 603 0246 DE       		.byte	-34
 604 0247 C6       		.byte	-58
 605 0248 66       		.byte	102
 606 0249 3A       		.byte	58
 607 024a 00       		.byte	0
 608 024b 00       		.byte	0
 609 024c 00       		.byte	0
 610 024d 00       		.byte	0
 611 024e 00       		.byte	0
 612 024f C6       		.byte	-58
 613 0250 C6       		.byte	-58
 614 0251 C6       		.byte	-58
 615 0252 C6       		.byte	-58
 616 0253 FE       		.byte	-2
 617 0254 C6       		.byte	-58
 618 0255 C6       		.byte	-58
 619 0256 C6       		.byte	-58
 620 0257 C6       		.byte	-58
 621 0258 00       		.byte	0
 622 0259 00       		.byte	0
 623 025a 00       		.byte	0
 624 025b 00       		.byte	0
 625 025c 00       		.byte	0
 626 025d 3C       		.byte	60
 627 025e 18       		.byte	24
ARM GAS  C:\Users\embedded\AppData\Local\Temp\cceTAOpi.s 			page 12


 628 025f 18       		.byte	24
 629 0260 18       		.byte	24
 630 0261 18       		.byte	24
 631 0262 18       		.byte	24
 632 0263 18       		.byte	24
 633 0264 18       		.byte	24
 634 0265 3C       		.byte	60
 635 0266 00       		.byte	0
 636 0267 00       		.byte	0
 637 0268 00       		.byte	0
 638 0269 00       		.byte	0
 639 026a 00       		.byte	0
 640 026b 1E       		.byte	30
 641 026c 0C       		.byte	12
 642 026d 0C       		.byte	12
 643 026e 0C       		.byte	12
 644 026f 0C       		.byte	12
 645 0270 0C       		.byte	12
 646 0271 CC       		.byte	-52
 647 0272 CC       		.byte	-52
 648 0273 78       		.byte	120
 649 0274 00       		.byte	0
 650 0275 00       		.byte	0
 651 0276 00       		.byte	0
 652 0277 00       		.byte	0
 653 0278 00       		.byte	0
 654 0279 E6       		.byte	-26
 655 027a 66       		.byte	102
 656 027b 6C       		.byte	108
 657 027c 6C       		.byte	108
 658 027d 78       		.byte	120
 659 027e 6C       		.byte	108
 660 027f 6C       		.byte	108
 661 0280 66       		.byte	102
 662 0281 E6       		.byte	-26
 663 0282 00       		.byte	0
 664 0283 00       		.byte	0
 665 0284 00       		.byte	0
 666 0285 00       		.byte	0
 667 0286 00       		.byte	0
 668 0287 F0       		.byte	-16
 669 0288 60       		.byte	96
 670 0289 60       		.byte	96
 671 028a 60       		.byte	96
 672 028b 60       		.byte	96
 673 028c 60       		.byte	96
 674 028d 62       		.byte	98
 675 028e 66       		.byte	102
 676 028f FE       		.byte	-2
 677 0290 00       		.byte	0
 678 0291 00       		.byte	0
 679 0292 00       		.byte	0
 680 0293 00       		.byte	0
 681 0294 00       		.byte	0
 682 0295 C6       		.byte	-58
 683 0296 EE       		.byte	-18
 684 0297 FE       		.byte	-2
ARM GAS  C:\Users\embedded\AppData\Local\Temp\cceTAOpi.s 			page 13


 685 0298 D6       		.byte	-42
 686 0299 C6       		.byte	-58
 687 029a C6       		.byte	-58
 688 029b C6       		.byte	-58
 689 029c C6       		.byte	-58
 690 029d C6       		.byte	-58
 691 029e 00       		.byte	0
 692 029f 00       		.byte	0
 693 02a0 00       		.byte	0
 694 02a1 00       		.byte	0
 695 02a2 00       		.byte	0
 696 02a3 C6       		.byte	-58
 697 02a4 E6       		.byte	-26
 698 02a5 F6       		.byte	-10
 699 02a6 FE       		.byte	-2
 700 02a7 DE       		.byte	-34
 701 02a8 CE       		.byte	-50
 702 02a9 C6       		.byte	-58
 703 02aa C6       		.byte	-58
 704 02ab C6       		.byte	-58
 705 02ac 00       		.byte	0
 706 02ad 00       		.byte	0
 707 02ae 00       		.byte	0
 708 02af 00       		.byte	0
 709 02b0 00       		.byte	0
 710 02b1 7C       		.byte	124
 711 02b2 C6       		.byte	-58
 712 02b3 C6       		.byte	-58
 713 02b4 C6       		.byte	-58
 714 02b5 C6       		.byte	-58
 715 02b6 C6       		.byte	-58
 716 02b7 C6       		.byte	-58
 717 02b8 C6       		.byte	-58
 718 02b9 7C       		.byte	124
 719 02ba 00       		.byte	0
 720 02bb 00       		.byte	0
 721 02bc 00       		.byte	0
 722 02bd 00       		.byte	0
 723 02be 00       		.byte	0
 724 02bf FC       		.byte	-4
 725 02c0 66       		.byte	102
 726 02c1 66       		.byte	102
 727 02c2 66       		.byte	102
 728 02c3 7C       		.byte	124
 729 02c4 60       		.byte	96
 730 02c5 60       		.byte	96
 731 02c6 60       		.byte	96
 732 02c7 F0       		.byte	-16
 733 02c8 00       		.byte	0
 734 02c9 00       		.byte	0
 735 02ca 00       		.byte	0
 736 02cb 00       		.byte	0
 737 02cc 00       		.byte	0
 738 02cd 7C       		.byte	124
 739 02ce C6       		.byte	-58
 740 02cf C6       		.byte	-58
 741 02d0 C6       		.byte	-58
ARM GAS  C:\Users\embedded\AppData\Local\Temp\cceTAOpi.s 			page 14


 742 02d1 C6       		.byte	-58
 743 02d2 C6       		.byte	-58
 744 02d3 D6       		.byte	-42
 745 02d4 DE       		.byte	-34
 746 02d5 7C       		.byte	124
 747 02d6 0E       		.byte	14
 748 02d7 00       		.byte	0
 749 02d8 00       		.byte	0
 750 02d9 00       		.byte	0
 751 02da 00       		.byte	0
 752 02db FC       		.byte	-4
 753 02dc 66       		.byte	102
 754 02dd 66       		.byte	102
 755 02de 66       		.byte	102
 756 02df 7C       		.byte	124
 757 02e0 6C       		.byte	108
 758 02e1 66       		.byte	102
 759 02e2 66       		.byte	102
 760 02e3 E6       		.byte	-26
 761 02e4 00       		.byte	0
 762 02e5 00       		.byte	0
 763 02e6 00       		.byte	0
 764 02e7 00       		.byte	0
 765 02e8 00       		.byte	0
 766 02e9 7C       		.byte	124
 767 02ea C6       		.byte	-58
 768 02eb C6       		.byte	-58
 769 02ec 60       		.byte	96
 770 02ed 38       		.byte	56
 771 02ee 0C       		.byte	12
 772 02ef C6       		.byte	-58
 773 02f0 C6       		.byte	-58
 774 02f1 7C       		.byte	124
 775 02f2 00       		.byte	0
 776 02f3 00       		.byte	0
 777 02f4 00       		.byte	0
 778 02f5 00       		.byte	0
 779 02f6 00       		.byte	0
 780 02f7 7E       		.byte	126
 781 02f8 7E       		.byte	126
 782 02f9 5A       		.byte	90
 783 02fa 18       		.byte	24
 784 02fb 18       		.byte	24
 785 02fc 18       		.byte	24
 786 02fd 18       		.byte	24
 787 02fe 18       		.byte	24
 788 02ff 3C       		.byte	60
 789 0300 00       		.byte	0
 790 0301 00       		.byte	0
 791 0302 00       		.byte	0
 792 0303 00       		.byte	0
 793 0304 00       		.byte	0
 794 0305 C6       		.byte	-58
 795 0306 C6       		.byte	-58
 796 0307 C6       		.byte	-58
 797 0308 C6       		.byte	-58
 798 0309 C6       		.byte	-58
ARM GAS  C:\Users\embedded\AppData\Local\Temp\cceTAOpi.s 			page 15


 799 030a C6       		.byte	-58
 800 030b C6       		.byte	-58
 801 030c C6       		.byte	-58
 802 030d 7C       		.byte	124
 803 030e 00       		.byte	0
 804 030f 00       		.byte	0
 805 0310 00       		.byte	0
 806 0311 00       		.byte	0
 807 0312 00       		.byte	0
 808 0313 C6       		.byte	-58
 809 0314 C6       		.byte	-58
 810 0315 C6       		.byte	-58
 811 0316 C6       		.byte	-58
 812 0317 C6       		.byte	-58
 813 0318 C6       		.byte	-58
 814 0319 6C       		.byte	108
 815 031a 38       		.byte	56
 816 031b 10       		.byte	16
 817 031c 00       		.byte	0
 818 031d 00       		.byte	0
 819 031e 00       		.byte	0
 820 031f 00       		.byte	0
 821 0320 00       		.byte	0
 822 0321 C6       		.byte	-58
 823 0322 C6       		.byte	-58
 824 0323 C6       		.byte	-58
 825 0324 C6       		.byte	-58
 826 0325 D6       		.byte	-42
 827 0326 D6       		.byte	-42
 828 0327 FE       		.byte	-2
 829 0328 6C       		.byte	108
 830 0329 6C       		.byte	108
 831 032a 00       		.byte	0
 832 032b 00       		.byte	0
 833 032c 00       		.byte	0
 834 032d 00       		.byte	0
 835 032e 00       		.byte	0
 836 032f C6       		.byte	-58
 837 0330 C6       		.byte	-58
 838 0331 C6       		.byte	-58
 839 0332 7C       		.byte	124
 840 0333 38       		.byte	56
 841 0334 7C       		.byte	124
 842 0335 C6       		.byte	-58
 843 0336 C6       		.byte	-58
 844 0337 C6       		.byte	-58
 845 0338 00       		.byte	0
 846 0339 00       		.byte	0
 847 033a 00       		.byte	0
 848 033b 00       		.byte	0
 849 033c 00       		.byte	0
 850 033d 66       		.byte	102
 851 033e 66       		.byte	102
 852 033f 66       		.byte	102
 853 0340 66       		.byte	102
 854 0341 3C       		.byte	60
 855 0342 18       		.byte	24
ARM GAS  C:\Users\embedded\AppData\Local\Temp\cceTAOpi.s 			page 16


 856 0343 18       		.byte	24
 857 0344 18       		.byte	24
 858 0345 3C       		.byte	60
 859 0346 00       		.byte	0
 860 0347 00       		.byte	0
 861 0348 00       		.byte	0
 862 0349 00       		.byte	0
 863 034a 00       		.byte	0
 864 034b FE       		.byte	-2
 865 034c C6       		.byte	-58
 866 034d 8C       		.byte	-116
 867 034e 18       		.byte	24
 868 034f 30       		.byte	48
 869 0350 60       		.byte	96
 870 0351 C2       		.byte	-62
 871 0352 C6       		.byte	-58
 872 0353 FE       		.byte	-2
 873 0354 00       		.byte	0
 874 0355 00       		.byte	0
 875 0356 00       		.byte	0
 876 0357 00       		.byte	0
 877 0358 00       		.byte	0
 878 0359 3C       		.byte	60
 879 035a 30       		.byte	48
 880 035b 30       		.byte	48
 881 035c 30       		.byte	48
 882 035d 30       		.byte	48
 883 035e 30       		.byte	48
 884 035f 30       		.byte	48
 885 0360 30       		.byte	48
 886 0361 3C       		.byte	60
 887 0362 00       		.byte	0
 888 0363 00       		.byte	0
 889 0364 00       		.byte	0
 890 0365 00       		.byte	0
 891 0366 00       		.byte	0
 892 0367 80       		.byte	-128
 893 0368 C0       		.byte	-64
 894 0369 E0       		.byte	-32
 895 036a 70       		.byte	112
 896 036b 38       		.byte	56
 897 036c 1C       		.byte	28
 898 036d 0E       		.byte	14
 899 036e 06       		.byte	6
 900 036f 02       		.byte	2
 901 0370 00       		.byte	0
 902 0371 00       		.byte	0
 903 0372 00       		.byte	0
 904 0373 00       		.byte	0
 905 0374 00       		.byte	0
 906 0375 3C       		.byte	60
 907 0376 0C       		.byte	12
 908 0377 0C       		.byte	12
 909 0378 0C       		.byte	12
 910 0379 0C       		.byte	12
 911 037a 0C       		.byte	12
 912 037b 0C       		.byte	12
ARM GAS  C:\Users\embedded\AppData\Local\Temp\cceTAOpi.s 			page 17


 913 037c 0C       		.byte	12
 914 037d 3C       		.byte	60
 915 037e 00       		.byte	0
 916 037f 00       		.byte	0
 917 0380 10       		.byte	16
 918 0381 38       		.byte	56
 919 0382 6C       		.byte	108
 920 0383 C6       		.byte	-58
 921 0384 00       		.byte	0
 922 0385 00       		.byte	0
 923 0386 00       		.byte	0
 924 0387 00       		.byte	0
 925 0388 00       		.byte	0
 926 0389 00       		.byte	0
 927 038a 00       		.byte	0
 928 038b 00       		.byte	0
 929 038c 00       		.byte	0
 930 038d 00       		.byte	0
 931 038e 00       		.byte	0
 932 038f 00       		.byte	0
 933 0390 00       		.byte	0
 934 0391 00       		.byte	0
 935 0392 00       		.byte	0
 936 0393 00       		.byte	0
 937 0394 00       		.byte	0
 938 0395 00       		.byte	0
 939 0396 00       		.byte	0
 940 0397 00       		.byte	0
 941 0398 00       		.byte	0
 942 0399 00       		.byte	0
 943 039a 00       		.byte	0
 944 039b FF       		.byte	-1
 945 039c 00       		.byte	0
 946 039d 30       		.byte	48
 947 039e 18       		.byte	24
 948 039f 0C       		.byte	12
 949 03a0 00       		.byte	0
 950 03a1 00       		.byte	0
 951 03a2 00       		.byte	0
 952 03a3 00       		.byte	0
 953 03a4 00       		.byte	0
 954 03a5 00       		.byte	0
 955 03a6 00       		.byte	0
 956 03a7 00       		.byte	0
 957 03a8 00       		.byte	0
 958 03a9 00       		.byte	0
 959 03aa 00       		.byte	0
 960 03ab 00       		.byte	0
 961 03ac 00       		.byte	0
 962 03ad 00       		.byte	0
 963 03ae 00       		.byte	0
 964 03af 00       		.byte	0
 965 03b0 78       		.byte	120
 966 03b1 0C       		.byte	12
 967 03b2 7C       		.byte	124
 968 03b3 CC       		.byte	-52
 969 03b4 CC       		.byte	-52
ARM GAS  C:\Users\embedded\AppData\Local\Temp\cceTAOpi.s 			page 18


 970 03b5 76       		.byte	118
 971 03b6 00       		.byte	0
 972 03b7 00       		.byte	0
 973 03b8 00       		.byte	0
 974 03b9 00       		.byte	0
 975 03ba 00       		.byte	0
 976 03bb E0       		.byte	-32
 977 03bc 60       		.byte	96
 978 03bd 60       		.byte	96
 979 03be 78       		.byte	120
 980 03bf 6C       		.byte	108
 981 03c0 66       		.byte	102
 982 03c1 66       		.byte	102
 983 03c2 66       		.byte	102
 984 03c3 7C       		.byte	124
 985 03c4 00       		.byte	0
 986 03c5 00       		.byte	0
 987 03c6 00       		.byte	0
 988 03c7 00       		.byte	0
 989 03c8 00       		.byte	0
 990 03c9 00       		.byte	0
 991 03ca 00       		.byte	0
 992 03cb 00       		.byte	0
 993 03cc 7C       		.byte	124
 994 03cd C6       		.byte	-58
 995 03ce C0       		.byte	-64
 996 03cf C0       		.byte	-64
 997 03d0 C6       		.byte	-58
 998 03d1 7C       		.byte	124
 999 03d2 00       		.byte	0
 1000 03d3 00       		.byte	0
 1001 03d4 00       		.byte	0
 1002 03d5 00       		.byte	0
 1003 03d6 00       		.byte	0
 1004 03d7 1C       		.byte	28
 1005 03d8 0C       		.byte	12
 1006 03d9 0C       		.byte	12
 1007 03da 3C       		.byte	60
 1008 03db 6C       		.byte	108
 1009 03dc CC       		.byte	-52
 1010 03dd CC       		.byte	-52
 1011 03de CC       		.byte	-52
 1012 03df 76       		.byte	118
 1013 03e0 00       		.byte	0
 1014 03e1 00       		.byte	0
 1015 03e2 00       		.byte	0
 1016 03e3 00       		.byte	0
 1017 03e4 00       		.byte	0
 1018 03e5 00       		.byte	0
 1019 03e6 00       		.byte	0
 1020 03e7 00       		.byte	0
 1021 03e8 7C       		.byte	124
 1022 03e9 C6       		.byte	-58
 1023 03ea FE       		.byte	-2
 1024 03eb C0       		.byte	-64
 1025 03ec C6       		.byte	-58
 1026 03ed 7C       		.byte	124
ARM GAS  C:\Users\embedded\AppData\Local\Temp\cceTAOpi.s 			page 19


 1027 03ee 00       		.byte	0
 1028 03ef 00       		.byte	0
 1029 03f0 00       		.byte	0
 1030 03f1 00       		.byte	0
 1031 03f2 00       		.byte	0
 1032 03f3 1C       		.byte	28
 1033 03f4 36       		.byte	54
 1034 03f5 32       		.byte	50
 1035 03f6 30       		.byte	48
 1036 03f7 7C       		.byte	124
 1037 03f8 30       		.byte	48
 1038 03f9 30       		.byte	48
 1039 03fa 30       		.byte	48
 1040 03fb 78       		.byte	120
 1041 03fc 00       		.byte	0
 1042 03fd 00       		.byte	0
 1043 03fe 00       		.byte	0
 1044 03ff 00       		.byte	0
 1045 0400 00       		.byte	0
 1046 0401 00       		.byte	0
 1047 0402 00       		.byte	0
 1048 0403 00       		.byte	0
 1049 0404 76       		.byte	118
 1050 0405 CC       		.byte	-52
 1051 0406 CC       		.byte	-52
 1052 0407 CC       		.byte	-52
 1053 0408 7C       		.byte	124
 1054 0409 0C       		.byte	12
 1055 040a CC       		.byte	-52
 1056 040b 78       		.byte	120
 1057 040c 00       		.byte	0
 1058 040d 00       		.byte	0
 1059 040e 00       		.byte	0
 1060 040f E0       		.byte	-32
 1061 0410 60       		.byte	96
 1062 0411 60       		.byte	96
 1063 0412 6C       		.byte	108
 1064 0413 76       		.byte	118
 1065 0414 66       		.byte	102
 1066 0415 66       		.byte	102
 1067 0416 66       		.byte	102
 1068 0417 E6       		.byte	-26
 1069 0418 00       		.byte	0
 1070 0419 00       		.byte	0
 1071 041a 00       		.byte	0
 1072 041b 00       		.byte	0
 1073 041c 00       		.byte	0
 1074 041d 18       		.byte	24
 1075 041e 18       		.byte	24
 1076 041f 00       		.byte	0
 1077 0420 38       		.byte	56
 1078 0421 18       		.byte	24
 1079 0422 18       		.byte	24
 1080 0423 18       		.byte	24
 1081 0424 18       		.byte	24
 1082 0425 3C       		.byte	60
 1083 0426 00       		.byte	0
ARM GAS  C:\Users\embedded\AppData\Local\Temp\cceTAOpi.s 			page 20


 1084 0427 00       		.byte	0
 1085 0428 00       		.byte	0
 1086 0429 00       		.byte	0
 1087 042a 00       		.byte	0
 1088 042b 06       		.byte	6
 1089 042c 06       		.byte	6
 1090 042d 00       		.byte	0
 1091 042e 0E       		.byte	14
 1092 042f 06       		.byte	6
 1093 0430 06       		.byte	6
 1094 0431 06       		.byte	6
 1095 0432 06       		.byte	6
 1096 0433 66       		.byte	102
 1097 0434 66       		.byte	102
 1098 0435 3C       		.byte	60
 1099 0436 00       		.byte	0
 1100 0437 00       		.byte	0
 1101 0438 00       		.byte	0
 1102 0439 E0       		.byte	-32
 1103 043a 60       		.byte	96
 1104 043b 60       		.byte	96
 1105 043c 66       		.byte	102
 1106 043d 6C       		.byte	108
 1107 043e 78       		.byte	120
 1108 043f 6C       		.byte	108
 1109 0440 66       		.byte	102
 1110 0441 E6       		.byte	-26
 1111 0442 00       		.byte	0
 1112 0443 00       		.byte	0
 1113 0444 00       		.byte	0
 1114 0445 00       		.byte	0
 1115 0446 00       		.byte	0
 1116 0447 38       		.byte	56
 1117 0448 18       		.byte	24
 1118 0449 18       		.byte	24
 1119 044a 18       		.byte	24
 1120 044b 18       		.byte	24
 1121 044c 18       		.byte	24
 1122 044d 18       		.byte	24
 1123 044e 18       		.byte	24
 1124 044f 3C       		.byte	60
 1125 0450 00       		.byte	0
 1126 0451 00       		.byte	0
 1127 0452 00       		.byte	0
 1128 0453 00       		.byte	0
 1129 0454 00       		.byte	0
 1130 0455 00       		.byte	0
 1131 0456 00       		.byte	0
 1132 0457 00       		.byte	0
 1133 0458 EC       		.byte	-20
 1134 0459 FE       		.byte	-2
 1135 045a D6       		.byte	-42
 1136 045b D6       		.byte	-42
 1137 045c D6       		.byte	-42
 1138 045d D6       		.byte	-42
 1139 045e 00       		.byte	0
 1140 045f 00       		.byte	0
ARM GAS  C:\Users\embedded\AppData\Local\Temp\cceTAOpi.s 			page 21


 1141 0460 00       		.byte	0
 1142 0461 00       		.byte	0
 1143 0462 00       		.byte	0
 1144 0463 00       		.byte	0
 1145 0464 00       		.byte	0
 1146 0465 00       		.byte	0
 1147 0466 DC       		.byte	-36
 1148 0467 66       		.byte	102
 1149 0468 66       		.byte	102
 1150 0469 66       		.byte	102
 1151 046a 66       		.byte	102
 1152 046b 66       		.byte	102
 1153 046c 00       		.byte	0
 1154 046d 00       		.byte	0
 1155 046e 00       		.byte	0
 1156 046f 00       		.byte	0
 1157 0470 00       		.byte	0
 1158 0471 00       		.byte	0
 1159 0472 00       		.byte	0
 1160 0473 00       		.byte	0
 1161 0474 7C       		.byte	124
 1162 0475 C6       		.byte	-58
 1163 0476 C6       		.byte	-58
 1164 0477 C6       		.byte	-58
 1165 0478 C6       		.byte	-58
 1166 0479 7C       		.byte	124
 1167 047a 00       		.byte	0
 1168 047b 00       		.byte	0
 1169 047c 00       		.byte	0
 1170 047d 00       		.byte	0
 1171 047e 00       		.byte	0
 1172 047f 00       		.byte	0
 1173 0480 00       		.byte	0
 1174 0481 00       		.byte	0
 1175 0482 DC       		.byte	-36
 1176 0483 66       		.byte	102
 1177 0484 66       		.byte	102
 1178 0485 66       		.byte	102
 1179 0486 7C       		.byte	124
 1180 0487 60       		.byte	96
 1181 0488 60       		.byte	96
 1182 0489 F0       		.byte	-16
 1183 048a 00       		.byte	0
 1184 048b 00       		.byte	0
 1185 048c 00       		.byte	0
 1186 048d 00       		.byte	0
 1187 048e 00       		.byte	0
 1188 048f 00       		.byte	0
 1189 0490 76       		.byte	118
 1190 0491 CC       		.byte	-52
 1191 0492 CC       		.byte	-52
 1192 0493 CC       		.byte	-52
 1193 0494 7C       		.byte	124
 1194 0495 0C       		.byte	12
 1195 0496 0C       		.byte	12
 1196 0497 1E       		.byte	30
 1197 0498 00       		.byte	0
ARM GAS  C:\Users\embedded\AppData\Local\Temp\cceTAOpi.s 			page 22


 1198 0499 00       		.byte	0
 1199 049a 00       		.byte	0
 1200 049b 00       		.byte	0
 1201 049c 00       		.byte	0
 1202 049d 00       		.byte	0
 1203 049e DC       		.byte	-36
 1204 049f 76       		.byte	118
 1205 04a0 66       		.byte	102
 1206 04a1 60       		.byte	96
 1207 04a2 60       		.byte	96
 1208 04a3 F0       		.byte	-16
 1209 04a4 00       		.byte	0
 1210 04a5 00       		.byte	0
 1211 04a6 00       		.byte	0
 1212 04a7 00       		.byte	0
 1213 04a8 00       		.byte	0
 1214 04a9 00       		.byte	0
 1215 04aa 00       		.byte	0
 1216 04ab 00       		.byte	0
 1217 04ac 7C       		.byte	124
 1218 04ad C6       		.byte	-58
 1219 04ae 70       		.byte	112
 1220 04af 1C       		.byte	28
 1221 04b0 C6       		.byte	-58
 1222 04b1 7C       		.byte	124
 1223 04b2 00       		.byte	0
 1224 04b3 00       		.byte	0
 1225 04b4 00       		.byte	0
 1226 04b5 00       		.byte	0
 1227 04b6 00       		.byte	0
 1228 04b7 10       		.byte	16
 1229 04b8 30       		.byte	48
 1230 04b9 30       		.byte	48
 1231 04ba FC       		.byte	-4
 1232 04bb 30       		.byte	48
 1233 04bc 30       		.byte	48
 1234 04bd 30       		.byte	48
 1235 04be 36       		.byte	54
 1236 04bf 1C       		.byte	28
 1237 04c0 00       		.byte	0
 1238 04c1 00       		.byte	0
 1239 04c2 00       		.byte	0
 1240 04c3 00       		.byte	0
 1241 04c4 00       		.byte	0
 1242 04c5 00       		.byte	0
 1243 04c6 00       		.byte	0
 1244 04c7 00       		.byte	0
 1245 04c8 CC       		.byte	-52
 1246 04c9 CC       		.byte	-52
 1247 04ca CC       		.byte	-52
 1248 04cb CC       		.byte	-52
 1249 04cc CC       		.byte	-52
 1250 04cd 76       		.byte	118
 1251 04ce 00       		.byte	0
 1252 04cf 00       		.byte	0
 1253 04d0 00       		.byte	0
 1254 04d1 00       		.byte	0
ARM GAS  C:\Users\embedded\AppData\Local\Temp\cceTAOpi.s 			page 23


 1255 04d2 00       		.byte	0
 1256 04d3 00       		.byte	0
 1257 04d4 00       		.byte	0
 1258 04d5 00       		.byte	0
 1259 04d6 C6       		.byte	-58
 1260 04d7 C6       		.byte	-58
 1261 04d8 C6       		.byte	-58
 1262 04d9 6C       		.byte	108
 1263 04da 38       		.byte	56
 1264 04db 10       		.byte	16
 1265 04dc 00       		.byte	0
 1266 04dd 00       		.byte	0
 1267 04de 00       		.byte	0
 1268 04df 00       		.byte	0
 1269 04e0 00       		.byte	0
 1270 04e1 00       		.byte	0
 1271 04e2 00       		.byte	0
 1272 04e3 00       		.byte	0
 1273 04e4 C6       		.byte	-58
 1274 04e5 C6       		.byte	-58
 1275 04e6 D6       		.byte	-42
 1276 04e7 D6       		.byte	-42
 1277 04e8 FE       		.byte	-2
 1278 04e9 6C       		.byte	108
 1279 04ea 00       		.byte	0
 1280 04eb 00       		.byte	0
 1281 04ec 00       		.byte	0
 1282 04ed 00       		.byte	0
 1283 04ee 00       		.byte	0
 1284 04ef 00       		.byte	0
 1285 04f0 00       		.byte	0
 1286 04f1 00       		.byte	0
 1287 04f2 C6       		.byte	-58
 1288 04f3 6C       		.byte	108
 1289 04f4 38       		.byte	56
 1290 04f5 38       		.byte	56
 1291 04f6 6C       		.byte	108
 1292 04f7 C6       		.byte	-58
 1293 04f8 00       		.byte	0
 1294 04f9 00       		.byte	0
 1295 04fa 00       		.byte	0
 1296 04fb 00       		.byte	0
 1297 04fc 00       		.byte	0
 1298 04fd 00       		.byte	0
 1299 04fe 00       		.byte	0
 1300 04ff 00       		.byte	0
 1301 0500 C6       		.byte	-58
 1302 0501 C6       		.byte	-58
 1303 0502 C6       		.byte	-58
 1304 0503 C6       		.byte	-58
 1305 0504 7E       		.byte	126
 1306 0505 06       		.byte	6
 1307 0506 0C       		.byte	12
 1308 0507 78       		.byte	120
 1309 0508 00       		.byte	0
 1310 0509 00       		.byte	0
 1311 050a 00       		.byte	0
ARM GAS  C:\Users\embedded\AppData\Local\Temp\cceTAOpi.s 			page 24


 1312 050b 00       		.byte	0
 1313 050c 00       		.byte	0
 1314 050d 00       		.byte	0
 1315 050e FE       		.byte	-2
 1316 050f CC       		.byte	-52
 1317 0510 18       		.byte	24
 1318 0511 30       		.byte	48
 1319 0512 66       		.byte	102
 1320 0513 FE       		.byte	-2
 1321 0514 00       		.byte	0
 1322 0515 00       		.byte	0
 1323 0516 00       		.byte	0
 1324 0517 00       		.byte	0
 1325 0518 00       		.byte	0
 1326 0519 0E       		.byte	14
 1327 051a 18       		.byte	24
 1328 051b 18       		.byte	24
 1329 051c 18       		.byte	24
 1330 051d 70       		.byte	112
 1331 051e 18       		.byte	24
 1332 051f 18       		.byte	24
 1333 0520 18       		.byte	24
 1334 0521 0E       		.byte	14
 1335 0522 00       		.byte	0
 1336 0523 00       		.byte	0
 1337 0524 00       		.byte	0
 1338 0525 00       		.byte	0
 1339 0526 00       		.byte	0
 1340 0527 18       		.byte	24
 1341 0528 18       		.byte	24
 1342 0529 18       		.byte	24
 1343 052a 18       		.byte	24
 1344 052b 18       		.byte	24
 1345 052c 18       		.byte	24
 1346 052d 18       		.byte	24
 1347 052e 18       		.byte	24
 1348 052f 18       		.byte	24
 1349 0530 00       		.byte	0
 1350 0531 00       		.byte	0
 1351 0532 00       		.byte	0
 1352 0533 00       		.byte	0
 1353 0534 00       		.byte	0
 1354 0535 70       		.byte	112
 1355 0536 18       		.byte	24
 1356 0537 18       		.byte	24
 1357 0538 18       		.byte	24
 1358 0539 0E       		.byte	14
 1359 053a 18       		.byte	24
 1360 053b 18       		.byte	24
 1361 053c 18       		.byte	24
 1362 053d 70       		.byte	112
 1363 053e 00       		.byte	0
 1364 053f 00       		.byte	0
 1365 0540 00       		.byte	0
 1366 0541 76       		.byte	118
 1367 0542 DC       		.byte	-36
 1368 0543 00       		.byte	0
ARM GAS  C:\Users\embedded\AppData\Local\Temp\cceTAOpi.s 			page 25


 1369 0544 00       		.byte	0
 1370 0545 00       		.byte	0
 1371 0546 00       		.byte	0
 1372 0547 00       		.byte	0
 1373 0548 00       		.byte	0
 1374 0549 00       		.byte	0
 1375 054a 00       		.byte	0
 1376 054b 00       		.byte	0
 1377 054c 00       		.byte	0
 1378 054d 00       		.byte	0
 1379 054e 00       		.byte	0
 1380 054f 00       		.byte	0
 1381 0550 00       		.byte	0
 1382 0551 00       		.byte	0
 1383 0552 00       		.byte	0
 1384 0553 10       		.byte	16
 1385 0554 38       		.byte	56
 1386 0555 6C       		.byte	108
 1387 0556 C6       		.byte	-58
 1388 0557 C6       		.byte	-58
 1389 0558 FE       		.byte	-2
 1390 0559 00       		.byte	0
 1391 055a 00       		.byte	0
 1392 055b 00       		.byte	0
 1393              		.bss
 1394              	lcd_x:
 1395 0000 00       		.space	1
 1396              		.size	lcd_x, 1
 1397              	lcd_y:
 1398 0001 00       		.space	1
 1399              		.size	lcd_y, 1
 1400              	bkgColor:
 1401 0002 00       		.space	1
 1402              		.size	bkgColor, 1
 1403              	textColor:
 1404 0003 00       		.space	1
 1405              		.size	textColor, 1
 1406              	setcolmark:
 1407 0004 00       		.space	1
 1408              		.size	setcolmark, 1
 1409              		.text
 1410              		.align	1
 1411              		.global	lcdInit
 1412              		.syntax unified
 1413              		.code	16
 1414              		.thumb_func
 1415              		.fpu softvfp
 1416              		.type	lcdInit, %function
 1417              	lcdInit:
 1418              	.LFB0:
 1419              		.file 1 "lcd.c"
   1:lcd.c         **** /******************************************************************************
   2:lcd.c         ****  *
   3:lcd.c         ****  * Copyright:
   4:lcd.c         ****  *    (C) 2006 Embedded Artists AB
   5:lcd.c         ****  *
   6:lcd.c         ****  * File:
ARM GAS  C:\Users\embedded\AppData\Local\Temp\cceTAOpi.s 			page 26


   7:lcd.c         ****  *    lcd.c
   8:lcd.c         ****  *
   9:lcd.c         ****  * Description:
  10:lcd.c         ****  *    Implements routines for the LCD.
  11:lcd.c         ****  *
  12:lcd.c         ****  *****************************************************************************/
  13:lcd.c         **** 
  14:lcd.c         **** /******************************************************************************
  15:lcd.c         ****  * Includes
  16:lcd.c         ****  *****************************************************************************/
  17:lcd.c         **** //#include "../pre_emptive_os/api/general.h"
  18:lcd.c         **** //#include "../pre_emptive_os/api/osapi.h"
  19:lcd.c         **** #include "lcd.h"
  20:lcd.c         **** #include "ascii.h"
  21:lcd.c         **** #include "lcd_hw.h"
  22:lcd.c         **** 
  23:lcd.c         **** 
  24:lcd.c         **** /******************************************************************************
  25:lcd.c         ****  * Typedefs and defines
  26:lcd.c         ****  *****************************************************************************/
  27:lcd.c         **** #define LCD_CMD_SWRESET   0x01
  28:lcd.c         **** #define LCD_CMD_BSTRON    0x03
  29:lcd.c         **** #define LCD_CMD_SLEEPIN   0x10
  30:lcd.c         **** #define LCD_CMD_SLEEPOUT  0x11
  31:lcd.c         **** #define LCD_CMD_INVON     0x21
  32:lcd.c         **** #define LCD_CMD_SETCON    0x25
  33:lcd.c         **** #define LCD_CMD_DISPON    0x29
  34:lcd.c         **** #define LCD_CMD_CASET     0x2A
  35:lcd.c         **** #define LCD_CMD_PASET     0x2B
  36:lcd.c         **** #define LCD_CMD_RAMWR     0x2C
  37:lcd.c         **** #define LCD_CMD_RGBSET    0x2D
  38:lcd.c         **** #define LCD_CMD_MADCTL    0x36
  39:lcd.c         **** #define LCD_CMD_COLMOD    0x3A
  40:lcd.c         **** 
  41:lcd.c         **** #define MADCTL_HORIZ      0x48
  42:lcd.c         **** #define MADCTL_VERT       0x68
  43:lcd.c         **** 
  44:lcd.c         **** 
  45:lcd.c         **** extern void sdelay (tU32 seconds);
  46:lcd.c         **** 
  47:lcd.c         **** /*****************************************************************************
  48:lcd.c         ****  * Local variables
  49:lcd.c         ****  ****************************************************************************/
  50:lcd.c         **** static tU8 lcd_x;
  51:lcd.c         **** static tU8 lcd_y;
  52:lcd.c         **** static tU8 bkgColor;
  53:lcd.c         **** static tU8 textColor;
  54:lcd.c         **** static tU8 setcolmark;
  55:lcd.c         **** 
  56:lcd.c         **** /*****************************************************************************
  57:lcd.c         ****  * Local prototypes
  58:lcd.c         ****  ****************************************************************************/
  59:lcd.c         **** static void lcdWindow1(tU8 xp, tU8 yp, tU8 xe, tU8 ye);
  60:lcd.c         **** 
  61:lcd.c         **** 
  62:lcd.c         **** /*****************************************************************************
  63:lcd.c         ****  *
ARM GAS  C:\Users\embedded\AppData\Local\Temp\cceTAOpi.s 			page 27


  64:lcd.c         ****  * Description:
  65:lcd.c         ****  *    Initialize the LCD controller and SPI interface
  66:lcd.c         ****  *    (0,0) is top left and (129,129) is bottom right
  67:lcd.c         ****  *    8 bits Color mode uses RRRGGGBB layout
  68:lcd.c         ****  *
  69:lcd.c         ****  ****************************************************************************/
  70:lcd.c         **** void
  71:lcd.c         **** lcdInit(void)
  72:lcd.c         **** {
 1420              		.loc 1 72 0
 1421              		.cfi_startproc
 1422              		@ Function supports interworking.
 1423              		@ args = 0, pretend = 0, frame = 0
 1424              		@ frame_needed = 1, uses_anonymous_args = 0
 1425 0000 80B5     		push	{r7, lr}
 1426              	.LCFI0:
 1427              		.cfi_def_cfa_offset 8
 1428              		.cfi_offset 7, -8
 1429              		.cfi_offset 14, -4
 1430 0002 00AF     		add	r7, sp, #0
 1431              	.LCFI1:
 1432              		.cfi_def_cfa_register 7
  73:lcd.c         ****   bkgColor  = 0;
 1433              		.loc 1 73 0
 1434 0004 3B4B     		ldr	r3, .L2
 1435 0006 0022     		movs	r2, #0
 1436 0008 1A70     		strb	r2, [r3]
  74:lcd.c         ****   textColor = 0;
 1437              		.loc 1 74 0
 1438 000a 3B4B     		ldr	r3, .L2+4
 1439 000c 0022     		movs	r2, #0
 1440 000e 1A70     		strb	r2, [r3]
  75:lcd.c         ****   
  76:lcd.c         ****   //init SPI interface
  77:lcd.c         ****   initSpiForLcd();
 1441              		.loc 1 77 0
 1442 0010 FFF7FEFF 		bl	initSpiForLcd
  78:lcd.c         ****   
  79:lcd.c         ****   //select controller
  80:lcd.c         ****   selectLCD(TRUE);
 1443              		.loc 1 80 0
 1444 0014 0120     		movs	r0, #1
 1445 0016 FFF7FEFF 		bl	selectLCD
  81:lcd.c         **** 
  82:lcd.c         **** 	lcdWrcmd(LCD_CMD_SWRESET);
 1446              		.loc 1 82 0
 1447 001a 0120     		movs	r0, #1
 1448 001c FFF7FEFF 		bl	lcdWrcmd
  83:lcd.c         **** 
  84:lcd.c         **** 	sdelay(1);
 1449              		.loc 1 84 0
 1450 0020 0120     		movs	r0, #1
 1451 0022 FFF7FEFF 		bl	sdelay
  85:lcd.c         **** 	lcdWrcmd(LCD_CMD_SLEEPOUT);
 1452              		.loc 1 85 0
 1453 0026 1120     		movs	r0, #17
 1454 0028 FFF7FEFF 		bl	lcdWrcmd
ARM GAS  C:\Users\embedded\AppData\Local\Temp\cceTAOpi.s 			page 28


  86:lcd.c         **** 	lcdWrcmd(LCD_CMD_DISPON);
 1455              		.loc 1 86 0
 1456 002c 2920     		movs	r0, #41
 1457 002e FFF7FEFF 		bl	lcdWrcmd
  87:lcd.c         **** 	lcdWrcmd(LCD_CMD_BSTRON);
 1458              		.loc 1 87 0
 1459 0032 0320     		movs	r0, #3
 1460 0034 FFF7FEFF 		bl	lcdWrcmd
  88:lcd.c         **** 	sdelay(1);
 1461              		.loc 1 88 0
 1462 0038 0120     		movs	r0, #1
 1463 003a FFF7FEFF 		bl	sdelay
  89:lcd.c         **** 		
  90:lcd.c         **** 	lcdWrcmd(LCD_CMD_MADCTL);   //Memory data acces control
 1464              		.loc 1 90 0
 1465 003e 3620     		movs	r0, #54
 1466 0040 FFF7FEFF 		bl	lcdWrcmd
  91:lcd.c         **** 	lcdWrdata(MADCTL_HORIZ);    //X Mirror and BGR format
 1467              		.loc 1 91 0
 1468 0044 4820     		movs	r0, #72
 1469 0046 FFF7FEFF 		bl	lcdWrdata
  92:lcd.c         **** 	lcdWrcmd(LCD_CMD_COLMOD);   //Colour mode
 1470              		.loc 1 92 0
 1471 004a 3A20     		movs	r0, #58
 1472 004c FFF7FEFF 		bl	lcdWrcmd
  93:lcd.c         **** 	lcdWrdata(0x02);            //256 colour mode select
 1473              		.loc 1 93 0
 1474 0050 0220     		movs	r0, #2
 1475 0052 FFF7FEFF 		bl	lcdWrdata
  94:lcd.c         **** 	lcdWrcmd(LCD_CMD_INVON);    //Non Invert mode
 1476              		.loc 1 94 0
 1477 0056 2120     		movs	r0, #33
 1478 0058 FFF7FEFF 		bl	lcdWrcmd
  95:lcd.c         **** 
  96:lcd.c         **** 	lcdWrcmd(LCD_CMD_RGBSET);   //LUT write
 1479              		.loc 1 96 0
 1480 005c 2D20     		movs	r0, #45
 1481 005e FFF7FEFF 		bl	lcdWrcmd
  97:lcd.c         ****   lcdWrdata(0);               //Red
 1482              		.loc 1 97 0
 1483 0062 0020     		movs	r0, #0
 1484 0064 FFF7FEFF 		bl	lcdWrdata
  98:lcd.c         ****   lcdWrdata(2);
 1485              		.loc 1 98 0
 1486 0068 0220     		movs	r0, #2
 1487 006a FFF7FEFF 		bl	lcdWrdata
  99:lcd.c         ****   lcdWrdata(4);
 1488              		.loc 1 99 0
 1489 006e 0420     		movs	r0, #4
 1490 0070 FFF7FEFF 		bl	lcdWrdata
 100:lcd.c         ****   lcdWrdata(6);
 1491              		.loc 1 100 0
 1492 0074 0620     		movs	r0, #6
 1493 0076 FFF7FEFF 		bl	lcdWrdata
 101:lcd.c         ****   lcdWrdata(9);
 1494              		.loc 1 101 0
 1495 007a 0920     		movs	r0, #9
ARM GAS  C:\Users\embedded\AppData\Local\Temp\cceTAOpi.s 			page 29


 1496 007c FFF7FEFF 		bl	lcdWrdata
 102:lcd.c         ****   lcdWrdata(11);
 1497              		.loc 1 102 0
 1498 0080 0B20     		movs	r0, #11
 1499 0082 FFF7FEFF 		bl	lcdWrdata
 103:lcd.c         ****   lcdWrdata(13);
 1500              		.loc 1 103 0
 1501 0086 0D20     		movs	r0, #13
 1502 0088 FFF7FEFF 		bl	lcdWrdata
 104:lcd.c         ****   lcdWrdata(15);
 1503              		.loc 1 104 0
 1504 008c 0F20     		movs	r0, #15
 1505 008e FFF7FEFF 		bl	lcdWrdata
 105:lcd.c         ****   lcdWrdata(0);               //Green
 1506              		.loc 1 105 0
 1507 0092 0020     		movs	r0, #0
 1508 0094 FFF7FEFF 		bl	lcdWrdata
 106:lcd.c         ****   lcdWrdata(2);
 1509              		.loc 1 106 0
 1510 0098 0220     		movs	r0, #2
 1511 009a FFF7FEFF 		bl	lcdWrdata
 107:lcd.c         ****   lcdWrdata(4);
 1512              		.loc 1 107 0
 1513 009e 0420     		movs	r0, #4
 1514 00a0 FFF7FEFF 		bl	lcdWrdata
 108:lcd.c         ****   lcdWrdata(6);
 1515              		.loc 1 108 0
 1516 00a4 0620     		movs	r0, #6
 1517 00a6 FFF7FEFF 		bl	lcdWrdata
 109:lcd.c         ****   lcdWrdata(9);
 1518              		.loc 1 109 0
 1519 00aa 0920     		movs	r0, #9
 1520 00ac FFF7FEFF 		bl	lcdWrdata
 110:lcd.c         ****   lcdWrdata(11);
 1521              		.loc 1 110 0
 1522 00b0 0B20     		movs	r0, #11
 1523 00b2 FFF7FEFF 		bl	lcdWrdata
 111:lcd.c         ****   lcdWrdata(13);
 1524              		.loc 1 111 0
 1525 00b6 0D20     		movs	r0, #13
 1526 00b8 FFF7FEFF 		bl	lcdWrdata
 112:lcd.c         ****   lcdWrdata(15);
 1527              		.loc 1 112 0
 1528 00bc 0F20     		movs	r0, #15
 1529 00be FFF7FEFF 		bl	lcdWrdata
 113:lcd.c         ****   lcdWrdata(0);               //Blue
 1530              		.loc 1 113 0
 1531 00c2 0020     		movs	r0, #0
 1532 00c4 FFF7FEFF 		bl	lcdWrdata
 114:lcd.c         ****   lcdWrdata(6);
 1533              		.loc 1 114 0
 1534 00c8 0620     		movs	r0, #6
 1535 00ca FFF7FEFF 		bl	lcdWrdata
 115:lcd.c         **** 	lcdWrdata(10);
 1536              		.loc 1 115 0
 1537 00ce 0A20     		movs	r0, #10
 1538 00d0 FFF7FEFF 		bl	lcdWrdata
ARM GAS  C:\Users\embedded\AppData\Local\Temp\cceTAOpi.s 			page 30


 116:lcd.c         **** 	lcdWrdata(15);
 1539              		.loc 1 116 0
 1540 00d4 0F20     		movs	r0, #15
 1541 00d6 FFF7FEFF 		bl	lcdWrdata
 117:lcd.c         **** 
 118:lcd.c         ****   //deselect controller
 119:lcd.c         ****   selectLCD(FALSE);
 1542              		.loc 1 119 0
 1543 00da 0020     		movs	r0, #0
 1544 00dc FFF7FEFF 		bl	selectLCD
 120:lcd.c         **** 
 121:lcd.c         **** 	lcdContrast(56);
 1545              		.loc 1 121 0
 1546 00e0 3820     		movs	r0, #56
 1547 00e2 FFF7FEFF 		bl	lcdContrast
 122:lcd.c         **** 
 123:lcd.c         **** 	lcdClrscr();
 1548              		.loc 1 123 0
 1549 00e6 FFF7FEFF 		bl	lcdClrscr
 124:lcd.c         **** }
 1550              		.loc 1 124 0
 1551 00ea C046     		nop
 1552 00ec BD46     		mov	sp, r7
 1553              		@ sp needed
 1554 00ee 80BC     		pop	{r7}
 1555 00f0 01BC     		pop	{r0}
 1556 00f2 0047     		bx	r0
 1557              	.L3:
 1558              		.align	2
 1559              	.L2:
 1560 00f4 02000000 		.word	bkgColor
 1561 00f8 03000000 		.word	textColor
 1562              		.cfi_endproc
 1563              	.LFE0:
 1564              		.size	lcdInit, .-lcdInit
 1565              		.align	1
 1566              		.global	lcdClrscr
 1567              		.syntax unified
 1568              		.code	16
 1569              		.thumb_func
 1570              		.fpu softvfp
 1571              		.type	lcdClrscr, %function
 1572              	lcdClrscr:
 1573              	.LFB1:
 125:lcd.c         **** 
 126:lcd.c         **** 
 127:lcd.c         **** /*****************************************************************************
 128:lcd.c         ****  *
 129:lcd.c         ****  * Description:
 130:lcd.c         ****  *    Clear screen (with current background color)
 131:lcd.c         ****  *
 132:lcd.c         ****  ****************************************************************************/
 133:lcd.c         **** void
 134:lcd.c         **** lcdClrscr(void)
 135:lcd.c         **** {
 1574              		.loc 1 135 0
 1575              		.cfi_startproc
ARM GAS  C:\Users\embedded\AppData\Local\Temp\cceTAOpi.s 			page 31


 1576              		@ Function supports interworking.
 1577              		@ args = 0, pretend = 0, frame = 8
 1578              		@ frame_needed = 1, uses_anonymous_args = 0
 1579 00fc 80B5     		push	{r7, lr}
 1580              	.LCFI2:
 1581              		.cfi_def_cfa_offset 8
 1582              		.cfi_offset 7, -8
 1583              		.cfi_offset 14, -4
 1584 00fe 82B0     		sub	sp, sp, #8
 1585              	.LCFI3:
 1586              		.cfi_def_cfa_offset 16
 1587 0100 00AF     		add	r7, sp, #0
 1588              	.LCFI4:
 1589              		.cfi_def_cfa_register 7
 136:lcd.c         ****   tU32 i;
 137:lcd.c         **** 
 138:lcd.c         **** 	lcd_x = 0;
 1590              		.loc 1 138 0
 1591 0102 154B     		ldr	r3, .L7
 1592 0104 0022     		movs	r2, #0
 1593 0106 1A70     		strb	r2, [r3]
 139:lcd.c         ****   lcd_y = 0;
 1594              		.loc 1 139 0
 1595 0108 144B     		ldr	r3, .L7+4
 1596 010a 0022     		movs	r2, #0
 1597 010c 1A70     		strb	r2, [r3]
 140:lcd.c         **** 
 141:lcd.c         ****   //select controller
 142:lcd.c         ****   selectLCD(TRUE);   
 1598              		.loc 1 142 0
 1599 010e 0120     		movs	r0, #1
 1600 0110 FFF7FEFF 		bl	selectLCD
 143:lcd.c         **** 
 144:lcd.c         ****   lcdWindow1(255,255,128,128);
 1601              		.loc 1 144 0
 1602 0114 8023     		movs	r3, #128
 1603 0116 8022     		movs	r2, #128
 1604 0118 FF21     		movs	r1, #255
 1605 011a FF20     		movs	r0, #255
 1606 011c 00F058FA 		bl	lcdWindow1
 145:lcd.c         ****   
 146:lcd.c         ****   lcdWrcmd(LCD_CMD_RAMWR);    //write memory
 1607              		.loc 1 146 0
 1608 0120 2C20     		movs	r0, #44
 1609 0122 FFF7FEFF 		bl	lcdWrcmd
 147:lcd.c         ****   
 148:lcd.c         ****   for(i=0; i<16900; i++)
 1610              		.loc 1 148 0
 1611 0126 0023     		movs	r3, #0
 1612 0128 7B60     		str	r3, [r7, #4]
 1613 012a 07E0     		b	.L5
 1614              	.L6:
 149:lcd.c         ****     lcdWrdata(bkgColor);
 1615              		.loc 1 149 0 discriminator 3
 1616 012c 0C4B     		ldr	r3, .L7+8
 1617 012e 1B78     		ldrb	r3, [r3]
 1618 0130 1800     		movs	r0, r3
ARM GAS  C:\Users\embedded\AppData\Local\Temp\cceTAOpi.s 			page 32


 1619 0132 FFF7FEFF 		bl	lcdWrdata
 148:lcd.c         ****     lcdWrdata(bkgColor);
 1620              		.loc 1 148 0 discriminator 3
 1621 0136 7B68     		ldr	r3, [r7, #4]
 1622 0138 0133     		adds	r3, r3, #1
 1623 013a 7B60     		str	r3, [r7, #4]
 1624              	.L5:
 148:lcd.c         ****     lcdWrdata(bkgColor);
 1625              		.loc 1 148 0 is_stmt 0 discriminator 1
 1626 013c 7B68     		ldr	r3, [r7, #4]
 1627 013e 094A     		ldr	r2, .L7+12
 1628 0140 9342     		cmp	r3, r2
 1629 0142 F3D9     		bls	.L6
 150:lcd.c         **** 
 151:lcd.c         ****   //deselect controller
 152:lcd.c         ****   selectLCD(FALSE);
 1630              		.loc 1 152 0 is_stmt 1
 1631 0144 0020     		movs	r0, #0
 1632 0146 FFF7FEFF 		bl	selectLCD
 153:lcd.c         **** }
 1633              		.loc 1 153 0
 1634 014a C046     		nop
 1635 014c BD46     		mov	sp, r7
 1636 014e 02B0     		add	sp, sp, #8
 1637              		@ sp needed
 1638 0150 80BC     		pop	{r7}
 1639 0152 01BC     		pop	{r0}
 1640 0154 0047     		bx	r0
 1641              	.L8:
 1642 0156 C046     		.align	2
 1643              	.L7:
 1644 0158 00000000 		.word	lcd_x
 1645 015c 01000000 		.word	lcd_y
 1646 0160 02000000 		.word	bkgColor
 1647 0164 03420000 		.word	16899
 1648              		.cfi_endproc
 1649              	.LFE1:
 1650              		.size	lcdClrscr, .-lcdClrscr
 1651              		.align	1
 1652              		.global	lcdOff
 1653              		.syntax unified
 1654              		.code	16
 1655              		.thumb_func
 1656              		.fpu softvfp
 1657              		.type	lcdOff, %function
 1658              	lcdOff:
 1659              	.LFB2:
 154:lcd.c         **** 
 155:lcd.c         **** 
 156:lcd.c         **** /*****************************************************************************
 157:lcd.c         ****  *
 158:lcd.c         ****  * Description:
 159:lcd.c         ****  *    Shut down the LCD controller
 160:lcd.c         ****  *
 161:lcd.c         ****  ****************************************************************************/
 162:lcd.c         **** void
 163:lcd.c         **** lcdOff(void)
ARM GAS  C:\Users\embedded\AppData\Local\Temp\cceTAOpi.s 			page 33


 164:lcd.c         **** {
 1660              		.loc 1 164 0
 1661              		.cfi_startproc
 1662              		@ Function supports interworking.
 1663              		@ args = 0, pretend = 0, frame = 0
 1664              		@ frame_needed = 1, uses_anonymous_args = 0
 1665 0168 80B5     		push	{r7, lr}
 1666              	.LCFI5:
 1667              		.cfi_def_cfa_offset 8
 1668              		.cfi_offset 7, -8
 1669              		.cfi_offset 14, -4
 1670 016a 00AF     		add	r7, sp, #0
 1671              	.LCFI6:
 1672              		.cfi_def_cfa_register 7
 165:lcd.c         ****   lcdClrscr();
 1673              		.loc 1 165 0
 1674 016c FFF7FEFF 		bl	lcdClrscr
 166:lcd.c         **** 
 167:lcd.c         ****   //select controller
 168:lcd.c         ****   selectLCD(TRUE);   
 1675              		.loc 1 168 0
 1676 0170 0120     		movs	r0, #1
 1677 0172 FFF7FEFF 		bl	selectLCD
 169:lcd.c         **** 
 170:lcd.c         ****   lcdWrcmd(LCD_CMD_SLEEPIN);
 1678              		.loc 1 170 0
 1679 0176 1020     		movs	r0, #16
 1680 0178 FFF7FEFF 		bl	lcdWrcmd
 171:lcd.c         **** 
 172:lcd.c         ****   //deselect controller
 173:lcd.c         ****   selectLCD(FALSE);
 1681              		.loc 1 173 0
 1682 017c 0020     		movs	r0, #0
 1683 017e FFF7FEFF 		bl	selectLCD
 174:lcd.c         **** }
 1684              		.loc 1 174 0
 1685 0182 C046     		nop
 1686 0184 BD46     		mov	sp, r7
 1687              		@ sp needed
 1688 0186 80BC     		pop	{r7}
 1689 0188 01BC     		pop	{r0}
 1690 018a 0047     		bx	r0
 1691              		.cfi_endproc
 1692              	.LFE2:
 1693              		.size	lcdOff, .-lcdOff
 1694              		.align	1
 1695              		.global	lcdColor
 1696              		.syntax unified
 1697              		.code	16
 1698              		.thumb_func
 1699              		.fpu softvfp
 1700              		.type	lcdColor, %function
 1701              	lcdColor:
 1702              	.LFB3:
 175:lcd.c         **** 
 176:lcd.c         **** 
 177:lcd.c         **** /*****************************************************************************
ARM GAS  C:\Users\embedded\AppData\Local\Temp\cceTAOpi.s 			page 34


 178:lcd.c         ****  *
 179:lcd.c         ****  * Description:
 180:lcd.c         ****  *    Set current foreground and background color
 181:lcd.c         ****  *
 182:lcd.c         ****  ****************************************************************************/
 183:lcd.c         **** void
 184:lcd.c         **** lcdColor(tU8 bkg, tU8 text)
 185:lcd.c         **** {
 1703              		.loc 1 185 0
 1704              		.cfi_startproc
 1705              		@ Function supports interworking.
 1706              		@ args = 0, pretend = 0, frame = 8
 1707              		@ frame_needed = 1, uses_anonymous_args = 0
 1708 018c 80B5     		push	{r7, lr}
 1709              	.LCFI7:
 1710              		.cfi_def_cfa_offset 8
 1711              		.cfi_offset 7, -8
 1712              		.cfi_offset 14, -4
 1713 018e 82B0     		sub	sp, sp, #8
 1714              	.LCFI8:
 1715              		.cfi_def_cfa_offset 16
 1716 0190 00AF     		add	r7, sp, #0
 1717              	.LCFI9:
 1718              		.cfi_def_cfa_register 7
 1719 0192 0200     		movs	r2, r0
 1720 0194 FB1D     		adds	r3, r7, #7
 1721 0196 1A70     		strb	r2, [r3]
 1722 0198 BB1D     		adds	r3, r7, #6
 1723 019a 0A1C     		adds	r2, r1, #0
 1724 019c 1A70     		strb	r2, [r3]
 186:lcd.c         ****   bkgColor  = bkg;
 1725              		.loc 1 186 0
 1726 019e 074B     		ldr	r3, .L11
 1727 01a0 FA1D     		adds	r2, r7, #7
 1728 01a2 1278     		ldrb	r2, [r2]
 1729 01a4 1A70     		strb	r2, [r3]
 187:lcd.c         ****   textColor = text;
 1730              		.loc 1 187 0
 1731 01a6 064B     		ldr	r3, .L11+4
 1732 01a8 BA1D     		adds	r2, r7, #6
 1733 01aa 1278     		ldrb	r2, [r2]
 1734 01ac 1A70     		strb	r2, [r3]
 188:lcd.c         **** }
 1735              		.loc 1 188 0
 1736 01ae C046     		nop
 1737 01b0 BD46     		mov	sp, r7
 1738 01b2 02B0     		add	sp, sp, #8
 1739              		@ sp needed
 1740 01b4 80BC     		pop	{r7}
 1741 01b6 01BC     		pop	{r0}
 1742 01b8 0047     		bx	r0
 1743              	.L12:
 1744 01ba C046     		.align	2
 1745              	.L11:
 1746 01bc 02000000 		.word	bkgColor
 1747 01c0 03000000 		.word	textColor
 1748              		.cfi_endproc
ARM GAS  C:\Users\embedded\AppData\Local\Temp\cceTAOpi.s 			page 35


 1749              	.LFE3:
 1750              		.size	lcdColor, .-lcdColor
 1751              		.align	1
 1752              		.global	lcdContrast
 1753              		.syntax unified
 1754              		.code	16
 1755              		.thumb_func
 1756              		.fpu softvfp
 1757              		.type	lcdContrast, %function
 1758              	lcdContrast:
 1759              	.LFB4:
 189:lcd.c         **** 
 190:lcd.c         **** 
 191:lcd.c         **** /*****************************************************************************
 192:lcd.c         ****  *
 193:lcd.c         ****  * Description:
 194:lcd.c         ****  *    Set display contrast
 195:lcd.c         ****  *
 196:lcd.c         ****  ****************************************************************************/
 197:lcd.c         **** void
 198:lcd.c         **** lcdContrast(tU8 cont) //vary between 0 - 127
 199:lcd.c         **** {
 1760              		.loc 1 199 0
 1761              		.cfi_startproc
 1762              		@ Function supports interworking.
 1763              		@ args = 0, pretend = 0, frame = 8
 1764              		@ frame_needed = 1, uses_anonymous_args = 0
 1765 01c4 80B5     		push	{r7, lr}
 1766              	.LCFI10:
 1767              		.cfi_def_cfa_offset 8
 1768              		.cfi_offset 7, -8
 1769              		.cfi_offset 14, -4
 1770 01c6 82B0     		sub	sp, sp, #8
 1771              	.LCFI11:
 1772              		.cfi_def_cfa_offset 16
 1773 01c8 00AF     		add	r7, sp, #0
 1774              	.LCFI12:
 1775              		.cfi_def_cfa_register 7
 1776 01ca 0200     		movs	r2, r0
 1777 01cc FB1D     		adds	r3, r7, #7
 1778 01ce 1A70     		strb	r2, [r3]
 200:lcd.c         ****   //select controller
 201:lcd.c         ****   selectLCD(TRUE);
 1779              		.loc 1 201 0
 1780 01d0 0120     		movs	r0, #1
 1781 01d2 FFF7FEFF 		bl	selectLCD
 202:lcd.c         **** 
 203:lcd.c         ****   //set contrast cmd.
 204:lcd.c         ****   lcdWrcmd(LCD_CMD_SETCON);
 1782              		.loc 1 204 0
 1783 01d6 2520     		movs	r0, #37
 1784 01d8 FFF7FEFF 		bl	lcdWrcmd
 205:lcd.c         **** 	lcdWrdata(cont);
 1785              		.loc 1 205 0
 1786 01dc FB1D     		adds	r3, r7, #7
 1787 01de 1B78     		ldrb	r3, [r3]
 1788 01e0 1800     		movs	r0, r3
ARM GAS  C:\Users\embedded\AppData\Local\Temp\cceTAOpi.s 			page 36


 1789 01e2 FFF7FEFF 		bl	lcdWrdata
 206:lcd.c         **** 
 207:lcd.c         ****   //deselect controller
 208:lcd.c         ****   selectLCD(FALSE);
 1790              		.loc 1 208 0
 1791 01e6 0020     		movs	r0, #0
 1792 01e8 FFF7FEFF 		bl	selectLCD
 209:lcd.c         **** }
 1793              		.loc 1 209 0
 1794 01ec C046     		nop
 1795 01ee BD46     		mov	sp, r7
 1796 01f0 02B0     		add	sp, sp, #8
 1797              		@ sp needed
 1798 01f2 80BC     		pop	{r7}
 1799 01f4 01BC     		pop	{r0}
 1800 01f6 0047     		bx	r0
 1801              		.cfi_endproc
 1802              	.LFE4:
 1803              		.size	lcdContrast, .-lcdContrast
 1804              		.align	1
 1805              		.global	lcdRect
 1806              		.syntax unified
 1807              		.code	16
 1808              		.thumb_func
 1809              		.fpu softvfp
 1810              		.type	lcdRect, %function
 1811              	lcdRect:
 1812              	.LFB5:
 210:lcd.c         **** 
 211:lcd.c         **** 
 212:lcd.c         **** /*****************************************************************************
 213:lcd.c         ****  *
 214:lcd.c         ****  * Description:
 215:lcd.c         ****  *    Draw a rectangular area with specified color.
 216:lcd.c         ****  *
 217:lcd.c         ****  ****************************************************************************/
 218:lcd.c         **** void
 219:lcd.c         **** lcdRect(tU8 x, tU8 y, tU8 xLen, tU8 yLen, tU8 color)
 220:lcd.c         **** {
 1813              		.loc 1 220 0
 1814              		.cfi_startproc
 1815              		@ Function supports interworking.
 1816              		@ args = 4, pretend = 0, frame = 16
 1817              		@ frame_needed = 1, uses_anonymous_args = 0
 1818 01f8 B0B5     		push	{r4, r5, r7, lr}
 1819              	.LCFI13:
 1820              		.cfi_def_cfa_offset 16
 1821              		.cfi_offset 4, -16
 1822              		.cfi_offset 5, -12
 1823              		.cfi_offset 7, -8
 1824              		.cfi_offset 14, -4
 1825 01fa 84B0     		sub	sp, sp, #16
 1826              	.LCFI14:
 1827              		.cfi_def_cfa_offset 32
 1828 01fc 00AF     		add	r7, sp, #0
 1829              	.LCFI15:
 1830              		.cfi_def_cfa_register 7
ARM GAS  C:\Users\embedded\AppData\Local\Temp\cceTAOpi.s 			page 37


 1831 01fe 0500     		movs	r5, r0
 1832 0200 0C00     		movs	r4, r1
 1833 0202 1000     		movs	r0, r2
 1834 0204 1900     		movs	r1, r3
 1835 0206 FB1D     		adds	r3, r7, #7
 1836 0208 2A1C     		adds	r2, r5, #0
 1837 020a 1A70     		strb	r2, [r3]
 1838 020c BB1D     		adds	r3, r7, #6
 1839 020e 221C     		adds	r2, r4, #0
 1840 0210 1A70     		strb	r2, [r3]
 1841 0212 7B1D     		adds	r3, r7, #5
 1842 0214 021C     		adds	r2, r0, #0
 1843 0216 1A70     		strb	r2, [r3]
 1844 0218 3B1D     		adds	r3, r7, #4
 1845 021a 0A1C     		adds	r2, r1, #0
 1846 021c 1A70     		strb	r2, [r3]
 221:lcd.c         ****   tU32 i;
 222:lcd.c         ****   tU32 len;
 223:lcd.c         **** 
 224:lcd.c         ****   //select controller
 225:lcd.c         ****   selectLCD(TRUE);   
 1847              		.loc 1 225 0
 1848 021e 0120     		movs	r0, #1
 1849 0220 FFF7FEFF 		bl	selectLCD
 226:lcd.c         **** 
 227:lcd.c         ****   lcdWindow1(x,y,x+xLen-1,y+yLen-1);
 1850              		.loc 1 227 0
 1851 0224 FA1D     		adds	r2, r7, #7
 1852 0226 7B1D     		adds	r3, r7, #5
 1853 0228 1278     		ldrb	r2, [r2]
 1854 022a 1B78     		ldrb	r3, [r3]
 1855 022c D318     		adds	r3, r2, r3
 1856 022e 1B06     		lsls	r3, r3, #24
 1857 0230 1B0E     		lsrs	r3, r3, #24
 1858 0232 013B     		subs	r3, r3, #1
 1859 0234 1B06     		lsls	r3, r3, #24
 1860 0236 1C0E     		lsrs	r4, r3, #24
 1861 0238 BA1D     		adds	r2, r7, #6
 1862 023a 3B1D     		adds	r3, r7, #4
 1863 023c 1278     		ldrb	r2, [r2]
 1864 023e 1B78     		ldrb	r3, [r3]
 1865 0240 D318     		adds	r3, r2, r3
 1866 0242 1B06     		lsls	r3, r3, #24
 1867 0244 1B0E     		lsrs	r3, r3, #24
 1868 0246 013B     		subs	r3, r3, #1
 1869 0248 1B06     		lsls	r3, r3, #24
 1870 024a 1A0E     		lsrs	r2, r3, #24
 1871 024c BB1D     		adds	r3, r7, #6
 1872 024e 1978     		ldrb	r1, [r3]
 1873 0250 FB1D     		adds	r3, r7, #7
 1874 0252 1878     		ldrb	r0, [r3]
 1875 0254 1300     		movs	r3, r2
 1876 0256 2200     		movs	r2, r4
 1877 0258 00F0BAF9 		bl	lcdWindow1
 228:lcd.c         ****   
 229:lcd.c         ****   lcdWrcmd(LCD_CMD_RAMWR);    //write memory
 1878              		.loc 1 229 0
ARM GAS  C:\Users\embedded\AppData\Local\Temp\cceTAOpi.s 			page 38


 1879 025c 2C20     		movs	r0, #44
 1880 025e FFF7FEFF 		bl	lcdWrcmd
 230:lcd.c         ****   
 231:lcd.c         ****   len = xLen*yLen;
 1881              		.loc 1 231 0
 1882 0262 7B1D     		adds	r3, r7, #5
 1883 0264 1978     		ldrb	r1, [r3]
 1884 0266 3A1D     		adds	r2, r7, #4
 1885 0268 1278     		ldrb	r2, [r2]
 1886 026a 0B00     		movs	r3, r1
 1887 026c 5343     		muls	r3, r2
 1888 026e BB60     		str	r3, [r7, #8]
 232:lcd.c         ****   for(i=0; i<len; i++)
 1889              		.loc 1 232 0
 1890 0270 0023     		movs	r3, #0
 1891 0272 FB60     		str	r3, [r7, #12]
 1892 0274 08E0     		b	.L15
 1893              	.L16:
 233:lcd.c         ****     lcdWrdata(color);
 1894              		.loc 1 233 0 discriminator 3
 1895 0276 2023     		movs	r3, #32
 1896 0278 FB18     		adds	r3, r7, r3
 1897 027a 1B78     		ldrb	r3, [r3]
 1898 027c 1800     		movs	r0, r3
 1899 027e FFF7FEFF 		bl	lcdWrdata
 232:lcd.c         ****   for(i=0; i<len; i++)
 1900              		.loc 1 232 0 discriminator 3
 1901 0282 FB68     		ldr	r3, [r7, #12]
 1902 0284 0133     		adds	r3, r3, #1
 1903 0286 FB60     		str	r3, [r7, #12]
 1904              	.L15:
 232:lcd.c         ****   for(i=0; i<len; i++)
 1905              		.loc 1 232 0 is_stmt 0 discriminator 1
 1906 0288 FA68     		ldr	r2, [r7, #12]
 1907 028a BB68     		ldr	r3, [r7, #8]
 1908 028c 9A42     		cmp	r2, r3
 1909 028e F2D3     		bcc	.L16
 234:lcd.c         **** 
 235:lcd.c         ****   //deselect controller
 236:lcd.c         ****   selectLCD(FALSE);
 1910              		.loc 1 236 0 is_stmt 1
 1911 0290 0020     		movs	r0, #0
 1912 0292 FFF7FEFF 		bl	selectLCD
 237:lcd.c         **** }
 1913              		.loc 1 237 0
 1914 0296 C046     		nop
 1915 0298 BD46     		mov	sp, r7
 1916 029a 04B0     		add	sp, sp, #16
 1917              		@ sp needed
 1918 029c B0BC     		pop	{r4, r5, r7}
 1919 029e 01BC     		pop	{r0}
 1920 02a0 0047     		bx	r0
 1921              		.cfi_endproc
 1922              	.LFE5:
 1923              		.size	lcdRect, .-lcdRect
 1924              		.align	1
 1925              		.global	lcdRectBrd
ARM GAS  C:\Users\embedded\AppData\Local\Temp\cceTAOpi.s 			page 39


 1926              		.syntax unified
 1927              		.code	16
 1928              		.thumb_func
 1929              		.fpu softvfp
 1930              		.type	lcdRectBrd, %function
 1931              	lcdRectBrd:
 1932              	.LFB6:
 238:lcd.c         **** 
 239:lcd.c         **** 
 240:lcd.c         **** /*****************************************************************************
 241:lcd.c         ****  *
 242:lcd.c         ****  * Description:
 243:lcd.c         ****  *    Draw rectangular area with different boardser colors. Currently used
 244:lcd.c         ****  *    by example game.
 245:lcd.c         ****  *
 246:lcd.c         ****  ****************************************************************************/
 247:lcd.c         **** void
 248:lcd.c         **** lcdRectBrd(tU8 x, tU8 y, tU8 xLen, tU8 yLen, tU8 color1, tU8 color2, tU8 color3)
 249:lcd.c         **** {
 1933              		.loc 1 249 0
 1934              		.cfi_startproc
 1935              		@ Function supports interworking.
 1936              		@ args = 12, pretend = 0, frame = 16
 1937              		@ frame_needed = 1, uses_anonymous_args = 0
 1938 02a2 B0B5     		push	{r4, r5, r7, lr}
 1939              	.LCFI16:
 1940              		.cfi_def_cfa_offset 16
 1941              		.cfi_offset 4, -16
 1942              		.cfi_offset 5, -12
 1943              		.cfi_offset 7, -8
 1944              		.cfi_offset 14, -4
 1945 02a4 84B0     		sub	sp, sp, #16
 1946              	.LCFI17:
 1947              		.cfi_def_cfa_offset 32
 1948 02a6 00AF     		add	r7, sp, #0
 1949              	.LCFI18:
 1950              		.cfi_def_cfa_register 7
 1951 02a8 0500     		movs	r5, r0
 1952 02aa 0C00     		movs	r4, r1
 1953 02ac 1000     		movs	r0, r2
 1954 02ae 1900     		movs	r1, r3
 1955 02b0 FB1D     		adds	r3, r7, #7
 1956 02b2 2A1C     		adds	r2, r5, #0
 1957 02b4 1A70     		strb	r2, [r3]
 1958 02b6 BB1D     		adds	r3, r7, #6
 1959 02b8 221C     		adds	r2, r4, #0
 1960 02ba 1A70     		strb	r2, [r3]
 1961 02bc 7B1D     		adds	r3, r7, #5
 1962 02be 021C     		adds	r2, r0, #0
 1963 02c0 1A70     		strb	r2, [r3]
 1964 02c2 3B1D     		adds	r3, r7, #4
 1965 02c4 0A1C     		adds	r2, r1, #0
 1966 02c6 1A70     		strb	r2, [r3]
 250:lcd.c         ****   tU8 i,j;
 251:lcd.c         **** 
 252:lcd.c         ****   //select controller
 253:lcd.c         ****   selectLCD(TRUE);   
ARM GAS  C:\Users\embedded\AppData\Local\Temp\cceTAOpi.s 			page 40


 1967              		.loc 1 253 0
 1968 02c8 0120     		movs	r0, #1
 1969 02ca FFF7FEFF 		bl	selectLCD
 254:lcd.c         **** 
 255:lcd.c         ****   lcdWindow1(x,y,x+xLen-1,y+yLen-1);
 1970              		.loc 1 255 0
 1971 02ce FA1D     		adds	r2, r7, #7
 1972 02d0 7B1D     		adds	r3, r7, #5
 1973 02d2 1278     		ldrb	r2, [r2]
 1974 02d4 1B78     		ldrb	r3, [r3]
 1975 02d6 D318     		adds	r3, r2, r3
 1976 02d8 1B06     		lsls	r3, r3, #24
 1977 02da 1B0E     		lsrs	r3, r3, #24
 1978 02dc 013B     		subs	r3, r3, #1
 1979 02de 1B06     		lsls	r3, r3, #24
 1980 02e0 1C0E     		lsrs	r4, r3, #24
 1981 02e2 BA1D     		adds	r2, r7, #6
 1982 02e4 3B1D     		adds	r3, r7, #4
 1983 02e6 1278     		ldrb	r2, [r2]
 1984 02e8 1B78     		ldrb	r3, [r3]
 1985 02ea D318     		adds	r3, r2, r3
 1986 02ec 1B06     		lsls	r3, r3, #24
 1987 02ee 1B0E     		lsrs	r3, r3, #24
 1988 02f0 013B     		subs	r3, r3, #1
 1989 02f2 1B06     		lsls	r3, r3, #24
 1990 02f4 1A0E     		lsrs	r2, r3, #24
 1991 02f6 BB1D     		adds	r3, r7, #6
 1992 02f8 1978     		ldrb	r1, [r3]
 1993 02fa FB1D     		adds	r3, r7, #7
 1994 02fc 1878     		ldrb	r0, [r3]
 1995 02fe 1300     		movs	r3, r2
 1996 0300 2200     		movs	r2, r4
 1997 0302 00F065F9 		bl	lcdWindow1
 256:lcd.c         ****   
 257:lcd.c         ****   lcdWrcmd(LCD_CMD_RAMWR);    //write memory
 1998              		.loc 1 257 0
 1999 0306 2C20     		movs	r0, #44
 2000 0308 FFF7FEFF 		bl	lcdWrcmd
 258:lcd.c         ****   
 259:lcd.c         ****   for(i=0; i<xLen; i++)
 2001              		.loc 1 259 0
 2002 030c 0F23     		movs	r3, #15
 2003 030e FB18     		adds	r3, r7, r3
 2004 0310 0022     		movs	r2, #0
 2005 0312 1A70     		strb	r2, [r3]
 2006 0314 0BE0     		b	.L18
 2007              	.L19:
 260:lcd.c         ****     lcdWrdata(color2);
 2008              		.loc 1 260 0 discriminator 3
 2009 0316 2423     		movs	r3, #36
 2010 0318 FB18     		adds	r3, r7, r3
 2011 031a 1B78     		ldrb	r3, [r3]
 2012 031c 1800     		movs	r0, r3
 2013 031e FFF7FEFF 		bl	lcdWrdata
 259:lcd.c         ****     lcdWrdata(color2);
 2014              		.loc 1 259 0 discriminator 3
 2015 0322 0F21     		movs	r1, #15
ARM GAS  C:\Users\embedded\AppData\Local\Temp\cceTAOpi.s 			page 41


 2016 0324 7B18     		adds	r3, r7, r1
 2017 0326 1A78     		ldrb	r2, [r3]
 2018 0328 7B18     		adds	r3, r7, r1
 2019 032a 0132     		adds	r2, r2, #1
 2020 032c 1A70     		strb	r2, [r3]
 2021              	.L18:
 259:lcd.c         ****     lcdWrdata(color2);
 2022              		.loc 1 259 0 is_stmt 0 discriminator 1
 2023 032e 0F23     		movs	r3, #15
 2024 0330 FA18     		adds	r2, r7, r3
 2025 0332 7B1D     		adds	r3, r7, #5
 2026 0334 1278     		ldrb	r2, [r2]
 2027 0336 1B78     		ldrb	r3, [r3]
 2028 0338 9A42     		cmp	r2, r3
 2029 033a ECD3     		bcc	.L19
 261:lcd.c         ****   for(j=1; j<(yLen-2); j++)
 2030              		.loc 1 261 0 is_stmt 1
 2031 033c 0E23     		movs	r3, #14
 2032 033e FB18     		adds	r3, r7, r3
 2033 0340 0122     		movs	r2, #1
 2034 0342 1A70     		strb	r2, [r3]
 2035 0344 2AE0     		b	.L20
 2036              	.L23:
 262:lcd.c         ****   {
 263:lcd.c         ****     lcdWrdata(color2);
 2037              		.loc 1 263 0
 2038 0346 2423     		movs	r3, #36
 2039 0348 FB18     		adds	r3, r7, r3
 2040 034a 1B78     		ldrb	r3, [r3]
 2041 034c 1800     		movs	r0, r3
 2042 034e FFF7FEFF 		bl	lcdWrdata
 264:lcd.c         ****     for(i=0; i<(xLen-2); i++)
 2043              		.loc 1 264 0
 2044 0352 0F23     		movs	r3, #15
 2045 0354 FB18     		adds	r3, r7, r3
 2046 0356 0022     		movs	r2, #0
 2047 0358 1A70     		strb	r2, [r3]
 2048 035a 0BE0     		b	.L21
 2049              	.L22:
 265:lcd.c         ****       lcdWrdata(color1);
 2050              		.loc 1 265 0 discriminator 3
 2051 035c 2023     		movs	r3, #32
 2052 035e FB18     		adds	r3, r7, r3
 2053 0360 1B78     		ldrb	r3, [r3]
 2054 0362 1800     		movs	r0, r3
 2055 0364 FFF7FEFF 		bl	lcdWrdata
 264:lcd.c         ****     for(i=0; i<(xLen-2); i++)
 2056              		.loc 1 264 0 discriminator 3
 2057 0368 0F21     		movs	r1, #15
 2058 036a 7B18     		adds	r3, r7, r1
 2059 036c 1A78     		ldrb	r2, [r3]
 2060 036e 7B18     		adds	r3, r7, r1
 2061 0370 0132     		adds	r2, r2, #1
 2062 0372 1A70     		strb	r2, [r3]
 2063              	.L21:
 264:lcd.c         ****     for(i=0; i<(xLen-2); i++)
 2064              		.loc 1 264 0 is_stmt 0 discriminator 1
ARM GAS  C:\Users\embedded\AppData\Local\Temp\cceTAOpi.s 			page 42


 2065 0374 0F23     		movs	r3, #15
 2066 0376 FB18     		adds	r3, r7, r3
 2067 0378 1A78     		ldrb	r2, [r3]
 2068 037a 7B1D     		adds	r3, r7, #5
 2069 037c 1B78     		ldrb	r3, [r3]
 2070 037e 023B     		subs	r3, r3, #2
 2071 0380 9A42     		cmp	r2, r3
 2072 0382 EBDB     		blt	.L22
 266:lcd.c         ****     lcdWrdata(color3);
 2073              		.loc 1 266 0 is_stmt 1 discriminator 2
 2074 0384 2823     		movs	r3, #40
 2075 0386 FB18     		adds	r3, r7, r3
 2076 0388 1B78     		ldrb	r3, [r3]
 2077 038a 1800     		movs	r0, r3
 2078 038c FFF7FEFF 		bl	lcdWrdata
 261:lcd.c         ****   {
 2079              		.loc 1 261 0 discriminator 2
 2080 0390 0E21     		movs	r1, #14
 2081 0392 7B18     		adds	r3, r7, r1
 2082 0394 1A78     		ldrb	r2, [r3]
 2083 0396 7B18     		adds	r3, r7, r1
 2084 0398 0132     		adds	r2, r2, #1
 2085 039a 1A70     		strb	r2, [r3]
 2086              	.L20:
 261:lcd.c         ****   {
 2087              		.loc 1 261 0 is_stmt 0 discriminator 1
 2088 039c 0E23     		movs	r3, #14
 2089 039e FB18     		adds	r3, r7, r3
 2090 03a0 1A78     		ldrb	r2, [r3]
 2091 03a2 3B1D     		adds	r3, r7, #4
 2092 03a4 1B78     		ldrb	r3, [r3]
 2093 03a6 023B     		subs	r3, r3, #2
 2094 03a8 9A42     		cmp	r2, r3
 2095 03aa CCDB     		blt	.L23
 267:lcd.c         ****   }
 268:lcd.c         ****   for(i=0; i<xLen; i++)
 2096              		.loc 1 268 0 is_stmt 1
 2097 03ac 0F23     		movs	r3, #15
 2098 03ae FB18     		adds	r3, r7, r3
 2099 03b0 0022     		movs	r2, #0
 2100 03b2 1A70     		strb	r2, [r3]
 2101 03b4 0BE0     		b	.L24
 2102              	.L25:
 269:lcd.c         ****     lcdWrdata(color3);
 2103              		.loc 1 269 0 discriminator 3
 2104 03b6 2823     		movs	r3, #40
 2105 03b8 FB18     		adds	r3, r7, r3
 2106 03ba 1B78     		ldrb	r3, [r3]
 2107 03bc 1800     		movs	r0, r3
 2108 03be FFF7FEFF 		bl	lcdWrdata
 268:lcd.c         ****     lcdWrdata(color3);
 2109              		.loc 1 268 0 discriminator 3
 2110 03c2 0F21     		movs	r1, #15
 2111 03c4 7B18     		adds	r3, r7, r1
 2112 03c6 1A78     		ldrb	r2, [r3]
 2113 03c8 7B18     		adds	r3, r7, r1
 2114 03ca 0132     		adds	r2, r2, #1
ARM GAS  C:\Users\embedded\AppData\Local\Temp\cceTAOpi.s 			page 43


 2115 03cc 1A70     		strb	r2, [r3]
 2116              	.L24:
 268:lcd.c         ****     lcdWrdata(color3);
 2117              		.loc 1 268 0 is_stmt 0 discriminator 1
 2118 03ce 0F23     		movs	r3, #15
 2119 03d0 FA18     		adds	r2, r7, r3
 2120 03d2 7B1D     		adds	r3, r7, #5
 2121 03d4 1278     		ldrb	r2, [r2]
 2122 03d6 1B78     		ldrb	r3, [r3]
 2123 03d8 9A42     		cmp	r2, r3
 2124 03da ECD3     		bcc	.L25
 270:lcd.c         **** 
 271:lcd.c         ****   //deselect controller
 272:lcd.c         ****   selectLCD(FALSE);
 2125              		.loc 1 272 0 is_stmt 1
 2126 03dc 0020     		movs	r0, #0
 2127 03de FFF7FEFF 		bl	selectLCD
 273:lcd.c         **** }
 2128              		.loc 1 273 0
 2129 03e2 C046     		nop
 2130 03e4 BD46     		mov	sp, r7
 2131 03e6 04B0     		add	sp, sp, #16
 2132              		@ sp needed
 2133 03e8 B0BC     		pop	{r4, r5, r7}
 2134 03ea 01BC     		pop	{r0}
 2135 03ec 0047     		bx	r0
 2136              		.cfi_endproc
 2137              	.LFE6:
 2138              		.size	lcdRectBrd, .-lcdRectBrd
 2139              		.align	1
 2140              		.global	lcdIcon
 2141              		.syntax unified
 2142              		.code	16
 2143              		.thumb_func
 2144              		.fpu softvfp
 2145              		.type	lcdIcon, %function
 2146              	lcdIcon:
 2147              	.LFB7:
 274:lcd.c         **** 
 275:lcd.c         **** 
 276:lcd.c         **** /*****************************************************************************
 277:lcd.c         ****  *
 278:lcd.c         ****  * Description:
 279:lcd.c         ****  *    Draw rectangular area from bitmap. Specify xy-position and xy-length.
 280:lcd.c         ****  *    Compressed format is supported.
 281:lcd.c         ****  *
 282:lcd.c         ****  *    In uncompressed color mode, pData points to an area of xLen * yLen
 283:lcd.c         ****  *    bytes with the icon.
 284:lcd.c         ****  *    In compressed mode the escapeChar is used to denote that the next
 285:lcd.c         ****  *    two bytes contain a length and a color (run length encoding)
 286:lcd.c         ****  *    Note that is is still possible to specify the color value that
 287:lcd.c         ****  *    equals the escape value in a compressed string.
 288:lcd.c         ****  *
 289:lcd.c         ****  ****************************************************************************/
 290:lcd.c         **** void
 291:lcd.c         **** lcdIcon(tU8 x, tU8 y, tU8 xLen, tU8 yLen, tU8 compressionOn, tU8 escapeChar, const tU8* pData)
 292:lcd.c         **** {
ARM GAS  C:\Users\embedded\AppData\Local\Temp\cceTAOpi.s 			page 44


 2148              		.loc 1 292 0
 2149              		.cfi_startproc
 2150              		@ Function supports interworking.
 2151              		@ args = 12, pretend = 0, frame = 24
 2152              		@ frame_needed = 1, uses_anonymous_args = 0
 2153 03ee B0B5     		push	{r4, r5, r7, lr}
 2154              	.LCFI19:
 2155              		.cfi_def_cfa_offset 16
 2156              		.cfi_offset 4, -16
 2157              		.cfi_offset 5, -12
 2158              		.cfi_offset 7, -8
 2159              		.cfi_offset 14, -4
 2160 03f0 86B0     		sub	sp, sp, #24
 2161              	.LCFI20:
 2162              		.cfi_def_cfa_offset 40
 2163 03f2 00AF     		add	r7, sp, #0
 2164              	.LCFI21:
 2165              		.cfi_def_cfa_register 7
 2166 03f4 0500     		movs	r5, r0
 2167 03f6 0C00     		movs	r4, r1
 2168 03f8 1000     		movs	r0, r2
 2169 03fa 1900     		movs	r1, r3
 2170 03fc FB1D     		adds	r3, r7, #7
 2171 03fe 2A1C     		adds	r2, r5, #0
 2172 0400 1A70     		strb	r2, [r3]
 2173 0402 BB1D     		adds	r3, r7, #6
 2174 0404 221C     		adds	r2, r4, #0
 2175 0406 1A70     		strb	r2, [r3]
 2176 0408 7B1D     		adds	r3, r7, #5
 2177 040a 021C     		adds	r2, r0, #0
 2178 040c 1A70     		strb	r2, [r3]
 2179 040e 3B1D     		adds	r3, r7, #4
 2180 0410 0A1C     		adds	r2, r1, #0
 2181 0412 1A70     		strb	r2, [r3]
 293:lcd.c         ****   tU8 i,j;
 294:lcd.c         ****   tS32 len;
 295:lcd.c         **** 
 296:lcd.c         ****   //select controller
 297:lcd.c         ****   selectLCD(TRUE);   
 2182              		.loc 1 297 0
 2183 0414 0120     		movs	r0, #1
 2184 0416 FFF7FEFF 		bl	selectLCD
 298:lcd.c         **** 
 299:lcd.c         ****   lcdWindow1(x,y,x+xLen-1,y+yLen-1);
 2185              		.loc 1 299 0
 2186 041a FA1D     		adds	r2, r7, #7
 2187 041c 7B1D     		adds	r3, r7, #5
 2188 041e 1278     		ldrb	r2, [r2]
 2189 0420 1B78     		ldrb	r3, [r3]
 2190 0422 D318     		adds	r3, r2, r3
 2191 0424 1B06     		lsls	r3, r3, #24
 2192 0426 1B0E     		lsrs	r3, r3, #24
 2193 0428 013B     		subs	r3, r3, #1
 2194 042a 1B06     		lsls	r3, r3, #24
 2195 042c 1C0E     		lsrs	r4, r3, #24
 2196 042e BA1D     		adds	r2, r7, #6
 2197 0430 3B1D     		adds	r3, r7, #4
ARM GAS  C:\Users\embedded\AppData\Local\Temp\cceTAOpi.s 			page 45


 2198 0432 1278     		ldrb	r2, [r2]
 2199 0434 1B78     		ldrb	r3, [r3]
 2200 0436 D318     		adds	r3, r2, r3
 2201 0438 1B06     		lsls	r3, r3, #24
 2202 043a 1B0E     		lsrs	r3, r3, #24
 2203 043c 013B     		subs	r3, r3, #1
 2204 043e 1B06     		lsls	r3, r3, #24
 2205 0440 1A0E     		lsrs	r2, r3, #24
 2206 0442 BB1D     		adds	r3, r7, #6
 2207 0444 1978     		ldrb	r1, [r3]
 2208 0446 FB1D     		adds	r3, r7, #7
 2209 0448 1878     		ldrb	r0, [r3]
 2210 044a 1300     		movs	r3, r2
 2211 044c 2200     		movs	r2, r4
 2212 044e 00F0BFF8 		bl	lcdWindow1
 300:lcd.c         ****   
 301:lcd.c         ****   lcdWrcmd(LCD_CMD_RAMWR);    //write memory
 2213              		.loc 1 301 0
 2214 0452 2C20     		movs	r0, #44
 2215 0454 FFF7FEFF 		bl	lcdWrcmd
 302:lcd.c         ****   
 303:lcd.c         ****   len = xLen*yLen;
 2216              		.loc 1 303 0
 2217 0458 7B1D     		adds	r3, r7, #5
 2218 045a 1978     		ldrb	r1, [r3]
 2219 045c 3A1D     		adds	r2, r7, #4
 2220 045e 1278     		ldrb	r2, [r2]
 2221 0460 0B00     		movs	r3, r1
 2222 0462 5343     		muls	r3, r2
 2223 0464 3B61     		str	r3, [r7, #16]
 304:lcd.c         ****   if (compressionOn == FALSE)
 2224              		.loc 1 304 0
 2225 0466 2823     		movs	r3, #40
 2226 0468 FB18     		adds	r3, r7, r3
 2227 046a 1B78     		ldrb	r3, [r3]
 2228 046c 002B     		cmp	r3, #0
 2229 046e 55D1     		bne	.L31
 305:lcd.c         ****   {
 306:lcd.c         ****     for(i=0; i<len; i++)
 2230              		.loc 1 306 0
 2231 0470 1723     		movs	r3, #23
 2232 0472 FB18     		adds	r3, r7, r3
 2233 0474 0022     		movs	r2, #0
 2234 0476 1A70     		strb	r2, [r3]
 2235 0478 0CE0     		b	.L28
 2236              	.L29:
 307:lcd.c         ****       lcdWrdata(*pData++);
 2237              		.loc 1 307 0 discriminator 3
 2238 047a 3B6B     		ldr	r3, [r7, #48]
 2239 047c 5A1C     		adds	r2, r3, #1
 2240 047e 3A63     		str	r2, [r7, #48]
 2241 0480 1B78     		ldrb	r3, [r3]
 2242 0482 1800     		movs	r0, r3
 2243 0484 FFF7FEFF 		bl	lcdWrdata
 306:lcd.c         ****       lcdWrdata(*pData++);
 2244              		.loc 1 306 0 discriminator 3
 2245 0488 1721     		movs	r1, #23
ARM GAS  C:\Users\embedded\AppData\Local\Temp\cceTAOpi.s 			page 46


 2246 048a 7B18     		adds	r3, r7, r1
 2247 048c 1A78     		ldrb	r2, [r3]
 2248 048e 7B18     		adds	r3, r7, r1
 2249 0490 0132     		adds	r2, r2, #1
 2250 0492 1A70     		strb	r2, [r3]
 2251              	.L28:
 306:lcd.c         ****       lcdWrdata(*pData++);
 2252              		.loc 1 306 0 is_stmt 0 discriminator 1
 2253 0494 1723     		movs	r3, #23
 2254 0496 FB18     		adds	r3, r7, r3
 2255 0498 1B78     		ldrb	r3, [r3]
 2256 049a 3A69     		ldr	r2, [r7, #16]
 2257 049c 9A42     		cmp	r2, r3
 2258 049e ECDC     		bgt	.L29
 2259 04a0 3FE0     		b	.L30
 2260              	.L35:
 308:lcd.c         ****   }
 309:lcd.c         ****   else
 310:lcd.c         ****     while(len > 0)
 311:lcd.c         ****     {
 312:lcd.c         ****       if(*pData == escapeChar)
 2261              		.loc 1 312 0 is_stmt 1
 2262 04a2 3B6B     		ldr	r3, [r7, #48]
 2263 04a4 1B78     		ldrb	r3, [r3]
 2264 04a6 2C22     		movs	r2, #44
 2265 04a8 BA18     		adds	r2, r7, r2
 2266 04aa 1278     		ldrb	r2, [r2]
 2267 04ac 9A42     		cmp	r2, r3
 2268 04ae 2BD1     		bne	.L32
 313:lcd.c         ****       {
 314:lcd.c         ****         pData++;
 2269              		.loc 1 314 0
 2270 04b0 3B6B     		ldr	r3, [r7, #48]
 2271 04b2 0133     		adds	r3, r3, #1
 2272 04b4 3B63     		str	r3, [r7, #48]
 315:lcd.c         ****         j = *pData++;
 2273              		.loc 1 315 0
 2274 04b6 3B6B     		ldr	r3, [r7, #48]
 2275 04b8 5A1C     		adds	r2, r3, #1
 2276 04ba 3A63     		str	r2, [r7, #48]
 2277 04bc 0F22     		movs	r2, #15
 2278 04be BA18     		adds	r2, r7, r2
 2279 04c0 1B78     		ldrb	r3, [r3]
 2280 04c2 1370     		strb	r3, [r2]
 316:lcd.c         ****         for(i=0;i<j;i++)
 2281              		.loc 1 316 0
 2282 04c4 1723     		movs	r3, #23
 2283 04c6 FB18     		adds	r3, r7, r3
 2284 04c8 0022     		movs	r2, #0
 2285 04ca 1A70     		strb	r2, [r3]
 2286 04cc 0AE0     		b	.L33
 2287              	.L34:
 317:lcd.c         ****           lcdWrdata(*pData);
 2288              		.loc 1 317 0 discriminator 3
 2289 04ce 3B6B     		ldr	r3, [r7, #48]
 2290 04d0 1B78     		ldrb	r3, [r3]
 2291 04d2 1800     		movs	r0, r3
ARM GAS  C:\Users\embedded\AppData\Local\Temp\cceTAOpi.s 			page 47


 2292 04d4 FFF7FEFF 		bl	lcdWrdata
 316:lcd.c         ****         for(i=0;i<j;i++)
 2293              		.loc 1 316 0 discriminator 3
 2294 04d8 1721     		movs	r1, #23
 2295 04da 7B18     		adds	r3, r7, r1
 2296 04dc 1A78     		ldrb	r2, [r3]
 2297 04de 7B18     		adds	r3, r7, r1
 2298 04e0 0132     		adds	r2, r2, #1
 2299 04e2 1A70     		strb	r2, [r3]
 2300              	.L33:
 316:lcd.c         ****         for(i=0;i<j;i++)
 2301              		.loc 1 316 0 is_stmt 0 discriminator 1
 2302 04e4 1723     		movs	r3, #23
 2303 04e6 FA18     		adds	r2, r7, r3
 2304 04e8 0F23     		movs	r3, #15
 2305 04ea FB18     		adds	r3, r7, r3
 2306 04ec 1278     		ldrb	r2, [r2]
 2307 04ee 1B78     		ldrb	r3, [r3]
 2308 04f0 9A42     		cmp	r2, r3
 2309 04f2 ECD3     		bcc	.L34
 318:lcd.c         ****         pData++;
 2310              		.loc 1 318 0 is_stmt 1
 2311 04f4 3B6B     		ldr	r3, [r7, #48]
 2312 04f6 0133     		adds	r3, r3, #1
 2313 04f8 3B63     		str	r3, [r7, #48]
 319:lcd.c         ****         len -= j;
 2314              		.loc 1 319 0
 2315 04fa 0F23     		movs	r3, #15
 2316 04fc FB18     		adds	r3, r7, r3
 2317 04fe 1B78     		ldrb	r3, [r3]
 2318 0500 3A69     		ldr	r2, [r7, #16]
 2319 0502 D31A     		subs	r3, r2, r3
 2320 0504 3B61     		str	r3, [r7, #16]
 2321 0506 09E0     		b	.L31
 2322              	.L32:
 320:lcd.c         ****       }
 321:lcd.c         ****       else
 322:lcd.c         ****       {
 323:lcd.c         ****         lcdWrdata(*pData++);
 2323              		.loc 1 323 0
 2324 0508 3B6B     		ldr	r3, [r7, #48]
 2325 050a 5A1C     		adds	r2, r3, #1
 2326 050c 3A63     		str	r2, [r7, #48]
 2327 050e 1B78     		ldrb	r3, [r3]
 2328 0510 1800     		movs	r0, r3
 2329 0512 FFF7FEFF 		bl	lcdWrdata
 324:lcd.c         ****         len--;
 2330              		.loc 1 324 0
 2331 0516 3B69     		ldr	r3, [r7, #16]
 2332 0518 013B     		subs	r3, r3, #1
 2333 051a 3B61     		str	r3, [r7, #16]
 2334              	.L31:
 310:lcd.c         ****     {
 2335              		.loc 1 310 0
 2336 051c 3B69     		ldr	r3, [r7, #16]
 2337 051e 002B     		cmp	r3, #0
 2338 0520 BFDC     		bgt	.L35
ARM GAS  C:\Users\embedded\AppData\Local\Temp\cceTAOpi.s 			page 48


 2339              	.L30:
 325:lcd.c         ****       }
 326:lcd.c         ****     }
 327:lcd.c         **** 
 328:lcd.c         ****   //deselect controller
 329:lcd.c         ****   selectLCD(FALSE);
 2340              		.loc 1 329 0
 2341 0522 0020     		movs	r0, #0
 2342 0524 FFF7FEFF 		bl	selectLCD
 330:lcd.c         **** }
 2343              		.loc 1 330 0
 2344 0528 C046     		nop
 2345 052a BD46     		mov	sp, r7
 2346 052c 06B0     		add	sp, sp, #24
 2347              		@ sp needed
 2348 052e B0BC     		pop	{r4, r5, r7}
 2349 0530 01BC     		pop	{r0}
 2350 0532 0047     		bx	r0
 2351              		.cfi_endproc
 2352              	.LFE7:
 2353              		.size	lcdIcon, .-lcdIcon
 2354              		.align	1
 2355              		.global	lcdGotoxy
 2356              		.syntax unified
 2357              		.code	16
 2358              		.thumb_func
 2359              		.fpu softvfp
 2360              		.type	lcdGotoxy, %function
 2361              	lcdGotoxy:
 2362              	.LFB8:
 331:lcd.c         **** 
 332:lcd.c         **** 
 333:lcd.c         **** /*****************************************************************************
 334:lcd.c         ****  *
 335:lcd.c         ****  * Description:
 336:lcd.c         ****  *    Update xy-position (by also creating a window).
 337:lcd.c         ****  *
 338:lcd.c         ****  ****************************************************************************/
 339:lcd.c         **** void
 340:lcd.c         **** lcdGotoxy(tU8 x, tU8 y)
 341:lcd.c         **** {
 2363              		.loc 1 341 0
 2364              		.cfi_startproc
 2365              		@ Function supports interworking.
 2366              		@ args = 0, pretend = 0, frame = 8
 2367              		@ frame_needed = 1, uses_anonymous_args = 0
 2368 0534 80B5     		push	{r7, lr}
 2369              	.LCFI22:
 2370              		.cfi_def_cfa_offset 8
 2371              		.cfi_offset 7, -8
 2372              		.cfi_offset 14, -4
 2373 0536 82B0     		sub	sp, sp, #8
 2374              	.LCFI23:
 2375              		.cfi_def_cfa_offset 16
 2376 0538 00AF     		add	r7, sp, #0
 2377              	.LCFI24:
 2378              		.cfi_def_cfa_register 7
ARM GAS  C:\Users\embedded\AppData\Local\Temp\cceTAOpi.s 			page 49


 2379 053a 0200     		movs	r2, r0
 2380 053c FB1D     		adds	r3, r7, #7
 2381 053e 1A70     		strb	r2, [r3]
 2382 0540 BB1D     		adds	r3, r7, #6
 2383 0542 0A1C     		adds	r2, r1, #0
 2384 0544 1A70     		strb	r2, [r3]
 342:lcd.c         ****   lcd_x = x;
 2385              		.loc 1 342 0
 2386 0546 0B4B     		ldr	r3, .L37
 2387 0548 FA1D     		adds	r2, r7, #7
 2388 054a 1278     		ldrb	r2, [r2]
 2389 054c 1A70     		strb	r2, [r3]
 343:lcd.c         ****   lcd_y = y;
 2390              		.loc 1 343 0
 2391 054e 0A4B     		ldr	r3, .L37+4
 2392 0550 BA1D     		adds	r2, r7, #6
 2393 0552 1278     		ldrb	r2, [r2]
 2394 0554 1A70     		strb	r2, [r3]
 344:lcd.c         ****   lcdWindow(x, y, 129, 129);
 2395              		.loc 1 344 0
 2396 0556 BB1D     		adds	r3, r7, #6
 2397 0558 1978     		ldrb	r1, [r3]
 2398 055a FB1D     		adds	r3, r7, #7
 2399 055c 1878     		ldrb	r0, [r3]
 2400 055e 8123     		movs	r3, #129
 2401 0560 8122     		movs	r2, #129
 2402 0562 FFF7FEFF 		bl	lcdWindow
 345:lcd.c         **** }
 2403              		.loc 1 345 0
 2404 0566 C046     		nop
 2405 0568 BD46     		mov	sp, r7
 2406 056a 02B0     		add	sp, sp, #8
 2407              		@ sp needed
 2408 056c 80BC     		pop	{r7}
 2409 056e 01BC     		pop	{r0}
 2410 0570 0047     		bx	r0
 2411              	.L38:
 2412 0572 C046     		.align	2
 2413              	.L37:
 2414 0574 00000000 		.word	lcd_x
 2415 0578 01000000 		.word	lcd_y
 2416              		.cfi_endproc
 2417              	.LFE8:
 2418              		.size	lcdGotoxy, .-lcdGotoxy
 2419              		.align	1
 2420              		.global	lcdWindow
 2421              		.syntax unified
 2422              		.code	16
 2423              		.thumb_func
 2424              		.fpu softvfp
 2425              		.type	lcdWindow, %function
 2426              	lcdWindow:
 2427              	.LFB9:
 346:lcd.c         **** 
 347:lcd.c         **** 
 348:lcd.c         **** /*****************************************************************************
 349:lcd.c         ****  *
ARM GAS  C:\Users\embedded\AppData\Local\Temp\cceTAOpi.s 			page 50


 350:lcd.c         ****  * Description:
 351:lcd.c         ****  *    Initialize LCD controller for a window (to write in).
 352:lcd.c         ****  *    Set start xy-position and xy-length.
 353:lcd.c         ****  *    Selects/deselects LCD controller.
 354:lcd.c         ****  *
 355:lcd.c         ****  ****************************************************************************/
 356:lcd.c         **** void
 357:lcd.c         **** lcdWindow(tU8 xp, tU8 yp, tU8 xe, tU8 ye)
 358:lcd.c         **** {
 2428              		.loc 1 358 0
 2429              		.cfi_startproc
 2430              		@ Function supports interworking.
 2431              		@ args = 0, pretend = 0, frame = 8
 2432              		@ frame_needed = 1, uses_anonymous_args = 0
 2433 057c B0B5     		push	{r4, r5, r7, lr}
 2434              	.LCFI25:
 2435              		.cfi_def_cfa_offset 16
 2436              		.cfi_offset 4, -16
 2437              		.cfi_offset 5, -12
 2438              		.cfi_offset 7, -8
 2439              		.cfi_offset 14, -4
 2440 057e 82B0     		sub	sp, sp, #8
 2441              	.LCFI26:
 2442              		.cfi_def_cfa_offset 24
 2443 0580 00AF     		add	r7, sp, #0
 2444              	.LCFI27:
 2445              		.cfi_def_cfa_register 7
 2446 0582 0500     		movs	r5, r0
 2447 0584 0C00     		movs	r4, r1
 2448 0586 1000     		movs	r0, r2
 2449 0588 1900     		movs	r1, r3
 2450 058a FB1D     		adds	r3, r7, #7
 2451 058c 2A1C     		adds	r2, r5, #0
 2452 058e 1A70     		strb	r2, [r3]
 2453 0590 BB1D     		adds	r3, r7, #6
 2454 0592 221C     		adds	r2, r4, #0
 2455 0594 1A70     		strb	r2, [r3]
 2456 0596 7B1D     		adds	r3, r7, #5
 2457 0598 021C     		adds	r2, r0, #0
 2458 059a 1A70     		strb	r2, [r3]
 2459 059c 3B1D     		adds	r3, r7, #4
 2460 059e 0A1C     		adds	r2, r1, #0
 2461 05a0 1A70     		strb	r2, [r3]
 359:lcd.c         ****   //select controller
 360:lcd.c         ****   selectLCD(TRUE);
 2462              		.loc 1 360 0
 2463 05a2 0120     		movs	r0, #1
 2464 05a4 FFF7FEFF 		bl	selectLCD
 361:lcd.c         **** 
 362:lcd.c         **** 	lcdWindow1(xp, yp, xe, ye);
 2465              		.loc 1 362 0
 2466 05a8 3B1D     		adds	r3, r7, #4
 2467 05aa 1C78     		ldrb	r4, [r3]
 2468 05ac 7B1D     		adds	r3, r7, #5
 2469 05ae 1A78     		ldrb	r2, [r3]
 2470 05b0 BB1D     		adds	r3, r7, #6
 2471 05b2 1978     		ldrb	r1, [r3]
ARM GAS  C:\Users\embedded\AppData\Local\Temp\cceTAOpi.s 			page 51


 2472 05b4 FB1D     		adds	r3, r7, #7
 2473 05b6 1878     		ldrb	r0, [r3]
 2474 05b8 2300     		movs	r3, r4
 2475 05ba 00F009F8 		bl	lcdWindow1
 363:lcd.c         **** 
 364:lcd.c         ****   //deselect controller
 365:lcd.c         ****   selectLCD(FALSE);
 2476              		.loc 1 365 0
 2477 05be 0020     		movs	r0, #0
 2478 05c0 FFF7FEFF 		bl	selectLCD
 366:lcd.c         **** }
 2479              		.loc 1 366 0
 2480 05c4 C046     		nop
 2481 05c6 BD46     		mov	sp, r7
 2482 05c8 02B0     		add	sp, sp, #8
 2483              		@ sp needed
 2484 05ca B0BC     		pop	{r4, r5, r7}
 2485 05cc 01BC     		pop	{r0}
 2486 05ce 0047     		bx	r0
 2487              		.cfi_endproc
 2488              	.LFE9:
 2489              		.size	lcdWindow, .-lcdWindow
 2490              		.align	1
 2491              		.syntax unified
 2492              		.code	16
 2493              		.thumb_func
 2494              		.fpu softvfp
 2495              		.type	lcdWindow1, %function
 2496              	lcdWindow1:
 2497              	.LFB10:
 367:lcd.c         **** 
 368:lcd.c         **** 
 369:lcd.c         **** /*****************************************************************************
 370:lcd.c         ****  *
 371:lcd.c         ****  * Description:
 372:lcd.c         ****  *    Initialize LCD controller for a window (to write in).
 373:lcd.c         ****  *    Set start xy-position and xy-length
 374:lcd.c         ****  *    No select/deselect of LCD controller.
 375:lcd.c         ****  *
 376:lcd.c         ****  ****************************************************************************/
 377:lcd.c         **** static void
 378:lcd.c         **** lcdWindow1(tU8 xp, tU8 yp, tU8 xe, tU8 ye)
 379:lcd.c         **** {
 2498              		.loc 1 379 0
 2499              		.cfi_startproc
 2500              		@ Function supports interworking.
 2501              		@ args = 0, pretend = 0, frame = 8
 2502              		@ frame_needed = 1, uses_anonymous_args = 0
 2503 05d0 B0B5     		push	{r4, r5, r7, lr}
 2504              	.LCFI28:
 2505              		.cfi_def_cfa_offset 16
 2506              		.cfi_offset 4, -16
 2507              		.cfi_offset 5, -12
 2508              		.cfi_offset 7, -8
 2509              		.cfi_offset 14, -4
 2510 05d2 82B0     		sub	sp, sp, #8
 2511              	.LCFI29:
ARM GAS  C:\Users\embedded\AppData\Local\Temp\cceTAOpi.s 			page 52


 2512              		.cfi_def_cfa_offset 24
 2513 05d4 00AF     		add	r7, sp, #0
 2514              	.LCFI30:
 2515              		.cfi_def_cfa_register 7
 2516 05d6 0500     		movs	r5, r0
 2517 05d8 0C00     		movs	r4, r1
 2518 05da 1000     		movs	r0, r2
 2519 05dc 1900     		movs	r1, r3
 2520 05de FB1D     		adds	r3, r7, #7
 2521 05e0 2A1C     		adds	r2, r5, #0
 2522 05e2 1A70     		strb	r2, [r3]
 2523 05e4 BB1D     		adds	r3, r7, #6
 2524 05e6 221C     		adds	r2, r4, #0
 2525 05e8 1A70     		strb	r2, [r3]
 2526 05ea 7B1D     		adds	r3, r7, #5
 2527 05ec 021C     		adds	r2, r0, #0
 2528 05ee 1A70     		strb	r2, [r3]
 2529 05f0 3B1D     		adds	r3, r7, #4
 2530 05f2 0A1C     		adds	r2, r1, #0
 2531 05f4 1A70     		strb	r2, [r3]
 380:lcd.c         ****   lcdWrcmd(LCD_CMD_CASET);    //set X
 2532              		.loc 1 380 0
 2533 05f6 2A20     		movs	r0, #42
 2534 05f8 FFF7FEFF 		bl	lcdWrcmd
 381:lcd.c         ****   lcdWrdata(xp+2);
 2535              		.loc 1 381 0
 2536 05fc FB1D     		adds	r3, r7, #7
 2537 05fe 1B78     		ldrb	r3, [r3]
 2538 0600 0233     		adds	r3, r3, #2
 2539 0602 1B06     		lsls	r3, r3, #24
 2540 0604 1B0E     		lsrs	r3, r3, #24
 2541 0606 1800     		movs	r0, r3
 2542 0608 FFF7FEFF 		bl	lcdWrdata
 382:lcd.c         **** 	lcdWrdata(xe+2);
 2543              		.loc 1 382 0
 2544 060c 7B1D     		adds	r3, r7, #5
 2545 060e 1B78     		ldrb	r3, [r3]
 2546 0610 0233     		adds	r3, r3, #2
 2547 0612 1B06     		lsls	r3, r3, #24
 2548 0614 1B0E     		lsrs	r3, r3, #24
 2549 0616 1800     		movs	r0, r3
 2550 0618 FFF7FEFF 		bl	lcdWrdata
 383:lcd.c         **** 
 384:lcd.c         **** 	lcdWrcmd(LCD_CMD_PASET);    //set Y
 2551              		.loc 1 384 0
 2552 061c 2B20     		movs	r0, #43
 2553 061e FFF7FEFF 		bl	lcdWrcmd
 385:lcd.c         **** 	lcdWrdata(yp+2);
 2554              		.loc 1 385 0
 2555 0622 BB1D     		adds	r3, r7, #6
 2556 0624 1B78     		ldrb	r3, [r3]
 2557 0626 0233     		adds	r3, r3, #2
 2558 0628 1B06     		lsls	r3, r3, #24
 2559 062a 1B0E     		lsrs	r3, r3, #24
 2560 062c 1800     		movs	r0, r3
 2561 062e FFF7FEFF 		bl	lcdWrdata
 386:lcd.c         **** 	lcdWrdata(ye+2);
ARM GAS  C:\Users\embedded\AppData\Local\Temp\cceTAOpi.s 			page 53


 2562              		.loc 1 386 0
 2563 0632 3B1D     		adds	r3, r7, #4
 2564 0634 1B78     		ldrb	r3, [r3]
 2565 0636 0233     		adds	r3, r3, #2
 2566 0638 1B06     		lsls	r3, r3, #24
 2567 063a 1B0E     		lsrs	r3, r3, #24
 2568 063c 1800     		movs	r0, r3
 2569 063e FFF7FEFF 		bl	lcdWrdata
 387:lcd.c         **** }
 2570              		.loc 1 387 0
 2571 0642 C046     		nop
 2572 0644 BD46     		mov	sp, r7
 2573 0646 02B0     		add	sp, sp, #8
 2574              		@ sp needed
 2575 0648 B0BC     		pop	{r4, r5, r7}
 2576 064a 01BC     		pop	{r0}
 2577 064c 0047     		bx	r0
 2578              		.cfi_endproc
 2579              	.LFE10:
 2580              		.size	lcdWindow1, .-lcdWindow1
 2581              		.align	1
 2582              		.syntax unified
 2583              		.code	16
 2584              		.thumb_func
 2585              		.fpu softvfp
 2586              		.type	lcdNewline, %function
 2587              	lcdNewline:
 2588              	.LFB11:
 388:lcd.c         **** 
 389:lcd.c         **** 
 390:lcd.c         **** /*****************************************************************************
 391:lcd.c         ****  *
 392:lcd.c         ****  * Description:
 393:lcd.c         ****  *    Update xy-position for newline situation.
 394:lcd.c         ****  *
 395:lcd.c         ****  ****************************************************************************/
 396:lcd.c         **** static void
 397:lcd.c         **** lcdNewline(void)
 398:lcd.c         **** {
 2589              		.loc 1 398 0
 2590              		.cfi_startproc
 2591              		@ Function supports interworking.
 2592              		@ args = 0, pretend = 0, frame = 0
 2593              		@ frame_needed = 1, uses_anonymous_args = 0
 2594 064e 80B5     		push	{r7, lr}
 2595              	.LCFI31:
 2596              		.cfi_def_cfa_offset 8
 2597              		.cfi_offset 7, -8
 2598              		.cfi_offset 14, -4
 2599 0650 00AF     		add	r7, sp, #0
 2600              	.LCFI32:
 2601              		.cfi_def_cfa_register 7
 399:lcd.c         ****   lcd_x  = 0;
 2602              		.loc 1 399 0
 2603 0652 0B4B     		ldr	r3, .L44
 2604 0654 0022     		movs	r2, #0
 2605 0656 1A70     		strb	r2, [r3]
ARM GAS  C:\Users\embedded\AppData\Local\Temp\cceTAOpi.s 			page 54


 400:lcd.c         ****   lcd_y	+= 14;
 2606              		.loc 1 400 0
 2607 0658 0A4B     		ldr	r3, .L44+4
 2608 065a 1B78     		ldrb	r3, [r3]
 2609 065c 0E33     		adds	r3, r3, #14
 2610 065e 1B06     		lsls	r3, r3, #24
 2611 0660 1A0E     		lsrs	r2, r3, #24
 2612 0662 084B     		ldr	r3, .L44+4
 2613 0664 1A70     		strb	r2, [r3]
 401:lcd.c         ****   if (lcd_y >= 126)
 2614              		.loc 1 401 0
 2615 0666 074B     		ldr	r3, .L44+4
 2616 0668 1B78     		ldrb	r3, [r3]
 2617 066a 7D2B     		cmp	r3, #125
 2618 066c 02D9     		bls	.L43
 402:lcd.c         ****     lcd_y = 126;
 2619              		.loc 1 402 0
 2620 066e 054B     		ldr	r3, .L44+4
 2621 0670 7E22     		movs	r2, #126
 2622 0672 1A70     		strb	r2, [r3]
 2623              	.L43:
 403:lcd.c         **** }
 2624              		.loc 1 403 0
 2625 0674 C046     		nop
 2626 0676 BD46     		mov	sp, r7
 2627              		@ sp needed
 2628 0678 80BC     		pop	{r7}
 2629 067a 01BC     		pop	{r0}
 2630 067c 0047     		bx	r0
 2631              	.L45:
 2632 067e C046     		.align	2
 2633              	.L44:
 2634 0680 00000000 		.word	lcd_x
 2635 0684 01000000 		.word	lcd_y
 2636              		.cfi_endproc
 2637              	.LFE11:
 2638              		.size	lcdNewline, .-lcdNewline
 2639              		.align	1
 2640              		.global	lcdData
 2641              		.syntax unified
 2642              		.code	16
 2643              		.thumb_func
 2644              		.fpu softvfp
 2645              		.type	lcdData, %function
 2646              	lcdData:
 2647              	.LFB12:
 404:lcd.c         **** 
 405:lcd.c         **** 
 406:lcd.c         **** /*****************************************************************************
 407:lcd.c         ****  *
 408:lcd.c         ****  * Description:
 409:lcd.c         ****  *    Draw one character withc current foreground and background color
 410:lcd.c         ****  *    at current xy position on display. Update x-position (+8).
 411:lcd.c         ****  *
 412:lcd.c         ****  ****************************************************************************/
 413:lcd.c         **** void
 414:lcd.c         **** lcdData(tU8 data)
ARM GAS  C:\Users\embedded\AppData\Local\Temp\cceTAOpi.s 			page 55


 415:lcd.c         **** {
 2648              		.loc 1 415 0
 2649              		.cfi_startproc
 2650              		@ Function supports interworking.
 2651              		@ args = 0, pretend = 0, frame = 16
 2652              		@ frame_needed = 1, uses_anonymous_args = 0
 2653 0688 80B5     		push	{r7, lr}
 2654              	.LCFI33:
 2655              		.cfi_def_cfa_offset 8
 2656              		.cfi_offset 7, -8
 2657              		.cfi_offset 14, -4
 2658 068a 84B0     		sub	sp, sp, #16
 2659              	.LCFI34:
 2660              		.cfi_def_cfa_offset 24
 2661 068c 00AF     		add	r7, sp, #0
 2662              	.LCFI35:
 2663              		.cfi_def_cfa_register 7
 2664 068e 0200     		movs	r2, r0
 2665 0690 FB1D     		adds	r3, r7, #7
 2666 0692 1A70     		strb	r2, [r3]
 416:lcd.c         ****   //select controller
 417:lcd.c         ****   selectLCD(TRUE);
 2667              		.loc 1 417 0
 2668 0694 0120     		movs	r0, #1
 2669 0696 FFF7FEFF 		bl	selectLCD
 418:lcd.c         ****   
 419:lcd.c         ****   if (data <= 127)
 2670              		.loc 1 419 0
 2671 069a FB1D     		adds	r3, r7, #7
 2672 069c 1B78     		ldrb	r3, [r3]
 2673 069e 1B06     		lsls	r3, r3, #24
 2674 06a0 1B16     		asrs	r3, r3, #24
 2675 06a2 73D4     		bmi	.L47
 2676              	.LBB2:
 420:lcd.c         ****   {
 421:lcd.c         ****     tU32 mapOffset;
 422:lcd.c         ****     tU8 i,j,byteToShift;
 423:lcd.c         **** 
 424:lcd.c         ****     data -= 30;
 2677              		.loc 1 424 0
 2678 06a4 FB1D     		adds	r3, r7, #7
 2679 06a6 FA1D     		adds	r2, r7, #7
 2680 06a8 1278     		ldrb	r2, [r2]
 2681 06aa 1E3A     		subs	r2, r2, #30
 2682 06ac 1A70     		strb	r2, [r3]
 425:lcd.c         ****     mapOffset = 14*data;
 2683              		.loc 1 425 0
 2684 06ae FB1D     		adds	r3, r7, #7
 2685 06b0 1A78     		ldrb	r2, [r3]
 2686 06b2 1300     		movs	r3, r2
 2687 06b4 DB00     		lsls	r3, r3, #3
 2688 06b6 9B1A     		subs	r3, r3, r2
 2689 06b8 5B00     		lsls	r3, r3, #1
 2690 06ba FB60     		str	r3, [r7, #12]
 426:lcd.c         **** 
 427:lcd.c         ****     lcdWrcmd(LCD_CMD_CASET);
 2691              		.loc 1 427 0
ARM GAS  C:\Users\embedded\AppData\Local\Temp\cceTAOpi.s 			page 56


 2692 06bc 2A20     		movs	r0, #42
 2693 06be FFF7FEFF 		bl	lcdWrcmd
 428:lcd.c         ****     lcdWrdata(lcd_x+2);
 2694              		.loc 1 428 0
 2695 06c2 3A4B     		ldr	r3, .L54
 2696 06c4 1B78     		ldrb	r3, [r3]
 2697 06c6 0233     		adds	r3, r3, #2
 2698 06c8 1B06     		lsls	r3, r3, #24
 2699 06ca 1B0E     		lsrs	r3, r3, #24
 2700 06cc 1800     		movs	r0, r3
 2701 06ce FFF7FEFF 		bl	lcdWrdata
 429:lcd.c         ****     lcdWrdata(lcd_x+9);
 2702              		.loc 1 429 0
 2703 06d2 364B     		ldr	r3, .L54
 2704 06d4 1B78     		ldrb	r3, [r3]
 2705 06d6 0933     		adds	r3, r3, #9
 2706 06d8 1B06     		lsls	r3, r3, #24
 2707 06da 1B0E     		lsrs	r3, r3, #24
 2708 06dc 1800     		movs	r0, r3
 2709 06de FFF7FEFF 		bl	lcdWrdata
 430:lcd.c         ****     lcdWrcmd(LCD_CMD_PASET);
 2710              		.loc 1 430 0
 2711 06e2 2B20     		movs	r0, #43
 2712 06e4 FFF7FEFF 		bl	lcdWrcmd
 431:lcd.c         ****     lcdWrdata(lcd_y+2);
 2713              		.loc 1 431 0
 2714 06e8 314B     		ldr	r3, .L54+4
 2715 06ea 1B78     		ldrb	r3, [r3]
 2716 06ec 0233     		adds	r3, r3, #2
 2717 06ee 1B06     		lsls	r3, r3, #24
 2718 06f0 1B0E     		lsrs	r3, r3, #24
 2719 06f2 1800     		movs	r0, r3
 2720 06f4 FFF7FEFF 		bl	lcdWrdata
 432:lcd.c         ****     lcdWrdata(lcd_y+15);
 2721              		.loc 1 432 0
 2722 06f8 2D4B     		ldr	r3, .L54+4
 2723 06fa 1B78     		ldrb	r3, [r3]
 2724 06fc 0F33     		adds	r3, r3, #15
 2725 06fe 1B06     		lsls	r3, r3, #24
 2726 0700 1B0E     		lsrs	r3, r3, #24
 2727 0702 1800     		movs	r0, r3
 2728 0704 FFF7FEFF 		bl	lcdWrdata
 433:lcd.c         ****     lcdWrcmd(LCD_CMD_RAMWR);
 2729              		.loc 1 433 0
 2730 0708 2C20     		movs	r0, #44
 2731 070a FFF7FEFF 		bl	lcdWrcmd
 434:lcd.c         ****     
 435:lcd.c         ****     for(i=0; i<14; i++)
 2732              		.loc 1 435 0
 2733 070e 0B23     		movs	r3, #11
 2734 0710 FB18     		adds	r3, r7, r3
 2735 0712 0022     		movs	r2, #0
 2736 0714 1A70     		strb	r2, [r3]
 2737 0716 34E0     		b	.L48
 2738              	.L53:
 436:lcd.c         ****     {
 437:lcd.c         ****       byteToShift = charMap[mapOffset++];
ARM GAS  C:\Users\embedded\AppData\Local\Temp\cceTAOpi.s 			page 57


 2739              		.loc 1 437 0
 2740 0718 FB68     		ldr	r3, [r7, #12]
 2741 071a 5A1C     		adds	r2, r3, #1
 2742 071c FA60     		str	r2, [r7, #12]
 2743 071e 0922     		movs	r2, #9
 2744 0720 BA18     		adds	r2, r7, r2
 2745 0722 2449     		ldr	r1, .L54+8
 2746 0724 CB5C     		ldrb	r3, [r1, r3]
 2747 0726 1370     		strb	r3, [r2]
 438:lcd.c         ****       for(j=0; j<8; j++)
 2748              		.loc 1 438 0
 2749 0728 0A23     		movs	r3, #10
 2750 072a FB18     		adds	r3, r7, r3
 2751 072c 0022     		movs	r2, #0
 2752 072e 1A70     		strb	r2, [r3]
 2753 0730 1CE0     		b	.L49
 2754              	.L52:
 439:lcd.c         ****       {
 440:lcd.c         ****         if (byteToShift & 0x80)
 2755              		.loc 1 440 0
 2756 0732 0923     		movs	r3, #9
 2757 0734 FB18     		adds	r3, r7, r3
 2758 0736 1B78     		ldrb	r3, [r3]
 2759 0738 1B06     		lsls	r3, r3, #24
 2760 073a 1B16     		asrs	r3, r3, #24
 2761 073c 05D5     		bpl	.L50
 441:lcd.c         ****           lcdWrdata(textColor);
 2762              		.loc 1 441 0
 2763 073e 1E4B     		ldr	r3, .L54+12
 2764 0740 1B78     		ldrb	r3, [r3]
 2765 0742 1800     		movs	r0, r3
 2766 0744 FFF7FEFF 		bl	lcdWrdata
 2767 0748 04E0     		b	.L51
 2768              	.L50:
 442:lcd.c         ****         else
 443:lcd.c         ****           lcdWrdata(bkgColor);
 2769              		.loc 1 443 0
 2770 074a 1C4B     		ldr	r3, .L54+16
 2771 074c 1B78     		ldrb	r3, [r3]
 2772 074e 1800     		movs	r0, r3
 2773 0750 FFF7FEFF 		bl	lcdWrdata
 2774              	.L51:
 444:lcd.c         ****         byteToShift <<= 1;
 2775              		.loc 1 444 0 discriminator 2
 2776 0754 0923     		movs	r3, #9
 2777 0756 FA18     		adds	r2, r7, r3
 2778 0758 FB18     		adds	r3, r7, r3
 2779 075a 1B78     		ldrb	r3, [r3]
 2780 075c DB18     		adds	r3, r3, r3
 2781 075e 1370     		strb	r3, [r2]
 438:lcd.c         ****       {
 2782              		.loc 1 438 0 discriminator 2
 2783 0760 0A21     		movs	r1, #10
 2784 0762 7B18     		adds	r3, r7, r1
 2785 0764 1A78     		ldrb	r2, [r3]
 2786 0766 7B18     		adds	r3, r7, r1
 2787 0768 0132     		adds	r2, r2, #1
ARM GAS  C:\Users\embedded\AppData\Local\Temp\cceTAOpi.s 			page 58


 2788 076a 1A70     		strb	r2, [r3]
 2789              	.L49:
 438:lcd.c         ****       {
 2790              		.loc 1 438 0 is_stmt 0 discriminator 1
 2791 076c 0A23     		movs	r3, #10
 2792 076e FB18     		adds	r3, r7, r3
 2793 0770 1B78     		ldrb	r3, [r3]
 2794 0772 072B     		cmp	r3, #7
 2795 0774 DDD9     		bls	.L52
 435:lcd.c         ****     {
 2796              		.loc 1 435 0 is_stmt 1 discriminator 2
 2797 0776 0B21     		movs	r1, #11
 2798 0778 7B18     		adds	r3, r7, r1
 2799 077a 1A78     		ldrb	r2, [r3]
 2800 077c 7B18     		adds	r3, r7, r1
 2801 077e 0132     		adds	r2, r2, #1
 2802 0780 1A70     		strb	r2, [r3]
 2803              	.L48:
 435:lcd.c         ****     {
 2804              		.loc 1 435 0 is_stmt 0 discriminator 1
 2805 0782 0B23     		movs	r3, #11
 2806 0784 FB18     		adds	r3, r7, r3
 2807 0786 1B78     		ldrb	r3, [r3]
 2808 0788 0D2B     		cmp	r3, #13
 2809 078a C5D9     		bls	.L53
 2810              	.L47:
 2811              	.LBE2:
 445:lcd.c         ****       }
 446:lcd.c         ****     }
 447:lcd.c         ****   }
 448:lcd.c         **** 
 449:lcd.c         ****   //deselect controller
 450:lcd.c         ****   selectLCD(FALSE);
 2812              		.loc 1 450 0 is_stmt 1
 2813 078c 0020     		movs	r0, #0
 2814 078e FFF7FEFF 		bl	selectLCD
 451:lcd.c         **** 
 452:lcd.c         ****   lcd_x += 8;
 2815              		.loc 1 452 0
 2816 0792 064B     		ldr	r3, .L54
 2817 0794 1B78     		ldrb	r3, [r3]
 2818 0796 0833     		adds	r3, r3, #8
 2819 0798 1B06     		lsls	r3, r3, #24
 2820 079a 1A0E     		lsrs	r2, r3, #24
 2821 079c 034B     		ldr	r3, .L54
 2822 079e 1A70     		strb	r2, [r3]
 453:lcd.c         **** }
 2823              		.loc 1 453 0
 2824 07a0 C046     		nop
 2825 07a2 BD46     		mov	sp, r7
 2826 07a4 04B0     		add	sp, sp, #16
 2827              		@ sp needed
 2828 07a6 80BC     		pop	{r7}
 2829 07a8 01BC     		pop	{r0}
 2830 07aa 0047     		bx	r0
 2831              	.L55:
 2832              		.align	2
ARM GAS  C:\Users\embedded\AppData\Local\Temp\cceTAOpi.s 			page 59


 2833              	.L54:
 2834 07ac 00000000 		.word	lcd_x
 2835 07b0 01000000 		.word	lcd_y
 2836 07b4 00000000 		.word	charMap
 2837 07b8 03000000 		.word	textColor
 2838 07bc 02000000 		.word	bkgColor
 2839              		.cfi_endproc
 2840              	.LFE12:
 2841              		.size	lcdData, .-lcdData
 2842              		.align	1
 2843              		.global	lcdPutchar
 2844              		.syntax unified
 2845              		.code	16
 2846              		.thumb_func
 2847              		.fpu softvfp
 2848              		.type	lcdPutchar, %function
 2849              	lcdPutchar:
 2850              	.LFB13:
 454:lcd.c         **** 
 455:lcd.c         **** 
 456:lcd.c         **** /*****************************************************************************
 457:lcd.c         ****  *
 458:lcd.c         ****  * Description:
 459:lcd.c         ****  *    Write/draw one character at current xy-position.
 460:lcd.c         ****  *    The xy-position is updated afterwards
 461:lcd.c         ****  *
 462:lcd.c         ****  ****************************************************************************/
 463:lcd.c         **** void
 464:lcd.c         **** lcdPutchar(tU8 data)
 465:lcd.c         **** {
 2851              		.loc 1 465 0
 2852              		.cfi_startproc
 2853              		@ Function supports interworking.
 2854              		@ args = 0, pretend = 0, frame = 8
 2855              		@ frame_needed = 1, uses_anonymous_args = 0
 2856 07c0 80B5     		push	{r7, lr}
 2857              	.LCFI36:
 2858              		.cfi_def_cfa_offset 8
 2859              		.cfi_offset 7, -8
 2860              		.cfi_offset 14, -4
 2861 07c2 82B0     		sub	sp, sp, #8
 2862              	.LCFI37:
 2863              		.cfi_def_cfa_offset 16
 2864 07c4 00AF     		add	r7, sp, #0
 2865              	.LCFI38:
 2866              		.cfi_def_cfa_register 7
 2867 07c6 0200     		movs	r2, r0
 2868 07c8 FB1D     		adds	r3, r7, #7
 2869 07ca 1A70     		strb	r2, [r3]
 466:lcd.c         ****   if (data == '\n')
 2870              		.loc 1 466 0
 2871 07cc FB1D     		adds	r3, r7, #7
 2872 07ce 1B78     		ldrb	r3, [r3]
 2873 07d0 0A2B     		cmp	r3, #10
 2874 07d2 02D1     		bne	.L57
 467:lcd.c         ****     lcdNewline();
 2875              		.loc 1 467 0
ARM GAS  C:\Users\embedded\AppData\Local\Temp\cceTAOpi.s 			page 60


 2876 07d4 FFF73BFF 		bl	lcdNewline
 468:lcd.c         ****   else if (data != '\r')
 469:lcd.c         ****   {
 470:lcd.c         ****     if (setcolmark == TRUE)
 471:lcd.c         ****     {
 472:lcd.c         ****       textColor = data;
 473:lcd.c         ****       setcolmark = FALSE;
 474:lcd.c         ****     }
 475:lcd.c         ****     else if (data == 0xff)
 476:lcd.c         ****       setcolmark = TRUE;
 477:lcd.c         ****     else if (lcd_x <= 124)
 478:lcd.c         ****     {
 479:lcd.c         ****       lcdData(data);
 480:lcd.c         ****     }
 481:lcd.c         ****   }
 482:lcd.c         **** }
 2877              		.loc 1 482 0
 2878 07d8 20E0     		b	.L61
 2879              	.L57:
 468:lcd.c         ****   else if (data != '\r')
 2880              		.loc 1 468 0
 2881 07da FB1D     		adds	r3, r7, #7
 2882 07dc 1B78     		ldrb	r3, [r3]
 2883 07de 0D2B     		cmp	r3, #13
 2884 07e0 1CD0     		beq	.L61
 470:lcd.c         ****     {
 2885              		.loc 1 470 0
 2886 07e2 114B     		ldr	r3, .L62
 2887 07e4 1B78     		ldrb	r3, [r3]
 2888 07e6 012B     		cmp	r3, #1
 2889 07e8 07D1     		bne	.L59
 472:lcd.c         ****       setcolmark = FALSE;
 2890              		.loc 1 472 0
 2891 07ea 104B     		ldr	r3, .L62+4
 2892 07ec FA1D     		adds	r2, r7, #7
 2893 07ee 1278     		ldrb	r2, [r2]
 2894 07f0 1A70     		strb	r2, [r3]
 473:lcd.c         ****     }
 2895              		.loc 1 473 0
 2896 07f2 0D4B     		ldr	r3, .L62
 2897 07f4 0022     		movs	r2, #0
 2898 07f6 1A70     		strb	r2, [r3]
 2899              		.loc 1 482 0
 2900 07f8 10E0     		b	.L61
 2901              	.L59:
 475:lcd.c         ****       setcolmark = TRUE;
 2902              		.loc 1 475 0
 2903 07fa FB1D     		adds	r3, r7, #7
 2904 07fc 1B78     		ldrb	r3, [r3]
 2905 07fe FF2B     		cmp	r3, #255
 2906 0800 03D1     		bne	.L60
 476:lcd.c         ****     else if (lcd_x <= 124)
 2907              		.loc 1 476 0
 2908 0802 094B     		ldr	r3, .L62
 2909 0804 0122     		movs	r2, #1
 2910 0806 1A70     		strb	r2, [r3]
 2911              		.loc 1 482 0
ARM GAS  C:\Users\embedded\AppData\Local\Temp\cceTAOpi.s 			page 61


 2912 0808 08E0     		b	.L61
 2913              	.L60:
 477:lcd.c         ****     {
 2914              		.loc 1 477 0
 2915 080a 094B     		ldr	r3, .L62+8
 2916 080c 1B78     		ldrb	r3, [r3]
 2917 080e 7C2B     		cmp	r3, #124
 2918 0810 04D8     		bhi	.L61
 479:lcd.c         ****     }
 2919              		.loc 1 479 0
 2920 0812 FB1D     		adds	r3, r7, #7
 2921 0814 1B78     		ldrb	r3, [r3]
 2922 0816 1800     		movs	r0, r3
 2923 0818 FFF7FEFF 		bl	lcdData
 2924              	.L61:
 2925              		.loc 1 482 0
 2926 081c C046     		nop
 2927 081e BD46     		mov	sp, r7
 2928 0820 02B0     		add	sp, sp, #8
 2929              		@ sp needed
 2930 0822 80BC     		pop	{r7}
 2931 0824 01BC     		pop	{r0}
 2932 0826 0047     		bx	r0
 2933              	.L63:
 2934              		.align	2
 2935              	.L62:
 2936 0828 04000000 		.word	setcolmark
 2937 082c 03000000 		.word	textColor
 2938 0830 00000000 		.word	lcd_x
 2939              		.cfi_endproc
 2940              	.LFE13:
 2941              		.size	lcdPutchar, .-lcdPutchar
 2942              		.align	1
 2943              		.global	lcdPuts
 2944              		.syntax unified
 2945              		.code	16
 2946              		.thumb_func
 2947              		.fpu softvfp
 2948              		.type	lcdPuts, %function
 2949              	lcdPuts:
 2950              	.LFB14:
 483:lcd.c         **** 
 484:lcd.c         **** /*****************************************************************************
 485:lcd.c         ****  *
 486:lcd.c         ****  * Description:
 487:lcd.c         ****  *    Write/draw (null-terminated) string of character at current xy-position
 488:lcd.c         ****  *
 489:lcd.c         ****  ****************************************************************************/
 490:lcd.c         **** void
 491:lcd.c         **** lcdPuts(char *s)
 492:lcd.c         **** {
 2951              		.loc 1 492 0
 2952              		.cfi_startproc
 2953              		@ Function supports interworking.
 2954              		@ args = 0, pretend = 0, frame = 8
 2955              		@ frame_needed = 1, uses_anonymous_args = 0
 2956 0834 80B5     		push	{r7, lr}
ARM GAS  C:\Users\embedded\AppData\Local\Temp\cceTAOpi.s 			page 62


 2957              	.LCFI39:
 2958              		.cfi_def_cfa_offset 8
 2959              		.cfi_offset 7, -8
 2960              		.cfi_offset 14, -4
 2961 0836 82B0     		sub	sp, sp, #8
 2962              	.LCFI40:
 2963              		.cfi_def_cfa_offset 16
 2964 0838 00AF     		add	r7, sp, #0
 2965              	.LCFI41:
 2966              		.cfi_def_cfa_register 7
 2967 083a 7860     		str	r0, [r7, #4]
 493:lcd.c         ****   while(*s != '\0')
 2968              		.loc 1 493 0
 2969 083c 06E0     		b	.L65
 2970              	.L66:
 494:lcd.c         ****     lcdPutchar(*s++);
 2971              		.loc 1 494 0
 2972 083e 7B68     		ldr	r3, [r7, #4]
 2973 0840 5A1C     		adds	r2, r3, #1
 2974 0842 7A60     		str	r2, [r7, #4]
 2975 0844 1B78     		ldrb	r3, [r3]
 2976 0846 1800     		movs	r0, r3
 2977 0848 FFF7FEFF 		bl	lcdPutchar
 2978              	.L65:
 493:lcd.c         ****   while(*s != '\0')
 2979              		.loc 1 493 0
 2980 084c 7B68     		ldr	r3, [r7, #4]
 2981 084e 1B78     		ldrb	r3, [r3]
 2982 0850 002B     		cmp	r3, #0
 2983 0852 F4D1     		bne	.L66
 495:lcd.c         **** }
 2984              		.loc 1 495 0
 2985 0854 C046     		nop
 2986 0856 BD46     		mov	sp, r7
 2987 0858 02B0     		add	sp, sp, #8
 2988              		@ sp needed
 2989 085a 80BC     		pop	{r7}
 2990 085c 01BC     		pop	{r0}
 2991 085e 0047     		bx	r0
 2992              		.cfi_endproc
 2993              	.LFE14:
 2994              		.size	lcdPuts, .-lcdPuts
 2995              		.align	1
 2996              		.global	lcdWrcmd
 2997              		.syntax unified
 2998              		.code	16
 2999              		.thumb_func
 3000              		.fpu softvfp
 3001              		.type	lcdWrcmd, %function
 3002              	lcdWrcmd:
 3003              	.LFB15:
 496:lcd.c         **** 
 497:lcd.c         **** 
 498:lcd.c         **** /*****************************************************************************
 499:lcd.c         ****  *
 500:lcd.c         ****  * Description:
 501:lcd.c         ****  *    Send command data to LCD controller
ARM GAS  C:\Users\embedded\AppData\Local\Temp\cceTAOpi.s 			page 63


 502:lcd.c         ****  *
 503:lcd.c         ****  ****************************************************************************/
 504:lcd.c         **** void
 505:lcd.c         **** lcdWrcmd(tU8 data)
 506:lcd.c         **** {
 3004              		.loc 1 506 0
 3005              		.cfi_startproc
 3006              		@ Function supports interworking.
 3007              		@ args = 0, pretend = 0, frame = 8
 3008              		@ frame_needed = 1, uses_anonymous_args = 0
 3009 0860 80B5     		push	{r7, lr}
 3010              	.LCFI42:
 3011              		.cfi_def_cfa_offset 8
 3012              		.cfi_offset 7, -8
 3013              		.cfi_offset 14, -4
 3014 0862 82B0     		sub	sp, sp, #8
 3015              	.LCFI43:
 3016              		.cfi_def_cfa_offset 16
 3017 0864 00AF     		add	r7, sp, #0
 3018              	.LCFI44:
 3019              		.cfi_def_cfa_register 7
 3020 0866 0200     		movs	r2, r0
 3021 0868 FB1D     		adds	r3, r7, #7
 3022 086a 1A70     		strb	r2, [r3]
 507:lcd.c         ****   sendToLCD(0, data);
 3023              		.loc 1 507 0
 3024 086c FB1D     		adds	r3, r7, #7
 3025 086e 1B78     		ldrb	r3, [r3]
 3026 0870 1900     		movs	r1, r3
 3027 0872 0020     		movs	r0, #0
 3028 0874 FFF7FEFF 		bl	sendToLCD
 508:lcd.c         **** }
 3029              		.loc 1 508 0
 3030 0878 C046     		nop
 3031 087a BD46     		mov	sp, r7
 3032 087c 02B0     		add	sp, sp, #8
 3033              		@ sp needed
 3034 087e 80BC     		pop	{r7}
 3035 0880 01BC     		pop	{r0}
 3036 0882 0047     		bx	r0
 3037              		.cfi_endproc
 3038              	.LFE15:
 3039              		.size	lcdWrcmd, .-lcdWrcmd
 3040              		.align	1
 3041              		.global	lcdWrdata
 3042              		.syntax unified
 3043              		.code	16
 3044              		.thumb_func
 3045              		.fpu softvfp
 3046              		.type	lcdWrdata, %function
 3047              	lcdWrdata:
 3048              	.LFB16:
 509:lcd.c         **** 
 510:lcd.c         **** 
 511:lcd.c         **** /*****************************************************************************
 512:lcd.c         ****  *
 513:lcd.c         ****  * Description:
ARM GAS  C:\Users\embedded\AppData\Local\Temp\cceTAOpi.s 			page 64


 514:lcd.c         ****  *    Send data byte to LCD controller
 515:lcd.c         ****  *
 516:lcd.c         ****  ****************************************************************************/
 517:lcd.c         **** void
 518:lcd.c         **** lcdWrdata(tU8 data)
 519:lcd.c         **** {
 3049              		.loc 1 519 0
 3050              		.cfi_startproc
 3051              		@ Function supports interworking.
 3052              		@ args = 0, pretend = 0, frame = 8
 3053              		@ frame_needed = 1, uses_anonymous_args = 0
 3054 0884 80B5     		push	{r7, lr}
 3055              	.LCFI45:
 3056              		.cfi_def_cfa_offset 8
 3057              		.cfi_offset 7, -8
 3058              		.cfi_offset 14, -4
 3059 0886 82B0     		sub	sp, sp, #8
 3060              	.LCFI46:
 3061              		.cfi_def_cfa_offset 16
 3062 0888 00AF     		add	r7, sp, #0
 3063              	.LCFI47:
 3064              		.cfi_def_cfa_register 7
 3065 088a 0200     		movs	r2, r0
 3066 088c FB1D     		adds	r3, r7, #7
 3067 088e 1A70     		strb	r2, [r3]
 520:lcd.c         ****   sendToLCD(1, data);
 3068              		.loc 1 520 0
 3069 0890 FB1D     		adds	r3, r7, #7
 3070 0892 1B78     		ldrb	r3, [r3]
 3071 0894 1900     		movs	r1, r3
 3072 0896 0120     		movs	r0, #1
 3073 0898 FFF7FEFF 		bl	sendToLCD
 521:lcd.c         **** }
 3074              		.loc 1 521 0
 3075 089c C046     		nop
 3076 089e BD46     		mov	sp, r7
 3077 08a0 02B0     		add	sp, sp, #8
 3078              		@ sp needed
 3079 08a2 80BC     		pop	{r7}
 3080 08a4 01BC     		pop	{r0}
 3081 08a6 0047     		bx	r0
 3082              		.cfi_endproc
 3083              	.LFE16:
 3084              		.size	lcdWrdata, .-lcdWrdata
 3085              	.Letext0:
 3086              		.file 2 "general.h"
 3087              		.file 3 "ascii.h"